
Mensagens.elf:     file format elf32-littlearm

Sections:
Idx Name          Size      VMA       LMA       File off  Algn
  0 .text         0000c5b4  00006000  00006000  00006000  2**2
                  CONTENTS, ALLOC, LOAD, READONLY, CODE
  1 .ARM.exidx    00000008  000125b4  000125b4  000125b4  2**2
                  CONTENTS, ALLOC, LOAD, READONLY, DATA
  2 .relocate     000004c4  20000000  000125bc  00020000  2**3
                  CONTENTS, ALLOC, LOAD, CODE
  3 .bss          000009a4  200004c4  00012a80  000204c4  2**2
                  ALLOC
  4 .stack        00002000  20000e68  00013424  000204c4  2**0
                  ALLOC
  5 .ARM.attributes 00000028  00000000  00000000  000204c4  2**0
                  CONTENTS, READONLY
  6 .comment      00000059  00000000  00000000  000204ec  2**0
                  CONTENTS, READONLY
  7 .debug_info   0000522b  00000000  00000000  00020545  2**0
                  CONTENTS, READONLY, DEBUGGING
  8 .debug_abbrev 0000067a  00000000  00000000  00025770  2**0
                  CONTENTS, READONLY, DEBUGGING
  9 .debug_loc    00000279  00000000  00000000  00025dea  2**0
                  CONTENTS, READONLY, DEBUGGING
 10 .debug_aranges 00000078  00000000  00000000  00026063  2**0
                  CONTENTS, READONLY, DEBUGGING
 11 .debug_ranges 00000048  00000000  00000000  000260db  2**0
                  CONTENTS, READONLY, DEBUGGING
 12 .debug_macro  00011b9d  00000000  00000000  00026123  2**0
                  CONTENTS, READONLY, DEBUGGING
 13 .debug_line   00000f9a  00000000  00000000  00037cc0  2**0
                  CONTENTS, READONLY, DEBUGGING
 14 .debug_str    00071e1d  00000000  00000000  00038c5a  2**0
                  CONTENTS, READONLY, DEBUGGING
 15 .debug_frame  000005f4  00000000  00000000  000aaa78  2**2
                  CONTENTS, READONLY, DEBUGGING

Disassembly of section .text:

00006000 <exception_table>:
    6000:	68 2e 00 20 b5 61 00 00 b1 61 00 00 b1 61 00 00     h.. .a...a...a..
	...
    602c:	b1 61 00 00 00 00 00 00 00 00 00 00 b1 61 00 00     .a...........a..
    603c:	41 b4 00 00 b1 61 00 00 b1 61 00 00 b1 61 00 00     A....a...a...a..
    604c:	21 8d 00 00 3d c6 00 00 b1 61 00 00 b1 61 00 00     !...=....a...a..
    605c:	29 f6 00 00 b1 61 00 00 b1 61 00 00 b1 61 00 00     )....a...a...a..
    606c:	b1 61 00 00 19 71 00 00 b1 61 00 00 b1 61 00 00     .a...q...a...a..
    607c:	b1 61 00 00 b1 61 00 00 b1 61 00 00 8d 6d 00 00     .a...a...a...m..
    608c:	b1 61 00 00 b1 61 00 00 00 00 00 00 00 00 00 00     .a...a..........
    609c:	b1 61 00 00 b1 61 00 00 b1 61 00 00 b1 61 00 00     .a...a...a...a..
    60ac:	b1 61 00 00 00 00 00 00                             .a......

000060b4 <__do_global_dtors_aux>:
    60b4:	b510      	push	{r4, lr}
    60b6:	4c06      	ldr	r4, [pc, #24]	; (60d0 <__do_global_dtors_aux+0x1c>)
    60b8:	7823      	ldrb	r3, [r4, #0]
    60ba:	2b00      	cmp	r3, #0
    60bc:	d107      	bne.n	60ce <__do_global_dtors_aux+0x1a>
    60be:	4b05      	ldr	r3, [pc, #20]	; (60d4 <__do_global_dtors_aux+0x20>)
    60c0:	2b00      	cmp	r3, #0
    60c2:	d002      	beq.n	60ca <__do_global_dtors_aux+0x16>
    60c4:	4804      	ldr	r0, [pc, #16]	; (60d8 <__do_global_dtors_aux+0x24>)
    60c6:	e000      	b.n	60ca <__do_global_dtors_aux+0x16>
    60c8:	bf00      	nop
    60ca:	2301      	movs	r3, #1
    60cc:	7023      	strb	r3, [r4, #0]
    60ce:	bd10      	pop	{r4, pc}
    60d0:	200004c4 	.word	0x200004c4
    60d4:	00000000 	.word	0x00000000
    60d8:	000125bc 	.word	0x000125bc

000060dc <frame_dummy>:
    60dc:	4b08      	ldr	r3, [pc, #32]	; (6100 <frame_dummy+0x24>)
    60de:	b510      	push	{r4, lr}
    60e0:	2b00      	cmp	r3, #0
    60e2:	d003      	beq.n	60ec <frame_dummy+0x10>
    60e4:	4907      	ldr	r1, [pc, #28]	; (6104 <frame_dummy+0x28>)
    60e6:	4808      	ldr	r0, [pc, #32]	; (6108 <frame_dummy+0x2c>)
    60e8:	e000      	b.n	60ec <frame_dummy+0x10>
    60ea:	bf00      	nop
    60ec:	4807      	ldr	r0, [pc, #28]	; (610c <frame_dummy+0x30>)
    60ee:	6803      	ldr	r3, [r0, #0]
    60f0:	2b00      	cmp	r3, #0
    60f2:	d100      	bne.n	60f6 <frame_dummy+0x1a>
    60f4:	bd10      	pop	{r4, pc}
    60f6:	4b06      	ldr	r3, [pc, #24]	; (6110 <frame_dummy+0x34>)
    60f8:	2b00      	cmp	r3, #0
    60fa:	d0fb      	beq.n	60f4 <frame_dummy+0x18>
    60fc:	4798      	blx	r3
    60fe:	e7f9      	b.n	60f4 <frame_dummy+0x18>
    6100:	00000000 	.word	0x00000000
    6104:	200004c8 	.word	0x200004c8
    6108:	000125bc 	.word	0x000125bc
    610c:	000125bc 	.word	0x000125bc
    6110:	00000000 	.word	0x00000000

00006114 <convert_int_to_string>:
*/

#include "propria.h"

void convert_int_to_string(int direcao, int raio, int ID, int horas, int minutos, int segundos)
{
    6114:	b530      	push	{r4, r5, lr}
    6116:	b089      	sub	sp, #36	; 0x24
	int final_msg_int1, final_msg_int2;
	char final_msg_char1[6], final_msg_char2[6];
	char final_msg_char[12];

	final_msg_int1 = direcao*100000 + raio*1000 + ID;
	final_msg_int2 = horas*10000 + minutos*100 + segundos;
    6118:	4c12      	ldr	r4, [pc, #72]	; (6164 <convert_int_to_string+0x50>)
    611a:	435c      	muls	r4, r3
    611c:	2364      	movs	r3, #100	; 0x64
    611e:	9d0c      	ldr	r5, [sp, #48]	; 0x30
    6120:	436b      	muls	r3, r5
    6122:	18e4      	adds	r4, r4, r3
    6124:	9b0d      	ldr	r3, [sp, #52]	; 0x34
    6126:	469c      	mov	ip, r3
    6128:	4464      	add	r4, ip
	final_msg_int1 = direcao*100000 + raio*1000 + ID;
    612a:	4b0f      	ldr	r3, [pc, #60]	; (6168 <convert_int_to_string+0x54>)
    612c:	4358      	muls	r0, r3
    612e:	23fa      	movs	r3, #250	; 0xfa
    6130:	009b      	lsls	r3, r3, #2
    6132:	4359      	muls	r1, r3
    6134:	1840      	adds	r0, r0, r1
    6136:	1880      	adds	r0, r0, r2

	itoa(final_msg_int1, final_msg_char1, 10);
    6138:	220a      	movs	r2, #10
    613a:	a906      	add	r1, sp, #24
    613c:	4d0b      	ldr	r5, [pc, #44]	; (616c <convert_int_to_string+0x58>)
    613e:	47a8      	blx	r5
	itoa(final_msg_int2, final_msg_char2, 10);
    6140:	220a      	movs	r2, #10
    6142:	a904      	add	r1, sp, #16
    6144:	0020      	movs	r0, r4
    6146:	47a8      	blx	r5

	strcpy(final_msg_char, final_msg_char1);
    6148:	a906      	add	r1, sp, #24
    614a:	a801      	add	r0, sp, #4
    614c:	4c08      	ldr	r4, [pc, #32]	; (6170 <convert_int_to_string+0x5c>)
    614e:	47a0      	blx	r4
	strcat(final_msg_char, final_msg_char2);
    6150:	a904      	add	r1, sp, #16
    6152:	a801      	add	r0, sp, #4
    6154:	4b07      	ldr	r3, [pc, #28]	; (6174 <convert_int_to_string+0x60>)
    6156:	4798      	blx	r3

	strcpy(msg, final_msg_char);
    6158:	a901      	add	r1, sp, #4
    615a:	4807      	ldr	r0, [pc, #28]	; (6178 <convert_int_to_string+0x64>)
    615c:	47a0      	blx	r4
}
    615e:	b009      	add	sp, #36	; 0x24
    6160:	bd30      	pop	{r4, r5, pc}
    6162:	46c0      	nop			; (mov r8, r8)
    6164:	00002710 	.word	0x00002710
    6168:	000186a0 	.word	0x000186a0
    616c:	00011b65 	.word	0x00011b65
    6170:	00011d1d 	.word	0x00011d1d
    6174:	00011cd1 	.word	0x00011cd1
    6178:	20000800 	.word	0x20000800

0000617c <send_message>:

 void send_message(char *msg_to_send)
 {
    617c:	b5f0      	push	{r4, r5, r6, r7, lr}
    617e:	b083      	sub	sp, #12
    6180:	9001      	str	r0, [sp, #4]
	uint32_t relogio1,  relogio2;
	while(!fnRADIO_Send_Message( (uint8_t*)msg_to_send, 12, false ))
    6182:	4f09      	ldr	r7, [pc, #36]	; (61a8 <send_message+0x2c>)
	{
		relogio1 = fnRTC_Get_Count();
    6184:	4d09      	ldr	r5, [pc, #36]	; (61ac <send_message+0x30>)
		while(1){
			relogio2 = fnRTC_Get_Count();
    6186:	002e      	movs	r6, r5
	while(!fnRADIO_Send_Message( (uint8_t*)msg_to_send, 12, false ))
    6188:	e005      	b.n	6196 <send_message+0x1a>
		relogio1 = fnRTC_Get_Count();
    618a:	47a8      	blx	r5
			if(relogio2 > relogio1 + 10)
    618c:	300a      	adds	r0, #10
    618e:	0004      	movs	r4, r0
			relogio2 = fnRTC_Get_Count();
    6190:	47b0      	blx	r6
			if(relogio2 > relogio1 + 10)
    6192:	42a0      	cmp	r0, r4
    6194:	d9fc      	bls.n	6190 <send_message+0x14>
	while(!fnRADIO_Send_Message( (uint8_t*)msg_to_send, 12, false ))
    6196:	2200      	movs	r2, #0
    6198:	210c      	movs	r1, #12
    619a:	9801      	ldr	r0, [sp, #4]
    619c:	47b8      	blx	r7
    619e:	2800      	cmp	r0, #0
    61a0:	d0f3      	beq.n	618a <send_message+0xe>
			{
				break;
			}
		}
	}
    61a2:	b003      	add	sp, #12
    61a4:	bdf0      	pop	{r4, r5, r6, r7, pc}
    61a6:	46c0      	nop			; (mov r8, r8)
    61a8:	000067dd 	.word	0x000067dd
    61ac:	00008cd9 	.word	0x00008cd9

000061b0 <Dummy_Handler>:

/**
 * \brief Default interrupt handler for unused IRQs.
 */
void Dummy_Handler(void)
{
    61b0:	e7fe      	b.n	61b0 <Dummy_Handler>
	...

000061b4 <Reset_Handler>:
{
    61b4:	b5f8      	push	{r3, r4, r5, r6, r7, lr}
        if (pSrc != pDest) {
    61b6:	4a2a      	ldr	r2, [pc, #168]	; (6260 <Reset_Handler+0xac>)
    61b8:	4b2a      	ldr	r3, [pc, #168]	; (6264 <Reset_Handler+0xb0>)
    61ba:	429a      	cmp	r2, r3
    61bc:	d011      	beq.n	61e2 <Reset_Handler+0x2e>
                for (; pDest < &_erelocate;) {
    61be:	001a      	movs	r2, r3
    61c0:	4b29      	ldr	r3, [pc, #164]	; (6268 <Reset_Handler+0xb4>)
    61c2:	429a      	cmp	r2, r3
    61c4:	d20d      	bcs.n	61e2 <Reset_Handler+0x2e>
    61c6:	4a29      	ldr	r2, [pc, #164]	; (626c <Reset_Handler+0xb8>)
    61c8:	3303      	adds	r3, #3
    61ca:	1a9b      	subs	r3, r3, r2
    61cc:	089b      	lsrs	r3, r3, #2
    61ce:	3301      	adds	r3, #1
    61d0:	009b      	lsls	r3, r3, #2
    61d2:	2200      	movs	r2, #0
                        *pDest++ = *pSrc++;
    61d4:	4823      	ldr	r0, [pc, #140]	; (6264 <Reset_Handler+0xb0>)
    61d6:	4922      	ldr	r1, [pc, #136]	; (6260 <Reset_Handler+0xac>)
    61d8:	588c      	ldr	r4, [r1, r2]
    61da:	5084      	str	r4, [r0, r2]
    61dc:	3204      	adds	r2, #4
                for (; pDest < &_erelocate;) {
    61de:	429a      	cmp	r2, r3
    61e0:	d1fa      	bne.n	61d8 <Reset_Handler+0x24>
        for (pDest = &_szero; pDest < &_ezero;) {
    61e2:	4a23      	ldr	r2, [pc, #140]	; (6270 <Reset_Handler+0xbc>)
    61e4:	4b23      	ldr	r3, [pc, #140]	; (6274 <Reset_Handler+0xc0>)
    61e6:	429a      	cmp	r2, r3
    61e8:	d20a      	bcs.n	6200 <Reset_Handler+0x4c>
    61ea:	43d3      	mvns	r3, r2
    61ec:	4921      	ldr	r1, [pc, #132]	; (6274 <Reset_Handler+0xc0>)
    61ee:	185b      	adds	r3, r3, r1
    61f0:	2103      	movs	r1, #3
    61f2:	438b      	bics	r3, r1
    61f4:	3304      	adds	r3, #4
    61f6:	189b      	adds	r3, r3, r2
                *pDest++ = 0;
    61f8:	2100      	movs	r1, #0
    61fa:	c202      	stmia	r2!, {r1}
        for (pDest = &_szero; pDest < &_ezero;) {
    61fc:	4293      	cmp	r3, r2
    61fe:	d1fc      	bne.n	61fa <Reset_Handler+0x46>
        SCB->VTOR = ((uint32_t) pSrc & SCB_VTOR_TBLOFF_Msk);
    6200:	4a1d      	ldr	r2, [pc, #116]	; (6278 <Reset_Handler+0xc4>)
    6202:	21ff      	movs	r1, #255	; 0xff
    6204:	4b1d      	ldr	r3, [pc, #116]	; (627c <Reset_Handler+0xc8>)
    6206:	438b      	bics	r3, r1
    6208:	6093      	str	r3, [r2, #8]
        SBMATRIX->SFR[SBMATRIX_SLAVE_HMCRAMC0].reg = 2;
    620a:	39fd      	subs	r1, #253	; 0xfd
    620c:	2390      	movs	r3, #144	; 0x90
    620e:	005b      	lsls	r3, r3, #1
    6210:	4a1b      	ldr	r2, [pc, #108]	; (6280 <Reset_Handler+0xcc>)
    6212:	50d1      	str	r1, [r2, r3]
        USB->DEVICE.QOSCTRL.bit.CQOS = 2;
    6214:	4a1b      	ldr	r2, [pc, #108]	; (6284 <Reset_Handler+0xd0>)
    6216:	78d3      	ldrb	r3, [r2, #3]
    6218:	2503      	movs	r5, #3
    621a:	43ab      	bics	r3, r5
    621c:	2402      	movs	r4, #2
    621e:	4323      	orrs	r3, r4
    6220:	70d3      	strb	r3, [r2, #3]
        USB->DEVICE.QOSCTRL.bit.DQOS = 2;
    6222:	78d3      	ldrb	r3, [r2, #3]
    6224:	270c      	movs	r7, #12
    6226:	43bb      	bics	r3, r7
    6228:	2608      	movs	r6, #8
    622a:	4333      	orrs	r3, r6
    622c:	70d3      	strb	r3, [r2, #3]
        DMAC->QOSCTRL.bit.DQOS = 2;
    622e:	4b16      	ldr	r3, [pc, #88]	; (6288 <Reset_Handler+0xd4>)
    6230:	7b98      	ldrb	r0, [r3, #14]
    6232:	2230      	movs	r2, #48	; 0x30
    6234:	4390      	bics	r0, r2
    6236:	2220      	movs	r2, #32
    6238:	4310      	orrs	r0, r2
    623a:	7398      	strb	r0, [r3, #14]
        DMAC->QOSCTRL.bit.FQOS = 2;
    623c:	7b99      	ldrb	r1, [r3, #14]
    623e:	43b9      	bics	r1, r7
    6240:	4331      	orrs	r1, r6
    6242:	7399      	strb	r1, [r3, #14]
        DMAC->QOSCTRL.bit.WRBQOS = 2;
    6244:	7b9a      	ldrb	r2, [r3, #14]
    6246:	43aa      	bics	r2, r5
    6248:	4322      	orrs	r2, r4
    624a:	739a      	strb	r2, [r3, #14]
        NVMCTRL->CTRLB.bit.MANW = 1;
    624c:	4a0f      	ldr	r2, [pc, #60]	; (628c <Reset_Handler+0xd8>)
    624e:	6853      	ldr	r3, [r2, #4]
    6250:	2180      	movs	r1, #128	; 0x80
    6252:	430b      	orrs	r3, r1
    6254:	6053      	str	r3, [r2, #4]
        __libc_init_array();
    6256:	4b0e      	ldr	r3, [pc, #56]	; (6290 <Reset_Handler+0xdc>)
    6258:	4798      	blx	r3
        main();
    625a:	4b0e      	ldr	r3, [pc, #56]	; (6294 <Reset_Handler+0xe0>)
    625c:	4798      	blx	r3
    625e:	e7fe      	b.n	625e <Reset_Handler+0xaa>
    6260:	000125bc 	.word	0x000125bc
    6264:	20000000 	.word	0x20000000
    6268:	200004c4 	.word	0x200004c4
    626c:	20000004 	.word	0x20000004
    6270:	200004c4 	.word	0x200004c4
    6274:	20000e68 	.word	0x20000e68
    6278:	e000ed00 	.word	0xe000ed00
    627c:	00006000 	.word	0x00006000
    6280:	41007000 	.word	0x41007000
    6284:	41005000 	.word	0x41005000
    6288:	41004800 	.word	0x41004800
    628c:	41004000 	.word	0x41004000
    6290:	00011aed 	.word	0x00011aed
    6294:	000093f5 	.word	0x000093f5

00006298 <fnUSER_Setup>:

uint32_t relogio1,  relogio2;

// This function will execute once, use it to initialize components and set initial values.
void fnUSER_Setup( void )
{
    6298:	b510      	push	{r4, lr}
		fnCONSOLE_USB_Init( );
		fnDELAY_LOOP_ms (500);
		fnDEBUG_Const_String( "\rDispositivo iniciado\n\r");
	#endif
	//Inicia o radio
	fnRADIO_Init();
    629a:	4b01      	ldr	r3, [pc, #4]	; (62a0 <fnUSER_Setup+0x8>)
    629c:	4798      	blx	r3
}
    629e:	bd10      	pop	{r4, pc}
    62a0:	00006415 	.word	0x00006415

000062a4 <fnUSER_Loop>:

// Anything within the USER_Loop context will execute continuously.
void fnUSER_Loop( void )
{
    62a4:	b5f0      	push	{r4, r5, r6, r7, lr}
    62a6:	b083      	sub	sp, #12
	if ( ID <= 10 )
    62a8:	4b1b      	ldr	r3, [pc, #108]	; (6318 <fnUSER_Loop+0x74>)
    62aa:	681b      	ldr	r3, [r3, #0]
    62ac:	2b0a      	cmp	r3, #10
    62ae:	dd01      	ble.n	62b4 <fnUSER_Loop+0x10>
		#endif

		ID++;
		fnGPIO_LED_Toggle();
	}
    62b0:	b003      	add	sp, #12
    62b2:	bdf0      	pop	{r4, r5, r6, r7, pc}
		fnGPIO_LED_Toggle();
    62b4:	4b19      	ldr	r3, [pc, #100]	; (631c <fnUSER_Loop+0x78>)
    62b6:	4798      	blx	r3
		fnDEBUG_Const_String ( "\rentrando em convert_int_to_string\n\r");
    62b8:	4819      	ldr	r0, [pc, #100]	; (6320 <fnUSER_Loop+0x7c>)
    62ba:	4f1a      	ldr	r7, [pc, #104]	; (6324 <fnUSER_Loop+0x80>)
    62bc:	47b8      	blx	r7
		fnDELAY_LOOP_ms (500);
    62be:	26fa      	movs	r6, #250	; 0xfa
    62c0:	0076      	lsls	r6, r6, #1
    62c2:	0030      	movs	r0, r6
    62c4:	4d18      	ldr	r5, [pc, #96]	; (6328 <fnUSER_Loop+0x84>)
    62c6:	47a8      	blx	r5
		convert_int_to_string(direcao, raio, ID, horas, minutos, segundos);
    62c8:	4c13      	ldr	r4, [pc, #76]	; (6318 <fnUSER_Loop+0x74>)
    62ca:	6863      	ldr	r3, [r4, #4]
    62cc:	469c      	mov	ip, r3
    62ce:	6822      	ldr	r2, [r4, #0]
    62d0:	68a1      	ldr	r1, [r4, #8]
    62d2:	68e0      	ldr	r0, [r4, #12]
    62d4:	6923      	ldr	r3, [r4, #16]
    62d6:	9301      	str	r3, [sp, #4]
    62d8:	6963      	ldr	r3, [r4, #20]
    62da:	9300      	str	r3, [sp, #0]
    62dc:	4663      	mov	r3, ip
    62de:	4c13      	ldr	r4, [pc, #76]	; (632c <fnUSER_Loop+0x88>)
    62e0:	47a0      	blx	r4
		fnDEBUG_Const_String ( "\rentrando em send_message\n\r");
    62e2:	4813      	ldr	r0, [pc, #76]	; (6330 <fnUSER_Loop+0x8c>)
    62e4:	47b8      	blx	r7
		fnDELAY_LOOP_ms (500);
    62e6:	0030      	movs	r0, r6
    62e8:	47a8      	blx	r5
		send_message(msg);
    62ea:	4812      	ldr	r0, [pc, #72]	; (6334 <fnUSER_Loop+0x90>)
    62ec:	4b12      	ldr	r3, [pc, #72]	; (6338 <fnUSER_Loop+0x94>)
    62ee:	4798      	blx	r3
		relogio1 = fnRTC_Get_Count();
    62f0:	4b12      	ldr	r3, [pc, #72]	; (633c <fnUSER_Loop+0x98>)
    62f2:	4798      	blx	r3
    62f4:	4b12      	ldr	r3, [pc, #72]	; (6340 <fnUSER_Loop+0x9c>)
    62f6:	6018      	str	r0, [r3, #0]
			relogio2 = fnRTC_Get_Count();
    62f8:	4e10      	ldr	r6, [pc, #64]	; (633c <fnUSER_Loop+0x98>)
    62fa:	4d12      	ldr	r5, [pc, #72]	; (6344 <fnUSER_Loop+0xa0>)
			if(relogio2 > relogio1 + 10)
    62fc:	001c      	movs	r4, r3
			relogio2 = fnRTC_Get_Count();
    62fe:	47b0      	blx	r6
    6300:	6028      	str	r0, [r5, #0]
			if(relogio2 > relogio1 + 10)
    6302:	6823      	ldr	r3, [r4, #0]
    6304:	330a      	adds	r3, #10
    6306:	4298      	cmp	r0, r3
    6308:	d9f9      	bls.n	62fe <fnUSER_Loop+0x5a>
		ID++;
    630a:	4a03      	ldr	r2, [pc, #12]	; (6318 <fnUSER_Loop+0x74>)
    630c:	6813      	ldr	r3, [r2, #0]
    630e:	3301      	adds	r3, #1
    6310:	6013      	str	r3, [r2, #0]
		fnGPIO_LED_Toggle();
    6312:	4b02      	ldr	r3, [pc, #8]	; (631c <fnUSER_Loop+0x78>)
    6314:	4798      	blx	r3
    6316:	e7cb      	b.n	62b0 <fnUSER_Loop+0xc>
    6318:	2000000c 	.word	0x2000000c
    631c:	00006349 	.word	0x00006349
    6320:	00011f74 	.word	0x00011f74
    6324:	000083c1 	.word	0x000083c1
    6328:	0000841d 	.word	0x0000841d
    632c:	00006115 	.word	0x00006115
    6330:	00011f9c 	.word	0x00011f9c
    6334:	20000800 	.word	0x20000800
    6338:	0000617d 	.word	0x0000617d
    633c:	00008cd9 	.word	0x00008cd9
    6340:	200007fc 	.word	0x200007fc
    6344:	2000080c 	.word	0x2000080c

00006348 <fnGPIO_LED_Toggle>:
    6348:	b580      	push	{r7, lr}
    634a:	af00      	add	r7, sp, #0
    634c:	4b03      	ldr	r3, [pc, #12]	; (635c <fnGPIO_LED_Toggle+0x14>)
    634e:	2280      	movs	r2, #128	; 0x80
    6350:	0152      	lsls	r2, r2, #5
    6352:	61da      	str	r2, [r3, #28]
    6354:	46c0      	nop			; (mov r8, r8)
    6356:	46bd      	mov	sp, r7
    6358:	bd80      	pop	{r7, pc}
    635a:	46c0      	nop			; (mov r8, r8)
    635c:	41004400 	.word	0x41004400

00006360 <system_interrupt_enable>:
    6360:	b580      	push	{r7, lr}
    6362:	b082      	sub	sp, #8
    6364:	af00      	add	r7, sp, #0
    6366:	0002      	movs	r2, r0
    6368:	1dfb      	adds	r3, r7, #7
    636a:	701a      	strb	r2, [r3, #0]
    636c:	4b06      	ldr	r3, [pc, #24]	; (6388 <system_interrupt_enable+0x28>)
    636e:	1dfa      	adds	r2, r7, #7
    6370:	7812      	ldrb	r2, [r2, #0]
    6372:	0011      	movs	r1, r2
    6374:	221f      	movs	r2, #31
    6376:	400a      	ands	r2, r1
    6378:	2101      	movs	r1, #1
    637a:	4091      	lsls	r1, r2
    637c:	000a      	movs	r2, r1
    637e:	601a      	str	r2, [r3, #0]
    6380:	46c0      	nop			; (mov r8, r8)
    6382:	46bd      	mov	sp, r7
    6384:	b002      	add	sp, #8
    6386:	bd80      	pop	{r7, pc}
    6388:	e000e100 	.word	0xe000e100

0000638c <tc_get_config_defaults>:
    638c:	b580      	push	{r7, lr}
    638e:	b082      	sub	sp, #8
    6390:	af00      	add	r7, sp, #0
    6392:	6078      	str	r0, [r7, #4]
    6394:	687b      	ldr	r3, [r7, #4]
    6396:	2200      	movs	r2, #0
    6398:	701a      	strb	r2, [r3, #0]
    639a:	687b      	ldr	r3, [r7, #4]
    639c:	2200      	movs	r2, #0
    639e:	709a      	strb	r2, [r3, #2]
    63a0:	687b      	ldr	r3, [r7, #4]
    63a2:	2200      	movs	r2, #0
    63a4:	809a      	strh	r2, [r3, #4]
    63a6:	687b      	ldr	r3, [r7, #4]
    63a8:	2200      	movs	r2, #0
    63aa:	719a      	strb	r2, [r3, #6]
    63ac:	687b      	ldr	r3, [r7, #4]
    63ae:	2200      	movs	r2, #0
    63b0:	811a      	strh	r2, [r3, #8]
    63b2:	687b      	ldr	r3, [r7, #4]
    63b4:	2200      	movs	r2, #0
    63b6:	705a      	strb	r2, [r3, #1]
    63b8:	687b      	ldr	r3, [r7, #4]
    63ba:	2200      	movs	r2, #0
    63bc:	729a      	strb	r2, [r3, #10]
    63be:	687b      	ldr	r3, [r7, #4]
    63c0:	2200      	movs	r2, #0
    63c2:	72da      	strb	r2, [r3, #11]
    63c4:	687b      	ldr	r3, [r7, #4]
    63c6:	2200      	movs	r2, #0
    63c8:	731a      	strb	r2, [r3, #12]
    63ca:	687b      	ldr	r3, [r7, #4]
    63cc:	2200      	movs	r2, #0
    63ce:	739a      	strb	r2, [r3, #14]
    63d0:	687b      	ldr	r3, [r7, #4]
    63d2:	2200      	movs	r2, #0
    63d4:	735a      	strb	r2, [r3, #13]
    63d6:	687b      	ldr	r3, [r7, #4]
    63d8:	2200      	movs	r2, #0
    63da:	741a      	strb	r2, [r3, #16]
    63dc:	687b      	ldr	r3, [r7, #4]
    63de:	2200      	movs	r2, #0
    63e0:	615a      	str	r2, [r3, #20]
    63e2:	687b      	ldr	r3, [r7, #4]
    63e4:	2200      	movs	r2, #0
    63e6:	619a      	str	r2, [r3, #24]
    63e8:	687b      	ldr	r3, [r7, #4]
    63ea:	2200      	movs	r2, #0
    63ec:	771a      	strb	r2, [r3, #28]
    63ee:	687b      	ldr	r3, [r7, #4]
    63f0:	2200      	movs	r2, #0
    63f2:	621a      	str	r2, [r3, #32]
    63f4:	687b      	ldr	r3, [r7, #4]
    63f6:	2200      	movs	r2, #0
    63f8:	625a      	str	r2, [r3, #36]	; 0x24
    63fa:	687b      	ldr	r3, [r7, #4]
    63fc:	2200      	movs	r2, #0
    63fe:	851a      	strh	r2, [r3, #40]	; 0x28
    6400:	687b      	ldr	r3, [r7, #4]
    6402:	2200      	movs	r2, #0
    6404:	855a      	strh	r2, [r3, #42]	; 0x2a
    6406:	687b      	ldr	r3, [r7, #4]
    6408:	2200      	movs	r2, #0
    640a:	859a      	strh	r2, [r3, #44]	; 0x2c
    640c:	46c0      	nop			; (mov r8, r8)
    640e:	46bd      	mov	sp, r7
    6410:	b002      	add	sp, #8
    6412:	bd80      	pop	{r7, pc}

00006414 <fnRADIO_Init>:
    6414:	b590      	push	{r4, r7, lr}
    6416:	b083      	sub	sp, #12
    6418:	af02      	add	r7, sp, #8
    641a:	4b49      	ldr	r3, [pc, #292]	; (6540 <fnRADIO_Init+0x12c>)
    641c:	2200      	movs	r2, #0
    641e:	709a      	strb	r2, [r3, #2]
    6420:	4b48      	ldr	r3, [pc, #288]	; (6544 <fnRADIO_Init+0x130>)
    6422:	2280      	movs	r2, #128	; 0x80
    6424:	0512      	lsls	r2, r2, #20
    6426:	615a      	str	r2, [r3, #20]
    6428:	2014      	movs	r0, #20
    642a:	4b47      	ldr	r3, [pc, #284]	; (6548 <fnRADIO_Init+0x134>)
    642c:	4798      	blx	r3
    642e:	4b45      	ldr	r3, [pc, #276]	; (6544 <fnRADIO_Init+0x130>)
    6430:	2280      	movs	r2, #128	; 0x80
    6432:	0512      	lsls	r2, r2, #20
    6434:	619a      	str	r2, [r3, #24]
    6436:	2014      	movs	r0, #20
    6438:	4b43      	ldr	r3, [pc, #268]	; (6548 <fnRADIO_Init+0x134>)
    643a:	4798      	blx	r3
    643c:	4b43      	ldr	r3, [pc, #268]	; (654c <fnRADIO_Init+0x138>)
    643e:	4798      	blx	r3
    6440:	0003      	movs	r3, r0
    6442:	001a      	movs	r2, r3
    6444:	2301      	movs	r3, #1
    6446:	4053      	eors	r3, r2
    6448:	b2db      	uxtb	r3, r3
    644a:	1c1a      	adds	r2, r3, #0
    644c:	2301      	movs	r3, #1
    644e:	4013      	ands	r3, r2
    6450:	b2da      	uxtb	r2, r3
    6452:	4b3b      	ldr	r3, [pc, #236]	; (6540 <fnRADIO_Init+0x12c>)
    6454:	2101      	movs	r1, #1
    6456:	400a      	ands	r2, r1
    6458:	1890      	adds	r0, r2, r2
    645a:	789a      	ldrb	r2, [r3, #2]
    645c:	2102      	movs	r1, #2
    645e:	438a      	bics	r2, r1
    6460:	1c11      	adds	r1, r2, #0
    6462:	1c02      	adds	r2, r0, #0
    6464:	430a      	orrs	r2, r1
    6466:	709a      	strb	r2, [r3, #2]
    6468:	4b39      	ldr	r3, [pc, #228]	; (6550 <fnRADIO_Init+0x13c>)
    646a:	4798      	blx	r3
    646c:	4b39      	ldr	r3, [pc, #228]	; (6554 <fnRADIO_Init+0x140>)
    646e:	4798      	blx	r3
    6470:	4b39      	ldr	r3, [pc, #228]	; (6558 <fnRADIO_Init+0x144>)
    6472:	4798      	blx	r3
    6474:	4b39      	ldr	r3, [pc, #228]	; (655c <fnRADIO_Init+0x148>)
    6476:	4798      	blx	r3
    6478:	4b39      	ldr	r3, [pc, #228]	; (6560 <fnRADIO_Init+0x14c>)
    647a:	4798      	blx	r3
    647c:	4b39      	ldr	r3, [pc, #228]	; (6564 <fnRADIO_Init+0x150>)
    647e:	4798      	blx	r3
    6480:	0003      	movs	r3, r0
    6482:	001a      	movs	r2, r3
    6484:	2301      	movs	r3, #1
    6486:	4053      	eors	r3, r2
    6488:	b2db      	uxtb	r3, r3
    648a:	1c1a      	adds	r2, r3, #0
    648c:	2301      	movs	r3, #1
    648e:	4013      	ands	r3, r2
    6490:	b2da      	uxtb	r2, r3
    6492:	4b2b      	ldr	r3, [pc, #172]	; (6540 <fnRADIO_Init+0x12c>)
    6494:	2101      	movs	r1, #1
    6496:	400a      	ands	r2, r1
    6498:	0010      	movs	r0, r2
    649a:	789a      	ldrb	r2, [r3, #2]
    649c:	2101      	movs	r1, #1
    649e:	438a      	bics	r2, r1
    64a0:	1c11      	adds	r1, r2, #0
    64a2:	1c02      	adds	r2, r0, #0
    64a4:	430a      	orrs	r2, r1
    64a6:	709a      	strb	r2, [r3, #2]
    64a8:	482f      	ldr	r0, [pc, #188]	; (6568 <fnRADIO_Init+0x154>)
    64aa:	2303      	movs	r3, #3
    64ac:	9300      	str	r3, [sp, #0]
    64ae:	230a      	movs	r3, #10
    64b0:	2200      	movs	r2, #0
    64b2:	2109      	movs	r1, #9
    64b4:	4c2d      	ldr	r4, [pc, #180]	; (656c <fnRADIO_Init+0x158>)
    64b6:	47a0      	blx	r4
    64b8:	1e03      	subs	r3, r0, #0
    64ba:	d007      	beq.n	64cc <fnRADIO_Init+0xb8>
    64bc:	4b20      	ldr	r3, [pc, #128]	; (6540 <fnRADIO_Init+0x12c>)
    64be:	2203      	movs	r2, #3
    64c0:	492b      	ldr	r1, [pc, #172]	; (6570 <fnRADIO_Init+0x15c>)
    64c2:	189b      	adds	r3, r3, r2
    64c4:	2208      	movs	r2, #8
    64c6:	0018      	movs	r0, r3
    64c8:	4b2a      	ldr	r3, [pc, #168]	; (6574 <fnRADIO_Init+0x160>)
    64ca:	4798      	blx	r3
    64cc:	482a      	ldr	r0, [pc, #168]	; (6578 <fnRADIO_Init+0x164>)
    64ce:	2303      	movs	r3, #3
    64d0:	9300      	str	r3, [sp, #0]
    64d2:	2312      	movs	r3, #18
    64d4:	2200      	movs	r2, #0
    64d6:	2109      	movs	r1, #9
    64d8:	4c24      	ldr	r4, [pc, #144]	; (656c <fnRADIO_Init+0x158>)
    64da:	47a0      	blx	r4
    64dc:	1e03      	subs	r3, r0, #0
    64de:	d007      	beq.n	64f0 <fnRADIO_Init+0xdc>
    64e0:	4b17      	ldr	r3, [pc, #92]	; (6540 <fnRADIO_Init+0x12c>)
    64e2:	220b      	movs	r2, #11
    64e4:	4922      	ldr	r1, [pc, #136]	; (6570 <fnRADIO_Init+0x15c>)
    64e6:	189b      	adds	r3, r3, r2
    64e8:	2210      	movs	r2, #16
    64ea:	0018      	movs	r0, r3
    64ec:	4b21      	ldr	r3, [pc, #132]	; (6574 <fnRADIO_Init+0x160>)
    64ee:	4798      	blx	r3
    64f0:	4b22      	ldr	r3, [pc, #136]	; (657c <fnRADIO_Init+0x168>)
    64f2:	4798      	blx	r3
    64f4:	4b15      	ldr	r3, [pc, #84]	; (654c <fnRADIO_Init+0x138>)
    64f6:	4798      	blx	r3
    64f8:	0003      	movs	r3, r0
    64fa:	0019      	movs	r1, r3
    64fc:	4b10      	ldr	r3, [pc, #64]	; (6540 <fnRADIO_Init+0x12c>)
    64fe:	789b      	ldrb	r3, [r3, #2]
    6500:	079b      	lsls	r3, r3, #30
    6502:	0fdb      	lsrs	r3, r3, #31
    6504:	b2db      	uxtb	r3, r3
    6506:	001a      	movs	r2, r3
    6508:	000b      	movs	r3, r1
    650a:	4313      	orrs	r3, r2
    650c:	b2db      	uxtb	r3, r3
    650e:	1c1a      	adds	r2, r3, #0
    6510:	2301      	movs	r3, #1
    6512:	4013      	ands	r3, r2
    6514:	b2da      	uxtb	r2, r3
    6516:	4b0a      	ldr	r3, [pc, #40]	; (6540 <fnRADIO_Init+0x12c>)
    6518:	2101      	movs	r1, #1
    651a:	400a      	ands	r2, r1
    651c:	1890      	adds	r0, r2, r2
    651e:	789a      	ldrb	r2, [r3, #2]
    6520:	2102      	movs	r1, #2
    6522:	438a      	bics	r2, r1
    6524:	1c11      	adds	r1, r2, #0
    6526:	1c02      	adds	r2, r0, #0
    6528:	430a      	orrs	r2, r1
    652a:	709a      	strb	r2, [r3, #2]
    652c:	4b04      	ldr	r3, [pc, #16]	; (6540 <fnRADIO_Init+0x12c>)
    652e:	789b      	ldrb	r3, [r3, #2]
    6530:	425a      	negs	r2, r3
    6532:	4153      	adcs	r3, r2
    6534:	b2db      	uxtb	r3, r3
    6536:	0018      	movs	r0, r3
    6538:	46bd      	mov	sp, r7
    653a:	b001      	add	sp, #4
    653c:	bd90      	pop	{r4, r7, pc}
    653e:	46c0      	nop			; (mov r8, r8)
    6540:	20000898 	.word	0x20000898
    6544:	41004400 	.word	0x41004400
    6548:	0000841d 	.word	0x0000841d
    654c:	00008c21 	.word	0x00008c21
    6550:	00006f99 	.word	0x00006f99
    6554:	0000701d 	.word	0x0000701d
    6558:	00006c3d 	.word	0x00006c3d
    655c:	00006c61 	.word	0x00006c61
    6560:	00006d45 	.word	0x00006d45
    6564:	00006581 	.word	0x00006581
    6568:	00011fb8 	.word	0x00011fb8
    656c:	00006639 	.word	0x00006639
    6570:	20000858 	.word	0x20000858
    6574:	00011bb9 	.word	0x00011bb9
    6578:	00011fc4 	.word	0x00011fc4
    657c:	00006731 	.word	0x00006731

00006580 <fnRADIO_Check_Comm>:
    6580:	b580      	push	{r7, lr}
    6582:	b082      	sub	sp, #8
    6584:	af00      	add	r7, sp, #0
    6586:	1dfb      	adds	r3, r7, #7
    6588:	2203      	movs	r2, #3
    658a:	701a      	strb	r2, [r3, #0]
    658c:	1dbb      	adds	r3, r7, #6
    658e:	2200      	movs	r2, #0
    6590:	701a      	strb	r2, [r3, #0]
    6592:	e02d      	b.n	65f0 <fnRADIO_Check_Comm+0x70>
    6594:	4b1f      	ldr	r3, [pc, #124]	; (6614 <fnRADIO_Check_Comm+0x94>)
    6596:	4798      	blx	r3
    6598:	4b1f      	ldr	r3, [pc, #124]	; (6618 <fnRADIO_Check_Comm+0x98>)
    659a:	4798      	blx	r3
    659c:	4b1f      	ldr	r3, [pc, #124]	; (661c <fnRADIO_Check_Comm+0x9c>)
    659e:	2104      	movs	r1, #4
    65a0:	0018      	movs	r0, r3
    65a2:	4b1f      	ldr	r3, [pc, #124]	; (6620 <fnRADIO_Check_Comm+0xa0>)
    65a4:	4798      	blx	r3
    65a6:	200a      	movs	r0, #10
    65a8:	4b1e      	ldr	r3, [pc, #120]	; (6624 <fnRADIO_Check_Comm+0xa4>)
    65aa:	4798      	blx	r3
    65ac:	46c0      	nop			; (mov r8, r8)
    65ae:	4b1e      	ldr	r3, [pc, #120]	; (6628 <fnRADIO_Check_Comm+0xa8>)
    65b0:	881b      	ldrh	r3, [r3, #0]
    65b2:	069b      	lsls	r3, r3, #26
    65b4:	0fdb      	lsrs	r3, r3, #31
    65b6:	b2db      	uxtb	r3, r3
    65b8:	2b00      	cmp	r3, #0
    65ba:	d106      	bne.n	65ca <fnRADIO_Check_Comm+0x4a>
    65bc:	4b1a      	ldr	r3, [pc, #104]	; (6628 <fnRADIO_Check_Comm+0xa8>)
    65be:	881b      	ldrh	r3, [r3, #0]
    65c0:	06db      	lsls	r3, r3, #27
    65c2:	0fdb      	lsrs	r3, r3, #31
    65c4:	b2db      	uxtb	r3, r3
    65c6:	2b00      	cmp	r3, #0
    65c8:	d0f1      	beq.n	65ae <fnRADIO_Check_Comm+0x2e>
    65ca:	4b17      	ldr	r3, [pc, #92]	; (6628 <fnRADIO_Check_Comm+0xa8>)
    65cc:	881b      	ldrh	r3, [r3, #0]
    65ce:	06db      	lsls	r3, r3, #27
    65d0:	0fdb      	lsrs	r3, r3, #31
    65d2:	b2db      	uxtb	r3, r3
    65d4:	2b01      	cmp	r3, #1
    65d6:	d10b      	bne.n	65f0 <fnRADIO_Check_Comm+0x70>
    65d8:	4914      	ldr	r1, [pc, #80]	; (662c <fnRADIO_Check_Comm+0xac>)
    65da:	4b15      	ldr	r3, [pc, #84]	; (6630 <fnRADIO_Check_Comm+0xb0>)
    65dc:	2204      	movs	r2, #4
    65de:	0018      	movs	r0, r3
    65e0:	4b14      	ldr	r3, [pc, #80]	; (6634 <fnRADIO_Check_Comm+0xb4>)
    65e2:	4798      	blx	r3
    65e4:	1e03      	subs	r3, r0, #0
    65e6:	d103      	bne.n	65f0 <fnRADIO_Check_Comm+0x70>
    65e8:	1dbb      	adds	r3, r7, #6
    65ea:	2201      	movs	r2, #1
    65ec:	701a      	strb	r2, [r3, #0]
    65ee:	e006      	b.n	65fe <fnRADIO_Check_Comm+0x7e>
    65f0:	1dfb      	adds	r3, r7, #7
    65f2:	781b      	ldrb	r3, [r3, #0]
    65f4:	1dfa      	adds	r2, r7, #7
    65f6:	1e59      	subs	r1, r3, #1
    65f8:	7011      	strb	r1, [r2, #0]
    65fa:	2b00      	cmp	r3, #0
    65fc:	d1ca      	bne.n	6594 <fnRADIO_Check_Comm+0x14>
    65fe:	4b05      	ldr	r3, [pc, #20]	; (6614 <fnRADIO_Check_Comm+0x94>)
    6600:	4798      	blx	r3
    6602:	4b05      	ldr	r3, [pc, #20]	; (6618 <fnRADIO_Check_Comm+0x98>)
    6604:	4798      	blx	r3
    6606:	1dbb      	adds	r3, r7, #6
    6608:	781b      	ldrb	r3, [r3, #0]
    660a:	0018      	movs	r0, r3
    660c:	46bd      	mov	sp, r7
    660e:	b002      	add	sp, #8
    6610:	bd80      	pop	{r7, pc}
    6612:	46c0      	nop			; (mov r8, r8)
    6614:	00006d45 	.word	0x00006d45
    6618:	00006c3d 	.word	0x00006c3d
    661c:	00011fd0 	.word	0x00011fd0
    6620:	0000708d 	.word	0x0000708d
    6624:	00006cc1 	.word	0x00006cc1
    6628:	20000b68 	.word	0x20000b68
    662c:	20000858 	.word	0x20000858
    6630:	00011fd8 	.word	0x00011fd8
    6634:	00011b6d 	.word	0x00011b6d

00006638 <fnRADIO_Get_Info_Pool_Mode>:
    6638:	b580      	push	{r7, lr}
    663a:	b086      	sub	sp, #24
    663c:	af00      	add	r7, sp, #0
    663e:	60f8      	str	r0, [r7, #12]
    6640:	0008      	movs	r0, r1
    6642:	607a      	str	r2, [r7, #4]
    6644:	0019      	movs	r1, r3
    6646:	230b      	movs	r3, #11
    6648:	18fb      	adds	r3, r7, r3
    664a:	1c02      	adds	r2, r0, #0
    664c:	701a      	strb	r2, [r3, #0]
    664e:	230a      	movs	r3, #10
    6650:	18fb      	adds	r3, r7, r3
    6652:	1c0a      	adds	r2, r1, #0
    6654:	701a      	strb	r2, [r3, #0]
    6656:	2317      	movs	r3, #23
    6658:	18fb      	adds	r3, r7, r3
    665a:	2200      	movs	r2, #0
    665c:	701a      	strb	r2, [r3, #0]
    665e:	e043      	b.n	66e8 <fnRADIO_Get_Info_Pool_Mode+0xb0>
    6660:	4b2b      	ldr	r3, [pc, #172]	; (6710 <fnRADIO_Get_Info_Pool_Mode+0xd8>)
    6662:	4798      	blx	r3
    6664:	4b2b      	ldr	r3, [pc, #172]	; (6714 <fnRADIO_Get_Info_Pool_Mode+0xdc>)
    6666:	4798      	blx	r3
    6668:	230b      	movs	r3, #11
    666a:	18fb      	adds	r3, r7, r3
    666c:	781a      	ldrb	r2, [r3, #0]
    666e:	68fb      	ldr	r3, [r7, #12]
    6670:	0011      	movs	r1, r2
    6672:	0018      	movs	r0, r3
    6674:	4b28      	ldr	r3, [pc, #160]	; (6718 <fnRADIO_Get_Info_Pool_Mode+0xe0>)
    6676:	4798      	blx	r3
    6678:	2096      	movs	r0, #150	; 0x96
    667a:	4b28      	ldr	r3, [pc, #160]	; (671c <fnRADIO_Get_Info_Pool_Mode+0xe4>)
    667c:	4798      	blx	r3
    667e:	46c0      	nop			; (mov r8, r8)
    6680:	4b27      	ldr	r3, [pc, #156]	; (6720 <fnRADIO_Get_Info_Pool_Mode+0xe8>)
    6682:	881b      	ldrh	r3, [r3, #0]
    6684:	069b      	lsls	r3, r3, #26
    6686:	0fdb      	lsrs	r3, r3, #31
    6688:	b2db      	uxtb	r3, r3
    668a:	2b00      	cmp	r3, #0
    668c:	d106      	bne.n	669c <fnRADIO_Get_Info_Pool_Mode+0x64>
    668e:	4b24      	ldr	r3, [pc, #144]	; (6720 <fnRADIO_Get_Info_Pool_Mode+0xe8>)
    6690:	881b      	ldrh	r3, [r3, #0]
    6692:	06db      	lsls	r3, r3, #27
    6694:	0fdb      	lsrs	r3, r3, #31
    6696:	b2db      	uxtb	r3, r3
    6698:	2b00      	cmp	r3, #0
    669a:	d0f1      	beq.n	6680 <fnRADIO_Get_Info_Pool_Mode+0x48>
    669c:	4b20      	ldr	r3, [pc, #128]	; (6720 <fnRADIO_Get_Info_Pool_Mode+0xe8>)
    669e:	881b      	ldrh	r3, [r3, #0]
    66a0:	06db      	lsls	r3, r3, #27
    66a2:	0fdb      	lsrs	r3, r3, #31
    66a4:	b2db      	uxtb	r3, r3
    66a6:	2b01      	cmp	r3, #1
    66a8:	d11e      	bne.n	66e8 <fnRADIO_Get_Info_Pool_Mode+0xb0>
    66aa:	4b1e      	ldr	r3, [pc, #120]	; (6724 <fnRADIO_Get_Info_Pool_Mode+0xec>)
    66ac:	781b      	ldrb	r3, [r3, #0]
    66ae:	b2db      	uxtb	r3, r3
    66b0:	220a      	movs	r2, #10
    66b2:	18ba      	adds	r2, r7, r2
    66b4:	7812      	ldrb	r2, [r2, #0]
    66b6:	429a      	cmp	r2, r3
    66b8:	d116      	bne.n	66e8 <fnRADIO_Get_Info_Pool_Mode+0xb0>
    66ba:	687b      	ldr	r3, [r7, #4]
    66bc:	2b00      	cmp	r3, #0
    66be:	d00e      	beq.n	66de <fnRADIO_Get_Info_Pool_Mode+0xa6>
    66c0:	230a      	movs	r3, #10
    66c2:	18fb      	adds	r3, r7, r3
    66c4:	781a      	ldrb	r2, [r3, #0]
    66c6:	6879      	ldr	r1, [r7, #4]
    66c8:	4b17      	ldr	r3, [pc, #92]	; (6728 <fnRADIO_Get_Info_Pool_Mode+0xf0>)
    66ca:	0018      	movs	r0, r3
    66cc:	4b17      	ldr	r3, [pc, #92]	; (672c <fnRADIO_Get_Info_Pool_Mode+0xf4>)
    66ce:	4798      	blx	r3
    66d0:	1e03      	subs	r3, r0, #0
    66d2:	d109      	bne.n	66e8 <fnRADIO_Get_Info_Pool_Mode+0xb0>
    66d4:	2317      	movs	r3, #23
    66d6:	18fb      	adds	r3, r7, r3
    66d8:	2201      	movs	r2, #1
    66da:	701a      	strb	r2, [r3, #0]
    66dc:	e00d      	b.n	66fa <fnRADIO_Get_Info_Pool_Mode+0xc2>
    66de:	2317      	movs	r3, #23
    66e0:	18fb      	adds	r3, r7, r3
    66e2:	2201      	movs	r2, #1
    66e4:	701a      	strb	r2, [r3, #0]
    66e6:	e008      	b.n	66fa <fnRADIO_Get_Info_Pool_Mode+0xc2>
    66e8:	2320      	movs	r3, #32
    66ea:	18fb      	adds	r3, r7, r3
    66ec:	781b      	ldrb	r3, [r3, #0]
    66ee:	2220      	movs	r2, #32
    66f0:	18ba      	adds	r2, r7, r2
    66f2:	1e59      	subs	r1, r3, #1
    66f4:	7011      	strb	r1, [r2, #0]
    66f6:	2b00      	cmp	r3, #0
    66f8:	d1b2      	bne.n	6660 <fnRADIO_Get_Info_Pool_Mode+0x28>
    66fa:	4b05      	ldr	r3, [pc, #20]	; (6710 <fnRADIO_Get_Info_Pool_Mode+0xd8>)
    66fc:	4798      	blx	r3
    66fe:	4b05      	ldr	r3, [pc, #20]	; (6714 <fnRADIO_Get_Info_Pool_Mode+0xdc>)
    6700:	4798      	blx	r3
    6702:	2317      	movs	r3, #23
    6704:	18fb      	adds	r3, r7, r3
    6706:	781b      	ldrb	r3, [r3, #0]
    6708:	0018      	movs	r0, r3
    670a:	46bd      	mov	sp, r7
    670c:	b006      	add	sp, #24
    670e:	bd80      	pop	{r7, pc}
    6710:	00006d45 	.word	0x00006d45
    6714:	00006c3d 	.word	0x00006c3d
    6718:	0000708d 	.word	0x0000708d
    671c:	00006cc1 	.word	0x00006cc1
    6720:	20000b68 	.word	0x20000b68
    6724:	20000857 	.word	0x20000857
    6728:	20000858 	.word	0x20000858
    672c:	00011b6d 	.word	0x00011b6d

00006730 <fnRADIO_Set_Sleep_Mode>:
    6730:	b590      	push	{r4, r7, lr}
    6732:	b085      	sub	sp, #20
    6734:	af02      	add	r7, sp, #8
    6736:	1dfb      	adds	r3, r7, #7
    6738:	2200      	movs	r2, #0
    673a:	701a      	strb	r2, [r3, #0]
    673c:	1dbb      	adds	r3, r7, #6
    673e:	2205      	movs	r2, #5
    6740:	701a      	strb	r2, [r3, #0]
    6742:	e027      	b.n	6794 <fnRADIO_Set_Sleep_Mode+0x64>
    6744:	4a1d      	ldr	r2, [pc, #116]	; (67bc <fnRADIO_Set_Sleep_Mode+0x8c>)
    6746:	481e      	ldr	r0, [pc, #120]	; (67c0 <fnRADIO_Set_Sleep_Mode+0x90>)
    6748:	2301      	movs	r3, #1
    674a:	9300      	str	r3, [sp, #0]
    674c:	2304      	movs	r3, #4
    674e:	2108      	movs	r1, #8
    6750:	4c1c      	ldr	r4, [pc, #112]	; (67c4 <fnRADIO_Set_Sleep_Mode+0x94>)
    6752:	47a0      	blx	r4
    6754:	1e03      	subs	r3, r0, #0
    6756:	d006      	beq.n	6766 <fnRADIO_Set_Sleep_Mode+0x36>
    6758:	4b1b      	ldr	r3, [pc, #108]	; (67c8 <fnRADIO_Set_Sleep_Mode+0x98>)
    675a:	2201      	movs	r2, #1
    675c:	705a      	strb	r2, [r3, #1]
    675e:	1dfb      	adds	r3, r7, #7
    6760:	2201      	movs	r2, #1
    6762:	701a      	strb	r2, [r3, #0]
    6764:	e01d      	b.n	67a2 <fnRADIO_Set_Sleep_Mode+0x72>
    6766:	4b18      	ldr	r3, [pc, #96]	; (67c8 <fnRADIO_Set_Sleep_Mode+0x98>)
    6768:	789b      	ldrb	r3, [r3, #2]
    676a:	2202      	movs	r2, #2
    676c:	4013      	ands	r3, r2
    676e:	b2db      	uxtb	r3, r3
    6770:	2b00      	cmp	r3, #0
    6772:	d10f      	bne.n	6794 <fnRADIO_Set_Sleep_Mode+0x64>
    6774:	4b15      	ldr	r3, [pc, #84]	; (67cc <fnRADIO_Set_Sleep_Mode+0x9c>)
    6776:	4798      	blx	r3
    6778:	0003      	movs	r3, r0
    677a:	001a      	movs	r2, r3
    677c:	2301      	movs	r3, #1
    677e:	4053      	eors	r3, r2
    6780:	b2db      	uxtb	r3, r3
    6782:	2b00      	cmp	r3, #0
    6784:	d006      	beq.n	6794 <fnRADIO_Set_Sleep_Mode+0x64>
    6786:	4b10      	ldr	r3, [pc, #64]	; (67c8 <fnRADIO_Set_Sleep_Mode+0x98>)
    6788:	2201      	movs	r2, #1
    678a:	705a      	strb	r2, [r3, #1]
    678c:	1dfb      	adds	r3, r7, #7
    678e:	2201      	movs	r2, #1
    6790:	701a      	strb	r2, [r3, #0]
    6792:	e006      	b.n	67a2 <fnRADIO_Set_Sleep_Mode+0x72>
    6794:	1dbb      	adds	r3, r7, #6
    6796:	781b      	ldrb	r3, [r3, #0]
    6798:	1dba      	adds	r2, r7, #6
    679a:	1e59      	subs	r1, r3, #1
    679c:	7011      	strb	r1, [r2, #0]
    679e:	2b00      	cmp	r3, #0
    67a0:	d1d0      	bne.n	6744 <fnRADIO_Set_Sleep_Mode+0x14>
    67a2:	4b0b      	ldr	r3, [pc, #44]	; (67d0 <fnRADIO_Set_Sleep_Mode+0xa0>)
    67a4:	4798      	blx	r3
    67a6:	4b0b      	ldr	r3, [pc, #44]	; (67d4 <fnRADIO_Set_Sleep_Mode+0xa4>)
    67a8:	4798      	blx	r3
    67aa:	4b0b      	ldr	r3, [pc, #44]	; (67d8 <fnRADIO_Set_Sleep_Mode+0xa8>)
    67ac:	4798      	blx	r3
    67ae:	1dfb      	adds	r3, r7, #7
    67b0:	781b      	ldrb	r3, [r3, #0]
    67b2:	0018      	movs	r0, r3
    67b4:	46bd      	mov	sp, r7
    67b6:	b003      	add	sp, #12
    67b8:	bd90      	pop	{r4, r7, pc}
    67ba:	46c0      	nop			; (mov r8, r8)
    67bc:	00011fd8 	.word	0x00011fd8
    67c0:	00011fe0 	.word	0x00011fe0
    67c4:	00006639 	.word	0x00006639
    67c8:	20000898 	.word	0x20000898
    67cc:	00008c21 	.word	0x00008c21
    67d0:	00007059 	.word	0x00007059
    67d4:	00006d45 	.word	0x00006d45
    67d8:	00006c3d 	.word	0x00006c3d

000067dc <fnRADIO_Send_Message>:
    67dc:	b590      	push	{r4, r7, lr}
    67de:	b08d      	sub	sp, #52	; 0x34
    67e0:	af02      	add	r7, sp, #8
    67e2:	6078      	str	r0, [r7, #4]
    67e4:	0008      	movs	r0, r1
    67e6:	0011      	movs	r1, r2
    67e8:	1cfb      	adds	r3, r7, #3
    67ea:	1c02      	adds	r2, r0, #0
    67ec:	701a      	strb	r2, [r3, #0]
    67ee:	1cbb      	adds	r3, r7, #2
    67f0:	1c0a      	adds	r2, r1, #0
    67f2:	701a      	strb	r2, [r3, #0]
    67f4:	4b6a      	ldr	r3, [pc, #424]	; (69a0 <fnRADIO_Send_Message+0x1c4>)
    67f6:	785b      	ldrb	r3, [r3, #1]
    67f8:	2b01      	cmp	r3, #1
    67fa:	d005      	beq.n	6808 <fnRADIO_Send_Message+0x2c>
    67fc:	4b69      	ldr	r3, [pc, #420]	; (69a4 <fnRADIO_Send_Message+0x1c8>)
    67fe:	0018      	movs	r0, r3
    6800:	4b69      	ldr	r3, [pc, #420]	; (69a8 <fnRADIO_Send_Message+0x1cc>)
    6802:	4798      	blx	r3
    6804:	2300      	movs	r3, #0
    6806:	e0c6      	b.n	6996 <fnRADIO_Send_Message+0x1ba>
    6808:	4b68      	ldr	r3, [pc, #416]	; (69ac <fnRADIO_Send_Message+0x1d0>)
    680a:	4798      	blx	r3
    680c:	4968      	ldr	r1, [pc, #416]	; (69b0 <fnRADIO_Send_Message+0x1d4>)
    680e:	2294      	movs	r2, #148	; 0x94
    6810:	2380      	movs	r3, #128	; 0x80
    6812:	041b      	lsls	r3, r3, #16
    6814:	508b      	str	r3, [r1, r2]
    6816:	2001      	movs	r0, #1
    6818:	4b66      	ldr	r3, [pc, #408]	; (69b4 <fnRADIO_Send_Message+0x1d8>)
    681a:	4798      	blx	r3
    681c:	4964      	ldr	r1, [pc, #400]	; (69b0 <fnRADIO_Send_Message+0x1d4>)
    681e:	2298      	movs	r2, #152	; 0x98
    6820:	2380      	movs	r3, #128	; 0x80
    6822:	041b      	lsls	r3, r3, #16
    6824:	508b      	str	r3, [r1, r2]
    6826:	2032      	movs	r0, #50	; 0x32
    6828:	4b62      	ldr	r3, [pc, #392]	; (69b4 <fnRADIO_Send_Message+0x1d8>)
    682a:	4798      	blx	r3
    682c:	4862      	ldr	r0, [pc, #392]	; (69b8 <fnRADIO_Send_Message+0x1dc>)
    682e:	2303      	movs	r3, #3
    6830:	9300      	str	r3, [sp, #0]
    6832:	2305      	movs	r3, #5
    6834:	2200      	movs	r2, #0
    6836:	2108      	movs	r1, #8
    6838:	4c60      	ldr	r4, [pc, #384]	; (69bc <fnRADIO_Send_Message+0x1e0>)
    683a:	47a0      	blx	r4
    683c:	0003      	movs	r3, r0
    683e:	001a      	movs	r2, r3
    6840:	2301      	movs	r3, #1
    6842:	4053      	eors	r3, r2
    6844:	b2db      	uxtb	r3, r3
    6846:	2b00      	cmp	r3, #0
    6848:	d003      	beq.n	6852 <fnRADIO_Send_Message+0x76>
    684a:	4b5d      	ldr	r3, [pc, #372]	; (69c0 <fnRADIO_Send_Message+0x1e4>)
    684c:	4798      	blx	r3
    684e:	2300      	movs	r3, #0
    6850:	e0a1      	b.n	6996 <fnRADIO_Send_Message+0x1ba>
    6852:	4b5c      	ldr	r3, [pc, #368]	; (69c4 <fnRADIO_Send_Message+0x1e8>)
    6854:	781b      	ldrb	r3, [r3, #0]
    6856:	b2db      	uxtb	r3, r3
    6858:	2b30      	cmp	r3, #48	; 0x30
    685a:	d004      	beq.n	6866 <fnRADIO_Send_Message+0x8a>
    685c:	4b59      	ldr	r3, [pc, #356]	; (69c4 <fnRADIO_Send_Message+0x1e8>)
    685e:	789b      	ldrb	r3, [r3, #2]
    6860:	b2db      	uxtb	r3, r3
    6862:	2b32      	cmp	r3, #50	; 0x32
    6864:	d812      	bhi.n	688c <fnRADIO_Send_Message+0xb0>
    6866:	4a58      	ldr	r2, [pc, #352]	; (69c8 <fnRADIO_Send_Message+0x1ec>)
    6868:	4858      	ldr	r0, [pc, #352]	; (69cc <fnRADIO_Send_Message+0x1f0>)
    686a:	2303      	movs	r3, #3
    686c:	9300      	str	r3, [sp, #0]
    686e:	2304      	movs	r3, #4
    6870:	2107      	movs	r1, #7
    6872:	4c52      	ldr	r4, [pc, #328]	; (69bc <fnRADIO_Send_Message+0x1e0>)
    6874:	47a0      	blx	r4
    6876:	0003      	movs	r3, r0
    6878:	001a      	movs	r2, r3
    687a:	2301      	movs	r3, #1
    687c:	4053      	eors	r3, r2
    687e:	b2db      	uxtb	r3, r3
    6880:	2b00      	cmp	r3, #0
    6882:	d003      	beq.n	688c <fnRADIO_Send_Message+0xb0>
    6884:	4b4e      	ldr	r3, [pc, #312]	; (69c0 <fnRADIO_Send_Message+0x1e4>)
    6886:	4798      	blx	r3
    6888:	2300      	movs	r3, #0
    688a:	e084      	b.n	6996 <fnRADIO_Send_Message+0x1ba>
    688c:	2308      	movs	r3, #8
    688e:	18f9      	adds	r1, r7, r3
    6890:	4a4f      	ldr	r2, [pc, #316]	; (69d0 <fnRADIO_Send_Message+0x1f4>)
    6892:	000b      	movs	r3, r1
    6894:	6810      	ldr	r0, [r2, #0]
    6896:	6018      	str	r0, [r3, #0]
    6898:	8890      	ldrh	r0, [r2, #4]
    689a:	8098      	strh	r0, [r3, #4]
    689c:	7992      	ldrb	r2, [r2, #6]
    689e:	719a      	strb	r2, [r3, #6]
    68a0:	2307      	movs	r3, #7
    68a2:	18cb      	adds	r3, r1, r3
    68a4:	2219      	movs	r2, #25
    68a6:	2100      	movs	r1, #0
    68a8:	0018      	movs	r0, r3
    68aa:	4b4a      	ldr	r3, [pc, #296]	; (69d4 <fnRADIO_Send_Message+0x1f8>)
    68ac:	4798      	blx	r3
    68ae:	1cfb      	adds	r3, r7, #3
    68b0:	781a      	ldrb	r2, [r3, #0]
    68b2:	2308      	movs	r3, #8
    68b4:	18fb      	adds	r3, r7, r3
    68b6:	1d99      	adds	r1, r3, #6
    68b8:	687b      	ldr	r3, [r7, #4]
    68ba:	0018      	movs	r0, r3
    68bc:	4b46      	ldr	r3, [pc, #280]	; (69d8 <fnRADIO_Send_Message+0x1fc>)
    68be:	4798      	blx	r3
    68c0:	4b46      	ldr	r3, [pc, #280]	; (69dc <fnRADIO_Send_Message+0x200>)
    68c2:	4798      	blx	r3
    68c4:	4b46      	ldr	r3, [pc, #280]	; (69e0 <fnRADIO_Send_Message+0x204>)
    68c6:	4798      	blx	r3
    68c8:	1cbb      	adds	r3, r7, #2
    68ca:	781b      	ldrb	r3, [r3, #0]
    68cc:	2201      	movs	r2, #1
    68ce:	4053      	eors	r3, r2
    68d0:	b2db      	uxtb	r3, r3
    68d2:	2b00      	cmp	r3, #0
    68d4:	d01f      	beq.n	6916 <fnRADIO_Send_Message+0x13a>
    68d6:	4b32      	ldr	r3, [pc, #200]	; (69a0 <fnRADIO_Send_Message+0x1c4>)
    68d8:	2202      	movs	r2, #2
    68da:	705a      	strb	r2, [r3, #1]
    68dc:	4b41      	ldr	r3, [pc, #260]	; (69e4 <fnRADIO_Send_Message+0x208>)
    68de:	0018      	movs	r0, r3
    68e0:	4b41      	ldr	r3, [pc, #260]	; (69e8 <fnRADIO_Send_Message+0x20c>)
    68e2:	4798      	blx	r3
    68e4:	1cfb      	adds	r3, r7, #3
    68e6:	781b      	ldrb	r3, [r3, #0]
    68e8:	3303      	adds	r3, #3
    68ea:	005b      	lsls	r3, r3, #1
    68ec:	2208      	movs	r2, #8
    68ee:	18ba      	adds	r2, r7, r2
    68f0:	210d      	movs	r1, #13
    68f2:	54d1      	strb	r1, [r2, r3]
    68f4:	1cfb      	adds	r3, r7, #3
    68f6:	781b      	ldrb	r3, [r3, #0]
    68f8:	005b      	lsls	r3, r3, #1
    68fa:	3307      	adds	r3, #7
    68fc:	2208      	movs	r2, #8
    68fe:	18ba      	adds	r2, r7, r2
    6900:	210a      	movs	r1, #10
    6902:	54d1      	strb	r1, [r2, r3]
    6904:	1cfb      	adds	r3, r7, #3
    6906:	781b      	ldrb	r3, [r3, #0]
    6908:	3304      	adds	r3, #4
    690a:	005b      	lsls	r3, r3, #1
    690c:	2208      	movs	r2, #8
    690e:	18ba      	adds	r2, r7, r2
    6910:	2100      	movs	r1, #0
    6912:	54d1      	strb	r1, [r2, r3]
    6914:	e02e      	b.n	6974 <fnRADIO_Send_Message+0x198>
    6916:	4b22      	ldr	r3, [pc, #136]	; (69a0 <fnRADIO_Send_Message+0x1c4>)
    6918:	2203      	movs	r2, #3
    691a:	705a      	strb	r2, [r3, #1]
    691c:	4b33      	ldr	r3, [pc, #204]	; (69ec <fnRADIO_Send_Message+0x210>)
    691e:	0018      	movs	r0, r3
    6920:	4b31      	ldr	r3, [pc, #196]	; (69e8 <fnRADIO_Send_Message+0x20c>)
    6922:	4798      	blx	r3
    6924:	1cfb      	adds	r3, r7, #3
    6926:	781b      	ldrb	r3, [r3, #0]
    6928:	3303      	adds	r3, #3
    692a:	005b      	lsls	r3, r3, #1
    692c:	2208      	movs	r2, #8
    692e:	18ba      	adds	r2, r7, r2
    6930:	212c      	movs	r1, #44	; 0x2c
    6932:	54d1      	strb	r1, [r2, r3]
    6934:	1cfb      	adds	r3, r7, #3
    6936:	781b      	ldrb	r3, [r3, #0]
    6938:	005b      	lsls	r3, r3, #1
    693a:	3307      	adds	r3, #7
    693c:	2208      	movs	r2, #8
    693e:	18ba      	adds	r2, r7, r2
    6940:	2131      	movs	r1, #49	; 0x31
    6942:	54d1      	strb	r1, [r2, r3]
    6944:	1cfb      	adds	r3, r7, #3
    6946:	781b      	ldrb	r3, [r3, #0]
    6948:	3304      	adds	r3, #4
    694a:	005b      	lsls	r3, r3, #1
    694c:	2208      	movs	r2, #8
    694e:	18ba      	adds	r2, r7, r2
    6950:	210d      	movs	r1, #13
    6952:	54d1      	strb	r1, [r2, r3]
    6954:	1cfb      	adds	r3, r7, #3
    6956:	781b      	ldrb	r3, [r3, #0]
    6958:	005b      	lsls	r3, r3, #1
    695a:	3309      	adds	r3, #9
    695c:	2208      	movs	r2, #8
    695e:	18ba      	adds	r2, r7, r2
    6960:	210a      	movs	r1, #10
    6962:	54d1      	strb	r1, [r2, r3]
    6964:	1cfb      	adds	r3, r7, #3
    6966:	781b      	ldrb	r3, [r3, #0]
    6968:	3305      	adds	r3, #5
    696a:	005b      	lsls	r3, r3, #1
    696c:	2208      	movs	r2, #8
    696e:	18ba      	adds	r2, r7, r2
    6970:	2100      	movs	r1, #0
    6972:	54d1      	strb	r1, [r2, r3]
    6974:	2308      	movs	r3, #8
    6976:	18fb      	adds	r3, r7, r3
    6978:	0018      	movs	r0, r3
    697a:	4b1d      	ldr	r3, [pc, #116]	; (69f0 <fnRADIO_Send_Message+0x214>)
    697c:	4798      	blx	r3
    697e:	0003      	movs	r3, r0
    6980:	b2da      	uxtb	r2, r3
    6982:	2308      	movs	r3, #8
    6984:	18fb      	adds	r3, r7, r3
    6986:	0011      	movs	r1, r2
    6988:	0018      	movs	r0, r3
    698a:	4b1a      	ldr	r3, [pc, #104]	; (69f4 <fnRADIO_Send_Message+0x218>)
    698c:	4798      	blx	r3
    698e:	2032      	movs	r0, #50	; 0x32
    6990:	4b08      	ldr	r3, [pc, #32]	; (69b4 <fnRADIO_Send_Message+0x1d8>)
    6992:	4798      	blx	r3
    6994:	2301      	movs	r3, #1
    6996:	0018      	movs	r0, r3
    6998:	46bd      	mov	sp, r7
    699a:	b00b      	add	sp, #44	; 0x2c
    699c:	bd90      	pop	{r4, r7, pc}
    699e:	46c0      	nop			; (mov r8, r8)
    69a0:	20000898 	.word	0x20000898
    69a4:	00011fec 	.word	0x00011fec
    69a8:	000083c1 	.word	0x000083c1
    69ac:	0000701d 	.word	0x0000701d
    69b0:	41004400 	.word	0x41004400
    69b4:	0000841d 	.word	0x0000841d
    69b8:	0001200c 	.word	0x0001200c
    69bc:	00006639 	.word	0x00006639
    69c0:	00006731 	.word	0x00006731
    69c4:	20000858 	.word	0x20000858
    69c8:	00011fd8 	.word	0x00011fd8
    69cc:	00012018 	.word	0x00012018
    69d0:	00012020 	.word	0x00012020
    69d4:	00011c3d 	.word	0x00011c3d
    69d8:	000089a1 	.word	0x000089a1
    69dc:	00006d45 	.word	0x00006d45
    69e0:	00006c3d 	.word	0x00006c3d
    69e4:	00001770 	.word	0x00001770
    69e8:	00006cc1 	.word	0x00006cc1
    69ec:	0000ea60 	.word	0x0000ea60
    69f0:	00011d2d 	.word	0x00011d2d
    69f4:	0000708d 	.word	0x0000708d

000069f8 <fnRADIO_Process_Packet_Received>:
    69f8:	b580      	push	{r7, lr}
    69fa:	b082      	sub	sp, #8
    69fc:	af00      	add	r7, sp, #0
    69fe:	1dfb      	adds	r3, r7, #7
    6a00:	2200      	movs	r2, #0
    6a02:	701a      	strb	r2, [r3, #0]
    6a04:	4b2e      	ldr	r3, [pc, #184]	; (6ac0 <fnRADIO_Process_Packet_Received+0xc8>)
    6a06:	785b      	ldrb	r3, [r3, #1]
    6a08:	2b03      	cmp	r3, #3
    6a0a:	d019      	beq.n	6a40 <fnRADIO_Process_Packet_Received+0x48>
    6a0c:	2b04      	cmp	r3, #4
    6a0e:	d02c      	beq.n	6a6a <fnRADIO_Process_Packet_Received+0x72>
    6a10:	2b02      	cmp	r3, #2
    6a12:	d000      	beq.n	6a16 <fnRADIO_Process_Packet_Received+0x1e>
    6a14:	e049      	b.n	6aaa <fnRADIO_Process_Packet_Received+0xb2>
    6a16:	4b2b      	ldr	r3, [pc, #172]	; (6ac4 <fnRADIO_Process_Packet_Received+0xcc>)
    6a18:	781b      	ldrb	r3, [r3, #0]
    6a1a:	b2db      	uxtb	r3, r3
    6a1c:	2b04      	cmp	r3, #4
    6a1e:	d10b      	bne.n	6a38 <fnRADIO_Process_Packet_Received+0x40>
    6a20:	4929      	ldr	r1, [pc, #164]	; (6ac8 <fnRADIO_Process_Packet_Received+0xd0>)
    6a22:	4b2a      	ldr	r3, [pc, #168]	; (6acc <fnRADIO_Process_Packet_Received+0xd4>)
    6a24:	2204      	movs	r2, #4
    6a26:	0018      	movs	r0, r3
    6a28:	4b29      	ldr	r3, [pc, #164]	; (6ad0 <fnRADIO_Process_Packet_Received+0xd8>)
    6a2a:	4798      	blx	r3
    6a2c:	1e03      	subs	r3, r0, #0
    6a2e:	d137      	bne.n	6aa0 <fnRADIO_Process_Packet_Received+0xa8>
    6a30:	1dfb      	adds	r3, r7, #7
    6a32:	2201      	movs	r2, #1
    6a34:	701a      	strb	r2, [r3, #0]
    6a36:	e033      	b.n	6aa0 <fnRADIO_Process_Packet_Received+0xa8>
    6a38:	1dfb      	adds	r3, r7, #7
    6a3a:	2202      	movs	r2, #2
    6a3c:	701a      	strb	r2, [r3, #0]
    6a3e:	e02f      	b.n	6aa0 <fnRADIO_Process_Packet_Received+0xa8>
    6a40:	4b20      	ldr	r3, [pc, #128]	; (6ac4 <fnRADIO_Process_Packet_Received+0xcc>)
    6a42:	781b      	ldrb	r3, [r3, #0]
    6a44:	b2db      	uxtb	r3, r3
    6a46:	2b04      	cmp	r3, #4
    6a48:	d10b      	bne.n	6a62 <fnRADIO_Process_Packet_Received+0x6a>
    6a4a:	491f      	ldr	r1, [pc, #124]	; (6ac8 <fnRADIO_Process_Packet_Received+0xd0>)
    6a4c:	4b1f      	ldr	r3, [pc, #124]	; (6acc <fnRADIO_Process_Packet_Received+0xd4>)
    6a4e:	2204      	movs	r2, #4
    6a50:	0018      	movs	r0, r3
    6a52:	4b1f      	ldr	r3, [pc, #124]	; (6ad0 <fnRADIO_Process_Packet_Received+0xd8>)
    6a54:	4798      	blx	r3
    6a56:	1e03      	subs	r3, r0, #0
    6a58:	d124      	bne.n	6aa4 <fnRADIO_Process_Packet_Received+0xac>
    6a5a:	4b19      	ldr	r3, [pc, #100]	; (6ac0 <fnRADIO_Process_Packet_Received+0xc8>)
    6a5c:	2204      	movs	r2, #4
    6a5e:	705a      	strb	r2, [r3, #1]
    6a60:	e02b      	b.n	6aba <fnRADIO_Process_Packet_Received+0xc2>
    6a62:	1dfb      	adds	r3, r7, #7
    6a64:	2204      	movs	r2, #4
    6a66:	701a      	strb	r2, [r3, #0]
    6a68:	e01c      	b.n	6aa4 <fnRADIO_Process_Packet_Received+0xac>
    6a6a:	4b16      	ldr	r3, [pc, #88]	; (6ac4 <fnRADIO_Process_Packet_Received+0xcc>)
    6a6c:	781b      	ldrb	r3, [r3, #0]
    6a6e:	b2db      	uxtb	r3, r3
    6a70:	2b15      	cmp	r3, #21
    6a72:	d111      	bne.n	6a98 <fnRADIO_Process_Packet_Received+0xa0>
    6a74:	4917      	ldr	r1, [pc, #92]	; (6ad4 <fnRADIO_Process_Packet_Received+0xdc>)
    6a76:	4b15      	ldr	r3, [pc, #84]	; (6acc <fnRADIO_Process_Packet_Received+0xd4>)
    6a78:	2203      	movs	r2, #3
    6a7a:	0018      	movs	r0, r3
    6a7c:	4b14      	ldr	r3, [pc, #80]	; (6ad0 <fnRADIO_Process_Packet_Received+0xd8>)
    6a7e:	4798      	blx	r3
    6a80:	1e03      	subs	r3, r0, #0
    6a82:	d111      	bne.n	6aa8 <fnRADIO_Process_Packet_Received+0xb0>
    6a84:	4914      	ldr	r1, [pc, #80]	; (6ad8 <fnRADIO_Process_Packet_Received+0xe0>)
    6a86:	4b15      	ldr	r3, [pc, #84]	; (6adc <fnRADIO_Process_Packet_Received+0xe4>)
    6a88:	2208      	movs	r2, #8
    6a8a:	0018      	movs	r0, r3
    6a8c:	4b14      	ldr	r3, [pc, #80]	; (6ae0 <fnRADIO_Process_Packet_Received+0xe8>)
    6a8e:	4798      	blx	r3
    6a90:	1dfb      	adds	r3, r7, #7
    6a92:	2203      	movs	r2, #3
    6a94:	701a      	strb	r2, [r3, #0]
    6a96:	e008      	b.n	6aaa <fnRADIO_Process_Packet_Received+0xb2>
    6a98:	1dfb      	adds	r3, r7, #7
    6a9a:	2204      	movs	r2, #4
    6a9c:	701a      	strb	r2, [r3, #0]
    6a9e:	e003      	b.n	6aa8 <fnRADIO_Process_Packet_Received+0xb0>
    6aa0:	46c0      	nop			; (mov r8, r8)
    6aa2:	e002      	b.n	6aaa <fnRADIO_Process_Packet_Received+0xb2>
    6aa4:	46c0      	nop			; (mov r8, r8)
    6aa6:	e000      	b.n	6aaa <fnRADIO_Process_Packet_Received+0xb2>
    6aa8:	46c0      	nop			; (mov r8, r8)
    6aaa:	4b0e      	ldr	r3, [pc, #56]	; (6ae4 <fnRADIO_Process_Packet_Received+0xec>)
    6aac:	4798      	blx	r3
    6aae:	1dfb      	adds	r3, r7, #7
    6ab0:	781b      	ldrb	r3, [r3, #0]
    6ab2:	0018      	movs	r0, r3
    6ab4:	4b0c      	ldr	r3, [pc, #48]	; (6ae8 <fnRADIO_Process_Packet_Received+0xf0>)
    6ab6:	4798      	blx	r3
    6ab8:	46c0      	nop			; (mov r8, r8)
    6aba:	46bd      	mov	sp, r7
    6abc:	b002      	add	sp, #8
    6abe:	bd80      	pop	{r7, pc}
    6ac0:	20000898 	.word	0x20000898
    6ac4:	20000857 	.word	0x20000857
    6ac8:	00011fd8 	.word	0x00011fd8
    6acc:	20000858 	.word	0x20000858
    6ad0:	00011b6d 	.word	0x00011b6d
    6ad4:	00012040 	.word	0x00012040
    6ad8:	200008b3 	.word	0x200008b3
    6adc:	2000085b 	.word	0x2000085b
    6ae0:	000089fd 	.word	0x000089fd
    6ae4:	00006731 	.word	0x00006731
    6ae8:	00006b3d 	.word	0x00006b3d

00006aec <fnRADIO_Process_Timeout>:
    6aec:	b580      	push	{r7, lr}
    6aee:	b082      	sub	sp, #8
    6af0:	af00      	add	r7, sp, #0
    6af2:	1dfb      	adds	r3, r7, #7
    6af4:	2200      	movs	r2, #0
    6af6:	701a      	strb	r2, [r3, #0]
    6af8:	4b0d      	ldr	r3, [pc, #52]	; (6b30 <fnRADIO_Process_Timeout+0x44>)
    6afa:	785b      	ldrb	r3, [r3, #1]
    6afc:	2b02      	cmp	r3, #2
    6afe:	d003      	beq.n	6b08 <fnRADIO_Process_Timeout+0x1c>
    6b00:	db0a      	blt.n	6b18 <fnRADIO_Process_Timeout+0x2c>
    6b02:	2b04      	cmp	r3, #4
    6b04:	dc08      	bgt.n	6b18 <fnRADIO_Process_Timeout+0x2c>
    6b06:	e003      	b.n	6b10 <fnRADIO_Process_Timeout+0x24>
    6b08:	1dfb      	adds	r3, r7, #7
    6b0a:	2202      	movs	r2, #2
    6b0c:	701a      	strb	r2, [r3, #0]
    6b0e:	e004      	b.n	6b1a <fnRADIO_Process_Timeout+0x2e>
    6b10:	1dfb      	adds	r3, r7, #7
    6b12:	2204      	movs	r2, #4
    6b14:	701a      	strb	r2, [r3, #0]
    6b16:	e000      	b.n	6b1a <fnRADIO_Process_Timeout+0x2e>
    6b18:	46c0      	nop			; (mov r8, r8)
    6b1a:	4b06      	ldr	r3, [pc, #24]	; (6b34 <fnRADIO_Process_Timeout+0x48>)
    6b1c:	4798      	blx	r3
    6b1e:	1dfb      	adds	r3, r7, #7
    6b20:	781b      	ldrb	r3, [r3, #0]
    6b22:	0018      	movs	r0, r3
    6b24:	4b04      	ldr	r3, [pc, #16]	; (6b38 <fnRADIO_Process_Timeout+0x4c>)
    6b26:	4798      	blx	r3
    6b28:	46c0      	nop			; (mov r8, r8)
    6b2a:	46bd      	mov	sp, r7
    6b2c:	b002      	add	sp, #8
    6b2e:	bd80      	pop	{r7, pc}
    6b30:	20000898 	.word	0x20000898
    6b34:	00006731 	.word	0x00006731
    6b38:	00006b3d 	.word	0x00006b3d

00006b3c <fnRADIO_Send_Callback>:
    6b3c:	b580      	push	{r7, lr}
    6b3e:	b082      	sub	sp, #8
    6b40:	af00      	add	r7, sp, #0
    6b42:	0002      	movs	r2, r0
    6b44:	1dfb      	adds	r3, r7, #7
    6b46:	701a      	strb	r2, [r3, #0]
    6b48:	1dfb      	adds	r3, r7, #7
    6b4a:	781b      	ldrb	r3, [r3, #0]
    6b4c:	2b02      	cmp	r3, #2
    6b4e:	d00b      	beq.n	6b68 <fnRADIO_Send_Callback+0x2c>
    6b50:	dc02      	bgt.n	6b58 <fnRADIO_Send_Callback+0x1c>
    6b52:	2b01      	cmp	r3, #1
    6b54:	d005      	beq.n	6b62 <fnRADIO_Send_Callback+0x26>
    6b56:	e010      	b.n	6b7a <fnRADIO_Send_Callback+0x3e>
    6b58:	2b03      	cmp	r3, #3
    6b5a:	d008      	beq.n	6b6e <fnRADIO_Send_Callback+0x32>
    6b5c:	2b04      	cmp	r3, #4
    6b5e:	d009      	beq.n	6b74 <fnRADIO_Send_Callback+0x38>
    6b60:	e00b      	b.n	6b7a <fnRADIO_Send_Callback+0x3e>
    6b62:	4b08      	ldr	r3, [pc, #32]	; (6b84 <fnRADIO_Send_Callback+0x48>)
    6b64:	4798      	blx	r3
    6b66:	e008      	b.n	6b7a <fnRADIO_Send_Callback+0x3e>
    6b68:	4b07      	ldr	r3, [pc, #28]	; (6b88 <fnRADIO_Send_Callback+0x4c>)
    6b6a:	4798      	blx	r3
    6b6c:	e005      	b.n	6b7a <fnRADIO_Send_Callback+0x3e>
    6b6e:	4b07      	ldr	r3, [pc, #28]	; (6b8c <fnRADIO_Send_Callback+0x50>)
    6b70:	4798      	blx	r3
    6b72:	e002      	b.n	6b7a <fnRADIO_Send_Callback+0x3e>
    6b74:	4b06      	ldr	r3, [pc, #24]	; (6b90 <fnRADIO_Send_Callback+0x54>)
    6b76:	4798      	blx	r3
    6b78:	46c0      	nop			; (mov r8, r8)
    6b7a:	46c0      	nop			; (mov r8, r8)
    6b7c:	46bd      	mov	sp, r7
    6b7e:	b002      	add	sp, #8
    6b80:	bd80      	pop	{r7, pc}
    6b82:	46c0      	nop			; (mov r8, r8)
    6b84:	00006db1 	.word	0x00006db1
    6b88:	00006dbb 	.word	0x00006dbb
    6b8c:	00006dc5 	.word	0x00006dc5
    6b90:	00006dcf 	.word	0x00006dcf

00006b94 <fnUART_SIGFOX_Rx_Callback>:
    6b94:	b580      	push	{r7, lr}
    6b96:	b082      	sub	sp, #8
    6b98:	af00      	add	r7, sp, #0
    6b9a:	0002      	movs	r2, r0
    6b9c:	1dfb      	adds	r3, r7, #7
    6b9e:	701a      	strb	r2, [r3, #0]
    6ba0:	1dfb      	adds	r3, r7, #7
    6ba2:	781b      	ldrb	r3, [r3, #0]
    6ba4:	2b20      	cmp	r3, #32
    6ba6:	d039      	beq.n	6c1c <fnUART_SIGFOX_Rx_Callback+0x88>
    6ba8:	4b1e      	ldr	r3, [pc, #120]	; (6c24 <fnUART_SIGFOX_Rx_Callback+0x90>)
    6baa:	781b      	ldrb	r3, [r3, #0]
    6bac:	b2db      	uxtb	r3, r3
    6bae:	1c5a      	adds	r2, r3, #1
    6bb0:	b2d1      	uxtb	r1, r2
    6bb2:	4a1c      	ldr	r2, [pc, #112]	; (6c24 <fnUART_SIGFOX_Rx_Callback+0x90>)
    6bb4:	7011      	strb	r1, [r2, #0]
    6bb6:	0019      	movs	r1, r3
    6bb8:	4b1b      	ldr	r3, [pc, #108]	; (6c28 <fnUART_SIGFOX_Rx_Callback+0x94>)
    6bba:	1dfa      	adds	r2, r7, #7
    6bbc:	7812      	ldrb	r2, [r2, #0]
    6bbe:	545a      	strb	r2, [r3, r1]
    6bc0:	4b18      	ldr	r3, [pc, #96]	; (6c24 <fnUART_SIGFOX_Rx_Callback+0x90>)
    6bc2:	781b      	ldrb	r3, [r3, #0]
    6bc4:	b2db      	uxtb	r3, r3
    6bc6:	2b3f      	cmp	r3, #63	; 0x3f
    6bc8:	d903      	bls.n	6bd2 <fnUART_SIGFOX_Rx_Callback+0x3e>
    6bca:	4b16      	ldr	r3, [pc, #88]	; (6c24 <fnUART_SIGFOX_Rx_Callback+0x90>)
    6bcc:	2200      	movs	r2, #0
    6bce:	701a      	strb	r2, [r3, #0]
    6bd0:	e025      	b.n	6c1e <fnUART_SIGFOX_Rx_Callback+0x8a>
    6bd2:	1dfb      	adds	r3, r7, #7
    6bd4:	781b      	ldrb	r3, [r3, #0]
    6bd6:	2b0a      	cmp	r3, #10
    6bd8:	d121      	bne.n	6c1e <fnUART_SIGFOX_Rx_Callback+0x8a>
    6bda:	4b12      	ldr	r3, [pc, #72]	; (6c24 <fnUART_SIGFOX_Rx_Callback+0x90>)
    6bdc:	781b      	ldrb	r3, [r3, #0]
    6bde:	b2db      	uxtb	r3, r3
    6be0:	3b02      	subs	r3, #2
    6be2:	4a11      	ldr	r2, [pc, #68]	; (6c28 <fnUART_SIGFOX_Rx_Callback+0x94>)
    6be4:	5cd3      	ldrb	r3, [r2, r3]
    6be6:	b2db      	uxtb	r3, r3
    6be8:	2b0d      	cmp	r3, #13
    6bea:	d118      	bne.n	6c1e <fnUART_SIGFOX_Rx_Callback+0x8a>
    6bec:	4b0d      	ldr	r3, [pc, #52]	; (6c24 <fnUART_SIGFOX_Rx_Callback+0x90>)
    6bee:	781b      	ldrb	r3, [r3, #0]
    6bf0:	b2db      	uxtb	r3, r3
    6bf2:	001a      	movs	r2, r3
    6bf4:	490c      	ldr	r1, [pc, #48]	; (6c28 <fnUART_SIGFOX_Rx_Callback+0x94>)
    6bf6:	4b0d      	ldr	r3, [pc, #52]	; (6c2c <fnUART_SIGFOX_Rx_Callback+0x98>)
    6bf8:	0018      	movs	r0, r3
    6bfa:	4b0d      	ldr	r3, [pc, #52]	; (6c30 <fnUART_SIGFOX_Rx_Callback+0x9c>)
    6bfc:	4798      	blx	r3
    6bfe:	4b09      	ldr	r3, [pc, #36]	; (6c24 <fnUART_SIGFOX_Rx_Callback+0x90>)
    6c00:	781b      	ldrb	r3, [r3, #0]
    6c02:	b2da      	uxtb	r2, r3
    6c04:	4b0b      	ldr	r3, [pc, #44]	; (6c34 <fnUART_SIGFOX_Rx_Callback+0xa0>)
    6c06:	701a      	strb	r2, [r3, #0]
    6c08:	4b06      	ldr	r3, [pc, #24]	; (6c24 <fnUART_SIGFOX_Rx_Callback+0x90>)
    6c0a:	2200      	movs	r2, #0
    6c0c:	701a      	strb	r2, [r3, #0]
    6c0e:	4a0a      	ldr	r2, [pc, #40]	; (6c38 <fnUART_SIGFOX_Rx_Callback+0xa4>)
    6c10:	8813      	ldrh	r3, [r2, #0]
    6c12:	2110      	movs	r1, #16
    6c14:	430b      	orrs	r3, r1
    6c16:	8013      	strh	r3, [r2, #0]
    6c18:	46c0      	nop			; (mov r8, r8)
    6c1a:	e000      	b.n	6c1e <fnUART_SIGFOX_Rx_Callback+0x8a>
    6c1c:	46c0      	nop			; (mov r8, r8)
    6c1e:	46bd      	mov	sp, r7
    6c20:	b002      	add	sp, #8
    6c22:	bd80      	pop	{r7, pc}
    6c24:	200008bb 	.word	0x200008bb
    6c28:	20000810 	.word	0x20000810
    6c2c:	20000858 	.word	0x20000858
    6c30:	00011bb9 	.word	0x00011bb9
    6c34:	20000857 	.word	0x20000857
    6c38:	20000b68 	.word	0x20000b68

00006c3c <fnRADIO_UART_Rx_Parser_Reset>:
    6c3c:	b580      	push	{r7, lr}
    6c3e:	af00      	add	r7, sp, #0
    6c40:	4b05      	ldr	r3, [pc, #20]	; (6c58 <fnRADIO_UART_Rx_Parser_Reset+0x1c>)
    6c42:	2200      	movs	r2, #0
    6c44:	701a      	strb	r2, [r3, #0]
    6c46:	4a05      	ldr	r2, [pc, #20]	; (6c5c <fnRADIO_UART_Rx_Parser_Reset+0x20>)
    6c48:	8813      	ldrh	r3, [r2, #0]
    6c4a:	2110      	movs	r1, #16
    6c4c:	438b      	bics	r3, r1
    6c4e:	8013      	strh	r3, [r2, #0]
    6c50:	46c0      	nop			; (mov r8, r8)
    6c52:	46bd      	mov	sp, r7
    6c54:	bd80      	pop	{r7, pc}
    6c56:	46c0      	nop			; (mov r8, r8)
    6c58:	200008bb 	.word	0x200008bb
    6c5c:	20000b68 	.word	0x20000b68

00006c60 <fnRADIO_TIMER_Config>:
    6c60:	b580      	push	{r7, lr}
    6c62:	b08e      	sub	sp, #56	; 0x38
    6c64:	af00      	add	r7, sp, #0
    6c66:	1d3b      	adds	r3, r7, #4
    6c68:	0018      	movs	r0, r3
    6c6a:	4b10      	ldr	r3, [pc, #64]	; (6cac <fnRADIO_TIMER_Config+0x4c>)
    6c6c:	4798      	blx	r3
    6c6e:	1d3b      	adds	r3, r7, #4
    6c70:	2202      	movs	r2, #2
    6c72:	701a      	strb	r2, [r3, #0]
    6c74:	1d3b      	adds	r3, r7, #4
    6c76:	2200      	movs	r2, #0
    6c78:	809a      	strh	r2, [r3, #4]
    6c7a:	1d3b      	adds	r3, r7, #4
    6c7c:	2200      	movs	r2, #0
    6c7e:	709a      	strb	r2, [r3, #2]
    6c80:	1d3b      	adds	r3, r7, #4
    6c82:	2200      	movs	r2, #0
    6c84:	739a      	strb	r2, [r3, #14]
    6c86:	1d3b      	adds	r3, r7, #4
    6c88:	2201      	movs	r2, #1
    6c8a:	735a      	strb	r2, [r3, #13]
    6c8c:	1d3a      	adds	r2, r7, #4
    6c8e:	4908      	ldr	r1, [pc, #32]	; (6cb0 <fnRADIO_TIMER_Config+0x50>)
    6c90:	4b08      	ldr	r3, [pc, #32]	; (6cb4 <fnRADIO_TIMER_Config+0x54>)
    6c92:	0018      	movs	r0, r3
    6c94:	4b08      	ldr	r3, [pc, #32]	; (6cb8 <fnRADIO_TIMER_Config+0x58>)
    6c96:	4798      	blx	r3
    6c98:	2012      	movs	r0, #18
    6c9a:	4b08      	ldr	r3, [pc, #32]	; (6cbc <fnRADIO_TIMER_Config+0x5c>)
    6c9c:	4798      	blx	r3
    6c9e:	4b04      	ldr	r3, [pc, #16]	; (6cb0 <fnRADIO_TIMER_Config+0x50>)
    6ca0:	2210      	movs	r2, #16
    6ca2:	735a      	strb	r2, [r3, #13]
    6ca4:	46c0      	nop			; (mov r8, r8)
    6ca6:	46bd      	mov	sp, r7
    6ca8:	b00e      	add	sp, #56	; 0x38
    6caa:	bd80      	pop	{r7, pc}
    6cac:	0000638d 	.word	0x0000638d
    6cb0:	42002c00 	.word	0x42002c00
    6cb4:	200008bc 	.word	0x200008bc
    6cb8:	00007e49 	.word	0x00007e49
    6cbc:	00006361 	.word	0x00006361

00006cc0 <fnRADIO_TIMER_Start>:
    6cc0:	b580      	push	{r7, lr}
    6cc2:	b082      	sub	sp, #8
    6cc4:	af00      	add	r7, sp, #0
    6cc6:	0002      	movs	r2, r0
    6cc8:	1dbb      	adds	r3, r7, #6
    6cca:	801a      	strh	r2, [r3, #0]
    6ccc:	46c0      	nop			; (mov r8, r8)
    6cce:	4b1c      	ldr	r3, [pc, #112]	; (6d40 <fnRADIO_TIMER_Start+0x80>)
    6cd0:	7bdb      	ldrb	r3, [r3, #15]
    6cd2:	b2db      	uxtb	r3, r3
    6cd4:	b25b      	sxtb	r3, r3
    6cd6:	2b00      	cmp	r3, #0
    6cd8:	dbf9      	blt.n	6cce <fnRADIO_TIMER_Start+0xe>
    6cda:	4a19      	ldr	r2, [pc, #100]	; (6d40 <fnRADIO_TIMER_Start+0x80>)
    6cdc:	4b18      	ldr	r3, [pc, #96]	; (6d40 <fnRADIO_TIMER_Start+0x80>)
    6cde:	881b      	ldrh	r3, [r3, #0]
    6ce0:	b29b      	uxth	r3, r3
    6ce2:	2102      	movs	r1, #2
    6ce4:	438b      	bics	r3, r1
    6ce6:	b29b      	uxth	r3, r3
    6ce8:	8013      	strh	r3, [r2, #0]
    6cea:	46c0      	nop			; (mov r8, r8)
    6cec:	4b14      	ldr	r3, [pc, #80]	; (6d40 <fnRADIO_TIMER_Start+0x80>)
    6cee:	7bdb      	ldrb	r3, [r3, #15]
    6cf0:	b2db      	uxtb	r3, r3
    6cf2:	b25b      	sxtb	r3, r3
    6cf4:	2b00      	cmp	r3, #0
    6cf6:	dbf9      	blt.n	6cec <fnRADIO_TIMER_Start+0x2c>
    6cf8:	4a11      	ldr	r2, [pc, #68]	; (6d40 <fnRADIO_TIMER_Start+0x80>)
    6cfa:	1dbb      	adds	r3, r7, #6
    6cfc:	881b      	ldrh	r3, [r3, #0]
    6cfe:	8313      	strh	r3, [r2, #24]
    6d00:	4b0f      	ldr	r3, [pc, #60]	; (6d40 <fnRADIO_TIMER_Start+0x80>)
    6d02:	2210      	movs	r2, #16
    6d04:	735a      	strb	r2, [r3, #13]
    6d06:	46c0      	nop			; (mov r8, r8)
    6d08:	4b0d      	ldr	r3, [pc, #52]	; (6d40 <fnRADIO_TIMER_Start+0x80>)
    6d0a:	7bdb      	ldrb	r3, [r3, #15]
    6d0c:	b2db      	uxtb	r3, r3
    6d0e:	b25b      	sxtb	r3, r3
    6d10:	2b00      	cmp	r3, #0
    6d12:	dbf9      	blt.n	6d08 <fnRADIO_TIMER_Start+0x48>
    6d14:	4b0a      	ldr	r3, [pc, #40]	; (6d40 <fnRADIO_TIMER_Start+0x80>)
    6d16:	2200      	movs	r2, #0
    6d18:	821a      	strh	r2, [r3, #16]
    6d1a:	46c0      	nop			; (mov r8, r8)
    6d1c:	4b08      	ldr	r3, [pc, #32]	; (6d40 <fnRADIO_TIMER_Start+0x80>)
    6d1e:	7bdb      	ldrb	r3, [r3, #15]
    6d20:	b2db      	uxtb	r3, r3
    6d22:	b25b      	sxtb	r3, r3
    6d24:	2b00      	cmp	r3, #0
    6d26:	dbf9      	blt.n	6d1c <fnRADIO_TIMER_Start+0x5c>
    6d28:	4a05      	ldr	r2, [pc, #20]	; (6d40 <fnRADIO_TIMER_Start+0x80>)
    6d2a:	4b05      	ldr	r3, [pc, #20]	; (6d40 <fnRADIO_TIMER_Start+0x80>)
    6d2c:	881b      	ldrh	r3, [r3, #0]
    6d2e:	b29b      	uxth	r3, r3
    6d30:	2102      	movs	r1, #2
    6d32:	430b      	orrs	r3, r1
    6d34:	b29b      	uxth	r3, r3
    6d36:	8013      	strh	r3, [r2, #0]
    6d38:	46c0      	nop			; (mov r8, r8)
    6d3a:	46bd      	mov	sp, r7
    6d3c:	b002      	add	sp, #8
    6d3e:	bd80      	pop	{r7, pc}
    6d40:	42002c00 	.word	0x42002c00

00006d44 <fnRADIO_TIMER_Stop>:
    6d44:	b580      	push	{r7, lr}
    6d46:	af00      	add	r7, sp, #0
    6d48:	4b0e      	ldr	r3, [pc, #56]	; (6d84 <fnRADIO_TIMER_Stop+0x40>)
    6d4a:	223b      	movs	r2, #59	; 0x3b
    6d4c:	731a      	strb	r2, [r3, #12]
    6d4e:	4b0d      	ldr	r3, [pc, #52]	; (6d84 <fnRADIO_TIMER_Stop+0x40>)
    6d50:	223b      	movs	r2, #59	; 0x3b
    6d52:	739a      	strb	r2, [r3, #14]
    6d54:	46c0      	nop			; (mov r8, r8)
    6d56:	4b0b      	ldr	r3, [pc, #44]	; (6d84 <fnRADIO_TIMER_Stop+0x40>)
    6d58:	7bdb      	ldrb	r3, [r3, #15]
    6d5a:	b2db      	uxtb	r3, r3
    6d5c:	b25b      	sxtb	r3, r3
    6d5e:	2b00      	cmp	r3, #0
    6d60:	dbf9      	blt.n	6d56 <fnRADIO_TIMER_Stop+0x12>
    6d62:	4a08      	ldr	r2, [pc, #32]	; (6d84 <fnRADIO_TIMER_Stop+0x40>)
    6d64:	4b07      	ldr	r3, [pc, #28]	; (6d84 <fnRADIO_TIMER_Stop+0x40>)
    6d66:	881b      	ldrh	r3, [r3, #0]
    6d68:	b29b      	uxth	r3, r3
    6d6a:	2102      	movs	r1, #2
    6d6c:	438b      	bics	r3, r1
    6d6e:	b29b      	uxth	r3, r3
    6d70:	8013      	strh	r3, [r2, #0]
    6d72:	4a05      	ldr	r2, [pc, #20]	; (6d88 <fnRADIO_TIMER_Stop+0x44>)
    6d74:	8813      	ldrh	r3, [r2, #0]
    6d76:	2120      	movs	r1, #32
    6d78:	438b      	bics	r3, r1
    6d7a:	8013      	strh	r3, [r2, #0]
    6d7c:	46c0      	nop			; (mov r8, r8)
    6d7e:	46bd      	mov	sp, r7
    6d80:	bd80      	pop	{r7, pc}
    6d82:	46c0      	nop			; (mov r8, r8)
    6d84:	42002c00 	.word	0x42002c00
    6d88:	20000b68 	.word	0x20000b68

00006d8c <TC3_Handler>:
    6d8c:	b580      	push	{r7, lr}
    6d8e:	af00      	add	r7, sp, #0
    6d90:	4b05      	ldr	r3, [pc, #20]	; (6da8 <TC3_Handler+0x1c>)
    6d92:	2210      	movs	r2, #16
    6d94:	739a      	strb	r2, [r3, #14]
    6d96:	4a05      	ldr	r2, [pc, #20]	; (6dac <TC3_Handler+0x20>)
    6d98:	8813      	ldrh	r3, [r2, #0]
    6d9a:	2120      	movs	r1, #32
    6d9c:	430b      	orrs	r3, r1
    6d9e:	8013      	strh	r3, [r2, #0]
    6da0:	46c0      	nop			; (mov r8, r8)
    6da2:	46bd      	mov	sp, r7
    6da4:	bd80      	pop	{r7, pc}
    6da6:	46c0      	nop			; (mov r8, r8)
    6da8:	42002c00 	.word	0x42002c00
    6dac:	20000b68 	.word	0x20000b68

00006db0 <fnRADIO_CALLBACK_Tx_End_Ok>:
    6db0:	b580      	push	{r7, lr}
    6db2:	af00      	add	r7, sp, #0
    6db4:	46c0      	nop			; (mov r8, r8)
    6db6:	46bd      	mov	sp, r7
    6db8:	bd80      	pop	{r7, pc}

00006dba <fnRADIO_CALLBACK_Tx_End_Error>:
    6dba:	b580      	push	{r7, lr}
    6dbc:	af00      	add	r7, sp, #0
    6dbe:	46c0      	nop			; (mov r8, r8)
    6dc0:	46bd      	mov	sp, r7
    6dc2:	bd80      	pop	{r7, pc}

00006dc4 <fnRADIO_CALLBACK_Rx_End_Ok>:
    6dc4:	b580      	push	{r7, lr}
    6dc6:	af00      	add	r7, sp, #0
    6dc8:	46c0      	nop			; (mov r8, r8)
    6dca:	46bd      	mov	sp, r7
    6dcc:	bd80      	pop	{r7, pc}

00006dce <fnRADIO_CALLBACK_Rx_End_Error>:
    6dce:	b580      	push	{r7, lr}
    6dd0:	af00      	add	r7, sp, #0
    6dd2:	46c0      	nop			; (mov r8, r8)
    6dd4:	46bd      	mov	sp, r7
    6dd6:	bd80      	pop	{r7, pc}

00006dd8 <system_interrupt_enable>:
    6dd8:	b580      	push	{r7, lr}
    6dda:	b082      	sub	sp, #8
    6ddc:	af00      	add	r7, sp, #0
    6dde:	0002      	movs	r2, r0
    6de0:	1dfb      	adds	r3, r7, #7
    6de2:	701a      	strb	r2, [r3, #0]
    6de4:	4b06      	ldr	r3, [pc, #24]	; (6e00 <system_interrupt_enable+0x28>)
    6de6:	1dfa      	adds	r2, r7, #7
    6de8:	7812      	ldrb	r2, [r2, #0]
    6dea:	0011      	movs	r1, r2
    6dec:	221f      	movs	r2, #31
    6dee:	400a      	ands	r2, r1
    6df0:	2101      	movs	r1, #1
    6df2:	4091      	lsls	r1, r2
    6df4:	000a      	movs	r2, r1
    6df6:	601a      	str	r2, [r3, #0]
    6df8:	46c0      	nop			; (mov r8, r8)
    6dfa:	46bd      	mov	sp, r7
    6dfc:	b002      	add	sp, #8
    6dfe:	bd80      	pop	{r7, pc}
    6e00:	e000e100 	.word	0xe000e100

00006e04 <system_interrupt_disable>:
    6e04:	b580      	push	{r7, lr}
    6e06:	b082      	sub	sp, #8
    6e08:	af00      	add	r7, sp, #0
    6e0a:	0002      	movs	r2, r0
    6e0c:	1dfb      	adds	r3, r7, #7
    6e0e:	701a      	strb	r2, [r3, #0]
    6e10:	4a07      	ldr	r2, [pc, #28]	; (6e30 <system_interrupt_disable+0x2c>)
    6e12:	1dfb      	adds	r3, r7, #7
    6e14:	781b      	ldrb	r3, [r3, #0]
    6e16:	0019      	movs	r1, r3
    6e18:	231f      	movs	r3, #31
    6e1a:	400b      	ands	r3, r1
    6e1c:	2101      	movs	r1, #1
    6e1e:	4099      	lsls	r1, r3
    6e20:	000b      	movs	r3, r1
    6e22:	0019      	movs	r1, r3
    6e24:	2380      	movs	r3, #128	; 0x80
    6e26:	50d1      	str	r1, [r2, r3]
    6e28:	46c0      	nop			; (mov r8, r8)
    6e2a:	46bd      	mov	sp, r7
    6e2c:	b002      	add	sp, #8
    6e2e:	bd80      	pop	{r7, pc}
    6e30:	e000e100 	.word	0xe000e100

00006e34 <usart_is_syncing>:
    6e34:	b580      	push	{r7, lr}
    6e36:	b084      	sub	sp, #16
    6e38:	af00      	add	r7, sp, #0
    6e3a:	6078      	str	r0, [r7, #4]
    6e3c:	687b      	ldr	r3, [r7, #4]
    6e3e:	681b      	ldr	r3, [r3, #0]
    6e40:	60fb      	str	r3, [r7, #12]
    6e42:	68fb      	ldr	r3, [r7, #12]
    6e44:	69db      	ldr	r3, [r3, #28]
    6e46:	1e5a      	subs	r2, r3, #1
    6e48:	4193      	sbcs	r3, r2
    6e4a:	b2db      	uxtb	r3, r3
    6e4c:	0018      	movs	r0, r3
    6e4e:	46bd      	mov	sp, r7
    6e50:	b004      	add	sp, #16
    6e52:	bd80      	pop	{r7, pc}

00006e54 <_usart_wait_for_sync>:
    6e54:	b580      	push	{r7, lr}
    6e56:	b082      	sub	sp, #8
    6e58:	af00      	add	r7, sp, #0
    6e5a:	6078      	str	r0, [r7, #4]
    6e5c:	46c0      	nop			; (mov r8, r8)
    6e5e:	687b      	ldr	r3, [r7, #4]
    6e60:	0018      	movs	r0, r3
    6e62:	4b04      	ldr	r3, [pc, #16]	; (6e74 <_usart_wait_for_sync+0x20>)
    6e64:	4798      	blx	r3
    6e66:	1e03      	subs	r3, r0, #0
    6e68:	d1f9      	bne.n	6e5e <_usart_wait_for_sync+0xa>
    6e6a:	46c0      	nop			; (mov r8, r8)
    6e6c:	46bd      	mov	sp, r7
    6e6e:	b002      	add	sp, #8
    6e70:	bd80      	pop	{r7, pc}
    6e72:	46c0      	nop			; (mov r8, r8)
    6e74:	00006e35 	.word	0x00006e35

00006e78 <usart_get_config_defaults>:
    6e78:	b580      	push	{r7, lr}
    6e7a:	b082      	sub	sp, #8
    6e7c:	af00      	add	r7, sp, #0
    6e7e:	6078      	str	r0, [r7, #4]
    6e80:	687b      	ldr	r3, [r7, #4]
    6e82:	2280      	movs	r2, #128	; 0x80
    6e84:	05d2      	lsls	r2, r2, #23
    6e86:	601a      	str	r2, [r3, #0]
    6e88:	687b      	ldr	r3, [r7, #4]
    6e8a:	2200      	movs	r2, #0
    6e8c:	605a      	str	r2, [r3, #4]
    6e8e:	687b      	ldr	r3, [r7, #4]
    6e90:	22ff      	movs	r2, #255	; 0xff
    6e92:	811a      	strh	r2, [r3, #8]
    6e94:	687b      	ldr	r3, [r7, #4]
    6e96:	2200      	movs	r2, #0
    6e98:	729a      	strb	r2, [r3, #10]
    6e9a:	687b      	ldr	r3, [r7, #4]
    6e9c:	2200      	movs	r2, #0
    6e9e:	72da      	strb	r2, [r3, #11]
    6ea0:	687b      	ldr	r3, [r7, #4]
    6ea2:	2296      	movs	r2, #150	; 0x96
    6ea4:	0192      	lsls	r2, r2, #6
    6ea6:	621a      	str	r2, [r3, #32]
    6ea8:	687b      	ldr	r3, [r7, #4]
    6eaa:	2224      	movs	r2, #36	; 0x24
    6eac:	2101      	movs	r1, #1
    6eae:	5499      	strb	r1, [r3, r2]
    6eb0:	687b      	ldr	r3, [r7, #4]
    6eb2:	2225      	movs	r2, #37	; 0x25
    6eb4:	2101      	movs	r1, #1
    6eb6:	5499      	strb	r1, [r3, r2]
    6eb8:	687b      	ldr	r3, [r7, #4]
    6eba:	2226      	movs	r2, #38	; 0x26
    6ebc:	2100      	movs	r1, #0
    6ebe:	5499      	strb	r1, [r3, r2]
    6ec0:	687b      	ldr	r3, [r7, #4]
    6ec2:	2227      	movs	r2, #39	; 0x27
    6ec4:	2100      	movs	r1, #0
    6ec6:	5499      	strb	r1, [r3, r2]
    6ec8:	687b      	ldr	r3, [r7, #4]
    6eca:	2200      	movs	r2, #0
    6ecc:	629a      	str	r2, [r3, #40]	; 0x28
    6ece:	687b      	ldr	r3, [r7, #4]
    6ed0:	2288      	movs	r2, #136	; 0x88
    6ed2:	0352      	lsls	r2, r2, #13
    6ed4:	60da      	str	r2, [r3, #12]
    6ed6:	687b      	ldr	r3, [r7, #4]
    6ed8:	222c      	movs	r2, #44	; 0x2c
    6eda:	2100      	movs	r1, #0
    6edc:	5499      	strb	r1, [r3, r2]
    6ede:	687b      	ldr	r3, [r7, #4]
    6ee0:	222d      	movs	r2, #45	; 0x2d
    6ee2:	2100      	movs	r1, #0
    6ee4:	5499      	strb	r1, [r3, r2]
    6ee6:	687b      	ldr	r3, [r7, #4]
    6ee8:	2200      	movs	r2, #0
    6eea:	631a      	str	r2, [r3, #48]	; 0x30
    6eec:	687b      	ldr	r3, [r7, #4]
    6eee:	2200      	movs	r2, #0
    6ef0:	635a      	str	r2, [r3, #52]	; 0x34
    6ef2:	687b      	ldr	r3, [r7, #4]
    6ef4:	2200      	movs	r2, #0
    6ef6:	639a      	str	r2, [r3, #56]	; 0x38
    6ef8:	687b      	ldr	r3, [r7, #4]
    6efa:	2200      	movs	r2, #0
    6efc:	63da      	str	r2, [r3, #60]	; 0x3c
    6efe:	687b      	ldr	r3, [r7, #4]
    6f00:	2200      	movs	r2, #0
    6f02:	615a      	str	r2, [r3, #20]
    6f04:	687b      	ldr	r3, [r7, #4]
    6f06:	2200      	movs	r2, #0
    6f08:	821a      	strh	r2, [r3, #16]
    6f0a:	687b      	ldr	r3, [r7, #4]
    6f0c:	2200      	movs	r2, #0
    6f0e:	76da      	strb	r2, [r3, #27]
    6f10:	687b      	ldr	r3, [r7, #4]
    6f12:	2200      	movs	r2, #0
    6f14:	761a      	strb	r2, [r3, #24]
    6f16:	687b      	ldr	r3, [r7, #4]
    6f18:	2200      	movs	r2, #0
    6f1a:	771a      	strb	r2, [r3, #28]
    6f1c:	687b      	ldr	r3, [r7, #4]
    6f1e:	2200      	movs	r2, #0
    6f20:	765a      	strb	r2, [r3, #25]
    6f22:	687b      	ldr	r3, [r7, #4]
    6f24:	2213      	movs	r2, #19
    6f26:	769a      	strb	r2, [r3, #26]
    6f28:	687b      	ldr	r3, [r7, #4]
    6f2a:	2200      	movs	r2, #0
    6f2c:	775a      	strb	r2, [r3, #29]
    6f2e:	46c0      	nop			; (mov r8, r8)
    6f30:	46bd      	mov	sp, r7
    6f32:	b002      	add	sp, #8
    6f34:	bd80      	pop	{r7, pc}
	...

00006f38 <usart_enable>:
    6f38:	b580      	push	{r7, lr}
    6f3a:	b084      	sub	sp, #16
    6f3c:	af00      	add	r7, sp, #0
    6f3e:	6078      	str	r0, [r7, #4]
    6f40:	687b      	ldr	r3, [r7, #4]
    6f42:	681b      	ldr	r3, [r3, #0]
    6f44:	60fb      	str	r3, [r7, #12]
    6f46:	687b      	ldr	r3, [r7, #4]
    6f48:	0018      	movs	r0, r3
    6f4a:	4b06      	ldr	r3, [pc, #24]	; (6f64 <usart_enable+0x2c>)
    6f4c:	4798      	blx	r3
    6f4e:	68fb      	ldr	r3, [r7, #12]
    6f50:	681b      	ldr	r3, [r3, #0]
    6f52:	2202      	movs	r2, #2
    6f54:	431a      	orrs	r2, r3
    6f56:	68fb      	ldr	r3, [r7, #12]
    6f58:	601a      	str	r2, [r3, #0]
    6f5a:	46c0      	nop			; (mov r8, r8)
    6f5c:	46bd      	mov	sp, r7
    6f5e:	b004      	add	sp, #16
    6f60:	bd80      	pop	{r7, pc}
    6f62:	46c0      	nop			; (mov r8, r8)
    6f64:	00006e55 	.word	0x00006e55

00006f68 <usart_disable>:
    6f68:	b580      	push	{r7, lr}
    6f6a:	b084      	sub	sp, #16
    6f6c:	af00      	add	r7, sp, #0
    6f6e:	6078      	str	r0, [r7, #4]
    6f70:	687b      	ldr	r3, [r7, #4]
    6f72:	681b      	ldr	r3, [r3, #0]
    6f74:	60fb      	str	r3, [r7, #12]
    6f76:	687b      	ldr	r3, [r7, #4]
    6f78:	0018      	movs	r0, r3
    6f7a:	4b06      	ldr	r3, [pc, #24]	; (6f94 <usart_disable+0x2c>)
    6f7c:	4798      	blx	r3
    6f7e:	68fb      	ldr	r3, [r7, #12]
    6f80:	681b      	ldr	r3, [r3, #0]
    6f82:	2202      	movs	r2, #2
    6f84:	4393      	bics	r3, r2
    6f86:	001a      	movs	r2, r3
    6f88:	68fb      	ldr	r3, [r7, #12]
    6f8a:	601a      	str	r2, [r3, #0]
    6f8c:	46c0      	nop			; (mov r8, r8)
    6f8e:	46bd      	mov	sp, r7
    6f90:	b004      	add	sp, #16
    6f92:	bd80      	pop	{r7, pc}
    6f94:	00006e55 	.word	0x00006e55

00006f98 <fnUART_SIGFOX_Init>:
    6f98:	b580      	push	{r7, lr}
    6f9a:	b090      	sub	sp, #64	; 0x40
    6f9c:	af00      	add	r7, sp, #0
    6f9e:	003b      	movs	r3, r7
    6fa0:	0018      	movs	r0, r3
    6fa2:	4b17      	ldr	r3, [pc, #92]	; (7000 <fnUART_SIGFOX_Init+0x68>)
    6fa4:	4798      	blx	r3
    6fa6:	003b      	movs	r3, r7
    6fa8:	222d      	movs	r2, #45	; 0x2d
    6faa:	2100      	movs	r1, #0
    6fac:	5499      	strb	r1, [r3, r2]
    6fae:	003b      	movs	r3, r7
    6fb0:	2296      	movs	r2, #150	; 0x96
    6fb2:	0192      	lsls	r2, r2, #6
    6fb4:	621a      	str	r2, [r3, #32]
    6fb6:	003b      	movs	r3, r7
    6fb8:	2280      	movs	r2, #128	; 0x80
    6fba:	0352      	lsls	r2, r2, #13
    6fbc:	60da      	str	r2, [r3, #12]
    6fbe:	003b      	movs	r3, r7
    6fc0:	4a10      	ldr	r2, [pc, #64]	; (7004 <fnUART_SIGFOX_Init+0x6c>)
    6fc2:	631a      	str	r2, [r3, #48]	; 0x30
    6fc4:	003b      	movs	r3, r7
    6fc6:	4a10      	ldr	r2, [pc, #64]	; (7008 <fnUART_SIGFOX_Init+0x70>)
    6fc8:	635a      	str	r2, [r3, #52]	; 0x34
    6fca:	003b      	movs	r3, r7
    6fcc:	2201      	movs	r2, #1
    6fce:	4252      	negs	r2, r2
    6fd0:	639a      	str	r2, [r3, #56]	; 0x38
    6fd2:	003b      	movs	r3, r7
    6fd4:	2201      	movs	r2, #1
    6fd6:	4252      	negs	r2, r2
    6fd8:	63da      	str	r2, [r3, #60]	; 0x3c
    6fda:	4b0c      	ldr	r3, [pc, #48]	; (700c <fnUART_SIGFOX_Init+0x74>)
    6fdc:	4798      	blx	r3
    6fde:	1e03      	subs	r3, r0, #0
    6fe0:	d009      	beq.n	6ff6 <fnUART_SIGFOX_Init+0x5e>
    6fe2:	46c0      	nop			; (mov r8, r8)
    6fe4:	003a      	movs	r2, r7
    6fe6:	490a      	ldr	r1, [pc, #40]	; (7010 <fnUART_SIGFOX_Init+0x78>)
    6fe8:	4b0a      	ldr	r3, [pc, #40]	; (7014 <fnUART_SIGFOX_Init+0x7c>)
    6fea:	0018      	movs	r0, r3
    6fec:	4b0a      	ldr	r3, [pc, #40]	; (7018 <fnUART_SIGFOX_Init+0x80>)
    6fee:	4798      	blx	r3
    6ff0:	1e03      	subs	r3, r0, #0
    6ff2:	d1f7      	bne.n	6fe4 <fnUART_SIGFOX_Init+0x4c>
    6ff4:	46c0      	nop			; (mov r8, r8)
    6ff6:	46c0      	nop			; (mov r8, r8)
    6ff8:	46bd      	mov	sp, r7
    6ffa:	b010      	add	sp, #64	; 0x40
    6ffc:	bd80      	pop	{r7, pc}
    6ffe:	46c0      	nop			; (mov r8, r8)
    7000:	00006e79 	.word	0x00006e79
    7004:	00160002 	.word	0x00160002
    7008:	00170002 	.word	0x00170002
    700c:	000097c5 	.word	0x000097c5
    7010:	42001400 	.word	0x42001400
    7014:	20000904 	.word	0x20000904
    7018:	00007595 	.word	0x00007595

0000701c <fnUART_SIGFOX_Enable>:
    701c:	b580      	push	{r7, lr}
    701e:	af00      	add	r7, sp, #0
    7020:	4b08      	ldr	r3, [pc, #32]	; (7044 <fnUART_SIGFOX_Enable+0x28>)
    7022:	781a      	ldrb	r2, [r3, #0]
    7024:	2104      	movs	r1, #4
    7026:	430a      	orrs	r2, r1
    7028:	701a      	strb	r2, [r3, #0]
    702a:	4b07      	ldr	r3, [pc, #28]	; (7048 <fnUART_SIGFOX_Enable+0x2c>)
    702c:	0018      	movs	r0, r3
    702e:	4b07      	ldr	r3, [pc, #28]	; (704c <fnUART_SIGFOX_Enable+0x30>)
    7030:	4798      	blx	r3
    7032:	4b07      	ldr	r3, [pc, #28]	; (7050 <fnUART_SIGFOX_Enable+0x34>)
    7034:	2204      	movs	r2, #4
    7036:	759a      	strb	r2, [r3, #22]
    7038:	200c      	movs	r0, #12
    703a:	4b06      	ldr	r3, [pc, #24]	; (7054 <fnUART_SIGFOX_Enable+0x38>)
    703c:	4798      	blx	r3
    703e:	46c0      	nop			; (mov r8, r8)
    7040:	46bd      	mov	sp, r7
    7042:	bd80      	pop	{r7, pc}
    7044:	20000b6c 	.word	0x20000b6c
    7048:	20000904 	.word	0x20000904
    704c:	00006f39 	.word	0x00006f39
    7050:	42001400 	.word	0x42001400
    7054:	00006dd9 	.word	0x00006dd9

00007058 <fnUART_SIGFOX_Disable>:
    7058:	b580      	push	{r7, lr}
    705a:	af00      	add	r7, sp, #0
    705c:	4b07      	ldr	r3, [pc, #28]	; (707c <fnUART_SIGFOX_Disable+0x24>)
    705e:	781a      	ldrb	r2, [r3, #0]
    7060:	2104      	movs	r1, #4
    7062:	438a      	bics	r2, r1
    7064:	701a      	strb	r2, [r3, #0]
    7066:	4b06      	ldr	r3, [pc, #24]	; (7080 <fnUART_SIGFOX_Disable+0x28>)
    7068:	0018      	movs	r0, r3
    706a:	4b06      	ldr	r3, [pc, #24]	; (7084 <fnUART_SIGFOX_Disable+0x2c>)
    706c:	4798      	blx	r3
    706e:	200c      	movs	r0, #12
    7070:	4b05      	ldr	r3, [pc, #20]	; (7088 <fnUART_SIGFOX_Disable+0x30>)
    7072:	4798      	blx	r3
    7074:	46c0      	nop			; (mov r8, r8)
    7076:	46bd      	mov	sp, r7
    7078:	bd80      	pop	{r7, pc}
    707a:	46c0      	nop			; (mov r8, r8)
    707c:	20000b6c 	.word	0x20000b6c
    7080:	20000904 	.word	0x20000904
    7084:	00006f69 	.word	0x00006f69
    7088:	00006e05 	.word	0x00006e05

0000708c <fnUART_SIGFOX_Send_String>:
    708c:	b590      	push	{r4, r7, lr}
    708e:	b085      	sub	sp, #20
    7090:	af00      	add	r7, sp, #0
    7092:	6078      	str	r0, [r7, #4]
    7094:	000a      	movs	r2, r1
    7096:	1cfb      	adds	r3, r7, #3
    7098:	701a      	strb	r2, [r3, #0]
    709a:	230f      	movs	r3, #15
    709c:	18fb      	adds	r3, r7, r3
    709e:	2200      	movs	r2, #0
    70a0:	701a      	strb	r2, [r3, #0]
    70a2:	e011      	b.n	70c8 <fnUART_SIGFOX_Send_String+0x3c>
    70a4:	230f      	movs	r3, #15
    70a6:	18fb      	adds	r3, r7, r3
    70a8:	781b      	ldrb	r3, [r3, #0]
    70aa:	687a      	ldr	r2, [r7, #4]
    70ac:	18d3      	adds	r3, r2, r3
    70ae:	781a      	ldrb	r2, [r3, #0]
    70b0:	4b15      	ldr	r3, [pc, #84]	; (7108 <fnUART_SIGFOX_Send_String+0x7c>)
    70b2:	0011      	movs	r1, r2
    70b4:	0018      	movs	r0, r3
    70b6:	4b15      	ldr	r3, [pc, #84]	; (710c <fnUART_SIGFOX_Send_String+0x80>)
    70b8:	4798      	blx	r3
    70ba:	230f      	movs	r3, #15
    70bc:	18fb      	adds	r3, r7, r3
    70be:	781a      	ldrb	r2, [r3, #0]
    70c0:	230f      	movs	r3, #15
    70c2:	18fb      	adds	r3, r7, r3
    70c4:	3201      	adds	r2, #1
    70c6:	701a      	strb	r2, [r3, #0]
    70c8:	230f      	movs	r3, #15
    70ca:	18fa      	adds	r2, r7, r3
    70cc:	1cfb      	adds	r3, r7, #3
    70ce:	7812      	ldrb	r2, [r2, #0]
    70d0:	781b      	ldrb	r3, [r3, #0]
    70d2:	429a      	cmp	r2, r3
    70d4:	d3e6      	bcc.n	70a4 <fnUART_SIGFOX_Send_String+0x18>
    70d6:	4b0e      	ldr	r3, [pc, #56]	; (7110 <fnUART_SIGFOX_Send_String+0x84>)
    70d8:	7d9b      	ldrb	r3, [r3, #22]
    70da:	b2db      	uxtb	r3, r3
    70dc:	001a      	movs	r2, r3
    70de:	2302      	movs	r3, #2
    70e0:	4013      	ands	r3, r2
    70e2:	d10c      	bne.n	70fe <fnUART_SIGFOX_Send_String+0x72>
    70e4:	4b0a      	ldr	r3, [pc, #40]	; (7110 <fnUART_SIGFOX_Send_String+0x84>)
    70e6:	2202      	movs	r2, #2
    70e8:	759a      	strb	r2, [r3, #22]
    70ea:	4c09      	ldr	r4, [pc, #36]	; (7110 <fnUART_SIGFOX_Send_String+0x84>)
    70ec:	4b06      	ldr	r3, [pc, #24]	; (7108 <fnUART_SIGFOX_Send_String+0x7c>)
    70ee:	0018      	movs	r0, r3
    70f0:	4b08      	ldr	r3, [pc, #32]	; (7114 <fnUART_SIGFOX_Send_String+0x88>)
    70f2:	4798      	blx	r3
    70f4:	0003      	movs	r3, r0
    70f6:	b29b      	uxth	r3, r3
    70f8:	8523      	strh	r3, [r4, #40]	; 0x28
    70fa:	46c0      	nop			; (mov r8, r8)
    70fc:	e000      	b.n	7100 <fnUART_SIGFOX_Send_String+0x74>
    70fe:	46c0      	nop			; (mov r8, r8)
    7100:	46bd      	mov	sp, r7
    7102:	b005      	add	sp, #20
    7104:	bd90      	pop	{r4, r7, pc}
    7106:	46c0      	nop			; (mov r8, r8)
    7108:	200004e0 	.word	0x200004e0
    710c:	000082f1 	.word	0x000082f1
    7110:	42001400 	.word	0x42001400
    7114:	00008359 	.word	0x00008359

00007118 <SERCOM3_Handler>:
    7118:	b580      	push	{r7, lr}
    711a:	b082      	sub	sp, #8
    711c:	af00      	add	r7, sp, #0
    711e:	4b13      	ldr	r3, [pc, #76]	; (716c <SERCOM3_Handler+0x54>)
    7120:	7e1b      	ldrb	r3, [r3, #24]
    7122:	b2da      	uxtb	r2, r3
    7124:	1dbb      	adds	r3, r7, #6
    7126:	801a      	strh	r2, [r3, #0]
    7128:	4b10      	ldr	r3, [pc, #64]	; (716c <SERCOM3_Handler+0x54>)
    712a:	7d9b      	ldrb	r3, [r3, #22]
    712c:	b2db      	uxtb	r3, r3
    712e:	b29a      	uxth	r2, r3
    7130:	1dbb      	adds	r3, r7, #6
    7132:	1db9      	adds	r1, r7, #6
    7134:	8809      	ldrh	r1, [r1, #0]
    7136:	400a      	ands	r2, r1
    7138:	801a      	strh	r2, [r3, #0]
    713a:	1dbb      	adds	r3, r7, #6
    713c:	881b      	ldrh	r3, [r3, #0]
    713e:	2204      	movs	r2, #4
    7140:	4013      	ands	r3, r2
    7142:	d006      	beq.n	7152 <SERCOM3_Handler+0x3a>
    7144:	4b09      	ldr	r3, [pc, #36]	; (716c <SERCOM3_Handler+0x54>)
    7146:	8d1b      	ldrh	r3, [r3, #40]	; 0x28
    7148:	b29b      	uxth	r3, r3
    714a:	b2db      	uxtb	r3, r3
    714c:	0018      	movs	r0, r3
    714e:	4b08      	ldr	r3, [pc, #32]	; (7170 <SERCOM3_Handler+0x58>)
    7150:	4798      	blx	r3
    7152:	1dbb      	adds	r3, r7, #6
    7154:	881b      	ldrh	r3, [r3, #0]
    7156:	2202      	movs	r2, #2
    7158:	4013      	ands	r3, r2
    715a:	d002      	beq.n	7162 <SERCOM3_Handler+0x4a>
    715c:	4b05      	ldr	r3, [pc, #20]	; (7174 <SERCOM3_Handler+0x5c>)
    715e:	4798      	blx	r3
    7160:	46c0      	nop			; (mov r8, r8)
    7162:	46c0      	nop			; (mov r8, r8)
    7164:	46bd      	mov	sp, r7
    7166:	b002      	add	sp, #8
    7168:	bd80      	pop	{r7, pc}
    716a:	46c0      	nop			; (mov r8, r8)
    716c:	42001400 	.word	0x42001400
    7170:	00006b95 	.word	0x00006b95
    7174:	00007179 	.word	0x00007179

00007178 <fnUART_SIGFOX_INT_Handler_Data_Register_Empty>:
    7178:	b5b0      	push	{r4, r5, r7, lr}
    717a:	af00      	add	r7, sp, #0
    717c:	4b0a      	ldr	r3, [pc, #40]	; (71a8 <fnUART_SIGFOX_INT_Handler_Data_Register_Empty+0x30>)
    717e:	0018      	movs	r0, r3
    7180:	4b0a      	ldr	r3, [pc, #40]	; (71ac <fnUART_SIGFOX_INT_Handler_Data_Register_Empty+0x34>)
    7182:	4798      	blx	r3
    7184:	1e03      	subs	r3, r0, #0
    7186:	d008      	beq.n	719a <fnUART_SIGFOX_INT_Handler_Data_Register_Empty+0x22>
    7188:	4c09      	ldr	r4, [pc, #36]	; (71b0 <fnUART_SIGFOX_INT_Handler_Data_Register_Empty+0x38>)
    718a:	4b07      	ldr	r3, [pc, #28]	; (71a8 <fnUART_SIGFOX_INT_Handler_Data_Register_Empty+0x30>)
    718c:	0018      	movs	r0, r3
    718e:	4b09      	ldr	r3, [pc, #36]	; (71b4 <fnUART_SIGFOX_INT_Handler_Data_Register_Empty+0x3c>)
    7190:	4798      	blx	r3
    7192:	0003      	movs	r3, r0
    7194:	b29b      	uxth	r3, r3
    7196:	8523      	strh	r3, [r4, #40]	; 0x28
    7198:	e003      	b.n	71a2 <fnUART_SIGFOX_INT_Handler_Data_Register_Empty+0x2a>
    719a:	4b05      	ldr	r3, [pc, #20]	; (71b0 <fnUART_SIGFOX_INT_Handler_Data_Register_Empty+0x38>)
    719c:	2202      	movs	r2, #2
    719e:	751a      	strb	r2, [r3, #20]
    71a0:	46c0      	nop			; (mov r8, r8)
    71a2:	46bd      	mov	sp, r7
    71a4:	bdb0      	pop	{r4, r5, r7, pc}
    71a6:	46c0      	nop			; (mov r8, r8)
    71a8:	200004e0 	.word	0x200004e0
    71ac:	00008397 	.word	0x00008397
    71b0:	42001400 	.word	0x42001400
    71b4:	00008359 	.word	0x00008359

000071b8 <system_gclk_chan_get_config_defaults>:
    71b8:	b580      	push	{r7, lr}
    71ba:	b082      	sub	sp, #8
    71bc:	af00      	add	r7, sp, #0
    71be:	6078      	str	r0, [r7, #4]
    71c0:	687b      	ldr	r3, [r7, #4]
    71c2:	2200      	movs	r2, #0
    71c4:	701a      	strb	r2, [r3, #0]
    71c6:	46c0      	nop			; (mov r8, r8)
    71c8:	46bd      	mov	sp, r7
    71ca:	b002      	add	sp, #8
    71cc:	bd80      	pop	{r7, pc}
	...

000071d0 <system_apb_clock_set_mask>:
    71d0:	b580      	push	{r7, lr}
    71d2:	b082      	sub	sp, #8
    71d4:	af00      	add	r7, sp, #0
    71d6:	0002      	movs	r2, r0
    71d8:	6039      	str	r1, [r7, #0]
    71da:	1dfb      	adds	r3, r7, #7
    71dc:	701a      	strb	r2, [r3, #0]
    71de:	1dfb      	adds	r3, r7, #7
    71e0:	781b      	ldrb	r3, [r3, #0]
    71e2:	2b01      	cmp	r3, #1
    71e4:	d00a      	beq.n	71fc <system_apb_clock_set_mask+0x2c>
    71e6:	2b02      	cmp	r3, #2
    71e8:	d00f      	beq.n	720a <system_apb_clock_set_mask+0x3a>
    71ea:	2b00      	cmp	r3, #0
    71ec:	d114      	bne.n	7218 <system_apb_clock_set_mask+0x48>
    71ee:	4b0e      	ldr	r3, [pc, #56]	; (7228 <system_apb_clock_set_mask+0x58>)
    71f0:	4a0d      	ldr	r2, [pc, #52]	; (7228 <system_apb_clock_set_mask+0x58>)
    71f2:	6991      	ldr	r1, [r2, #24]
    71f4:	683a      	ldr	r2, [r7, #0]
    71f6:	430a      	orrs	r2, r1
    71f8:	619a      	str	r2, [r3, #24]
    71fa:	e00f      	b.n	721c <system_apb_clock_set_mask+0x4c>
    71fc:	4b0a      	ldr	r3, [pc, #40]	; (7228 <system_apb_clock_set_mask+0x58>)
    71fe:	4a0a      	ldr	r2, [pc, #40]	; (7228 <system_apb_clock_set_mask+0x58>)
    7200:	69d1      	ldr	r1, [r2, #28]
    7202:	683a      	ldr	r2, [r7, #0]
    7204:	430a      	orrs	r2, r1
    7206:	61da      	str	r2, [r3, #28]
    7208:	e008      	b.n	721c <system_apb_clock_set_mask+0x4c>
    720a:	4b07      	ldr	r3, [pc, #28]	; (7228 <system_apb_clock_set_mask+0x58>)
    720c:	4a06      	ldr	r2, [pc, #24]	; (7228 <system_apb_clock_set_mask+0x58>)
    720e:	6a11      	ldr	r1, [r2, #32]
    7210:	683a      	ldr	r2, [r7, #0]
    7212:	430a      	orrs	r2, r1
    7214:	621a      	str	r2, [r3, #32]
    7216:	e001      	b.n	721c <system_apb_clock_set_mask+0x4c>
    7218:	2317      	movs	r3, #23
    721a:	e000      	b.n	721e <system_apb_clock_set_mask+0x4e>
    721c:	2300      	movs	r3, #0
    721e:	0018      	movs	r0, r3
    7220:	46bd      	mov	sp, r7
    7222:	b002      	add	sp, #8
    7224:	bd80      	pop	{r7, pc}
    7226:	46c0      	nop			; (mov r8, r8)
    7228:	40000400 	.word	0x40000400

0000722c <system_pinmux_get_config_defaults>:
    722c:	b580      	push	{r7, lr}
    722e:	b082      	sub	sp, #8
    7230:	af00      	add	r7, sp, #0
    7232:	6078      	str	r0, [r7, #4]
    7234:	687b      	ldr	r3, [r7, #4]
    7236:	2280      	movs	r2, #128	; 0x80
    7238:	701a      	strb	r2, [r3, #0]
    723a:	687b      	ldr	r3, [r7, #4]
    723c:	2200      	movs	r2, #0
    723e:	705a      	strb	r2, [r3, #1]
    7240:	687b      	ldr	r3, [r7, #4]
    7242:	2201      	movs	r2, #1
    7244:	709a      	strb	r2, [r3, #2]
    7246:	687b      	ldr	r3, [r7, #4]
    7248:	2200      	movs	r2, #0
    724a:	70da      	strb	r2, [r3, #3]
    724c:	46c0      	nop			; (mov r8, r8)
    724e:	46bd      	mov	sp, r7
    7250:	b002      	add	sp, #8
    7252:	bd80      	pop	{r7, pc}

00007254 <system_is_debugger_present>:
    7254:	b580      	push	{r7, lr}
    7256:	af00      	add	r7, sp, #0
    7258:	4b05      	ldr	r3, [pc, #20]	; (7270 <system_is_debugger_present+0x1c>)
    725a:	789b      	ldrb	r3, [r3, #2]
    725c:	b2db      	uxtb	r3, r3
    725e:	001a      	movs	r2, r3
    7260:	2302      	movs	r3, #2
    7262:	4013      	ands	r3, r2
    7264:	1e5a      	subs	r2, r3, #1
    7266:	4193      	sbcs	r3, r2
    7268:	b2db      	uxtb	r3, r3
    726a:	0018      	movs	r0, r3
    726c:	46bd      	mov	sp, r7
    726e:	bd80      	pop	{r7, pc}
    7270:	41002000 	.word	0x41002000

00007274 <usart_is_syncing>:
    7274:	b580      	push	{r7, lr}
    7276:	b084      	sub	sp, #16
    7278:	af00      	add	r7, sp, #0
    727a:	6078      	str	r0, [r7, #4]
    727c:	687b      	ldr	r3, [r7, #4]
    727e:	681b      	ldr	r3, [r3, #0]
    7280:	60fb      	str	r3, [r7, #12]
    7282:	68fb      	ldr	r3, [r7, #12]
    7284:	69db      	ldr	r3, [r3, #28]
    7286:	1e5a      	subs	r2, r3, #1
    7288:	4193      	sbcs	r3, r2
    728a:	b2db      	uxtb	r3, r3
    728c:	0018      	movs	r0, r3
    728e:	46bd      	mov	sp, r7
    7290:	b004      	add	sp, #16
    7292:	bd80      	pop	{r7, pc}

00007294 <_usart_wait_for_sync>:
    7294:	b580      	push	{r7, lr}
    7296:	b082      	sub	sp, #8
    7298:	af00      	add	r7, sp, #0
    729a:	6078      	str	r0, [r7, #4]
    729c:	46c0      	nop			; (mov r8, r8)
    729e:	687b      	ldr	r3, [r7, #4]
    72a0:	0018      	movs	r0, r3
    72a2:	4b04      	ldr	r3, [pc, #16]	; (72b4 <_usart_wait_for_sync+0x20>)
    72a4:	4798      	blx	r3
    72a6:	1e03      	subs	r3, r0, #0
    72a8:	d1f9      	bne.n	729e <_usart_wait_for_sync+0xa>
    72aa:	46c0      	nop			; (mov r8, r8)
    72ac:	46bd      	mov	sp, r7
    72ae:	b002      	add	sp, #8
    72b0:	bd80      	pop	{r7, pc}
    72b2:	46c0      	nop			; (mov r8, r8)
    72b4:	00007275 	.word	0x00007275

000072b8 <_usart_set_config>:
    72b8:	b5b0      	push	{r4, r5, r7, lr}
    72ba:	b08c      	sub	sp, #48	; 0x30
    72bc:	af02      	add	r7, sp, #8
    72be:	6078      	str	r0, [r7, #4]
    72c0:	6039      	str	r1, [r7, #0]
    72c2:	687b      	ldr	r3, [r7, #4]
    72c4:	681b      	ldr	r3, [r3, #0]
    72c6:	61bb      	str	r3, [r7, #24]
    72c8:	687b      	ldr	r3, [r7, #4]
    72ca:	681b      	ldr	r3, [r3, #0]
    72cc:	0018      	movs	r0, r3
    72ce:	4bab      	ldr	r3, [pc, #684]	; (757c <_usart_set_config+0x2c4>)
    72d0:	4798      	blx	r3
    72d2:	0003      	movs	r3, r0
    72d4:	617b      	str	r3, [r7, #20]
    72d6:	697b      	ldr	r3, [r7, #20]
    72d8:	3314      	adds	r3, #20
    72da:	613b      	str	r3, [r7, #16]
    72dc:	2300      	movs	r3, #0
    72de:	627b      	str	r3, [r7, #36]	; 0x24
    72e0:	2300      	movs	r3, #0
    72e2:	623b      	str	r3, [r7, #32]
    72e4:	230a      	movs	r3, #10
    72e6:	18fb      	adds	r3, r7, r3
    72e8:	2200      	movs	r2, #0
    72ea:	801a      	strh	r2, [r3, #0]
    72ec:	231f      	movs	r3, #31
    72ee:	18fb      	adds	r3, r7, r3
    72f0:	2200      	movs	r2, #0
    72f2:	701a      	strb	r2, [r3, #0]
    72f4:	231e      	movs	r3, #30
    72f6:	18fb      	adds	r3, r7, r3
    72f8:	2210      	movs	r2, #16
    72fa:	701a      	strb	r2, [r3, #0]
    72fc:	683b      	ldr	r3, [r7, #0]
    72fe:	8a1b      	ldrh	r3, [r3, #16]
    7300:	2280      	movs	r2, #128	; 0x80
    7302:	01d2      	lsls	r2, r2, #7
    7304:	4293      	cmp	r3, r2
    7306:	d01c      	beq.n	7342 <_usart_set_config+0x8a>
    7308:	2280      	movs	r2, #128	; 0x80
    730a:	01d2      	lsls	r2, r2, #7
    730c:	4293      	cmp	r3, r2
    730e:	dc06      	bgt.n	731e <_usart_set_config+0x66>
    7310:	2b00      	cmp	r3, #0
    7312:	d00d      	beq.n	7330 <_usart_set_config+0x78>
    7314:	2280      	movs	r2, #128	; 0x80
    7316:	0192      	lsls	r2, r2, #6
    7318:	4293      	cmp	r3, r2
    731a:	d024      	beq.n	7366 <_usart_set_config+0xae>
    731c:	e035      	b.n	738a <_usart_set_config+0xd2>
    731e:	22c0      	movs	r2, #192	; 0xc0
    7320:	01d2      	lsls	r2, r2, #7
    7322:	4293      	cmp	r3, r2
    7324:	d028      	beq.n	7378 <_usart_set_config+0xc0>
    7326:	2280      	movs	r2, #128	; 0x80
    7328:	0212      	lsls	r2, r2, #8
    732a:	4293      	cmp	r3, r2
    732c:	d012      	beq.n	7354 <_usart_set_config+0x9c>
    732e:	e02c      	b.n	738a <_usart_set_config+0xd2>
    7330:	231f      	movs	r3, #31
    7332:	18fb      	adds	r3, r7, r3
    7334:	2200      	movs	r2, #0
    7336:	701a      	strb	r2, [r3, #0]
    7338:	231e      	movs	r3, #30
    733a:	18fb      	adds	r3, r7, r3
    733c:	2210      	movs	r2, #16
    733e:	701a      	strb	r2, [r3, #0]
    7340:	e023      	b.n	738a <_usart_set_config+0xd2>
    7342:	231f      	movs	r3, #31
    7344:	18fb      	adds	r3, r7, r3
    7346:	2200      	movs	r2, #0
    7348:	701a      	strb	r2, [r3, #0]
    734a:	231e      	movs	r3, #30
    734c:	18fb      	adds	r3, r7, r3
    734e:	2208      	movs	r2, #8
    7350:	701a      	strb	r2, [r3, #0]
    7352:	e01a      	b.n	738a <_usart_set_config+0xd2>
    7354:	231f      	movs	r3, #31
    7356:	18fb      	adds	r3, r7, r3
    7358:	2200      	movs	r2, #0
    735a:	701a      	strb	r2, [r3, #0]
    735c:	231e      	movs	r3, #30
    735e:	18fb      	adds	r3, r7, r3
    7360:	2203      	movs	r2, #3
    7362:	701a      	strb	r2, [r3, #0]
    7364:	e011      	b.n	738a <_usart_set_config+0xd2>
    7366:	231f      	movs	r3, #31
    7368:	18fb      	adds	r3, r7, r3
    736a:	2201      	movs	r2, #1
    736c:	701a      	strb	r2, [r3, #0]
    736e:	231e      	movs	r3, #30
    7370:	18fb      	adds	r3, r7, r3
    7372:	2210      	movs	r2, #16
    7374:	701a      	strb	r2, [r3, #0]
    7376:	e008      	b.n	738a <_usart_set_config+0xd2>
    7378:	231f      	movs	r3, #31
    737a:	18fb      	adds	r3, r7, r3
    737c:	2201      	movs	r2, #1
    737e:	701a      	strb	r2, [r3, #0]
    7380:	231e      	movs	r3, #30
    7382:	18fb      	adds	r3, r7, r3
    7384:	2208      	movs	r2, #8
    7386:	701a      	strb	r2, [r3, #0]
    7388:	46c0      	nop			; (mov r8, r8)
    738a:	683b      	ldr	r3, [r7, #0]
    738c:	681a      	ldr	r2, [r3, #0]
    738e:	683b      	ldr	r3, [r7, #0]
    7390:	68db      	ldr	r3, [r3, #12]
    7392:	431a      	orrs	r2, r3
    7394:	683b      	ldr	r3, [r7, #0]
    7396:	695b      	ldr	r3, [r3, #20]
    7398:	4313      	orrs	r3, r2
    739a:	683a      	ldr	r2, [r7, #0]
    739c:	8a12      	ldrh	r2, [r2, #16]
    739e:	4313      	orrs	r3, r2
    73a0:	683a      	ldr	r2, [r7, #0]
    73a2:	7e12      	ldrb	r2, [r2, #24]
    73a4:	0212      	lsls	r2, r2, #8
    73a6:	4313      	orrs	r3, r2
    73a8:	683a      	ldr	r2, [r7, #0]
    73aa:	2126      	movs	r1, #38	; 0x26
    73ac:	5c52      	ldrb	r2, [r2, r1]
    73ae:	0752      	lsls	r2, r2, #29
    73b0:	4313      	orrs	r3, r2
    73b2:	627b      	str	r3, [r7, #36]	; 0x24
    73b4:	231d      	movs	r3, #29
    73b6:	18fb      	adds	r3, r7, r3
    73b8:	2200      	movs	r2, #0
    73ba:	701a      	strb	r2, [r3, #0]
    73bc:	683b      	ldr	r3, [r7, #0]
    73be:	685b      	ldr	r3, [r3, #4]
    73c0:	60fb      	str	r3, [r7, #12]
    73c2:	68fb      	ldr	r3, [r7, #12]
    73c4:	2b00      	cmp	r3, #0
    73c6:	d01e      	beq.n	7406 <_usart_set_config+0x14e>
    73c8:	2280      	movs	r2, #128	; 0x80
    73ca:	0552      	lsls	r2, r2, #21
    73cc:	4293      	cmp	r3, r2
    73ce:	d14f      	bne.n	7470 <_usart_set_config+0x1b8>
    73d0:	683b      	ldr	r3, [r7, #0]
    73d2:	2227      	movs	r2, #39	; 0x27
    73d4:	5c9b      	ldrb	r3, [r3, r2]
    73d6:	2201      	movs	r2, #1
    73d8:	4053      	eors	r3, r2
    73da:	b2db      	uxtb	r3, r3
    73dc:	2b00      	cmp	r3, #0
    73de:	d046      	beq.n	746e <_usart_set_config+0x1b6>
    73e0:	683b      	ldr	r3, [r7, #0]
    73e2:	6a1d      	ldr	r5, [r3, #32]
    73e4:	693b      	ldr	r3, [r7, #16]
    73e6:	b2db      	uxtb	r3, r3
    73e8:	0018      	movs	r0, r3
    73ea:	4b65      	ldr	r3, [pc, #404]	; (7580 <_usart_set_config+0x2c8>)
    73ec:	4798      	blx	r3
    73ee:	0001      	movs	r1, r0
    73f0:	231d      	movs	r3, #29
    73f2:	18fc      	adds	r4, r7, r3
    73f4:	230a      	movs	r3, #10
    73f6:	18fb      	adds	r3, r7, r3
    73f8:	001a      	movs	r2, r3
    73fa:	0028      	movs	r0, r5
    73fc:	4b61      	ldr	r3, [pc, #388]	; (7584 <_usart_set_config+0x2cc>)
    73fe:	4798      	blx	r3
    7400:	0003      	movs	r3, r0
    7402:	7023      	strb	r3, [r4, #0]
    7404:	e033      	b.n	746e <_usart_set_config+0x1b6>
    7406:	683b      	ldr	r3, [r7, #0]
    7408:	2227      	movs	r2, #39	; 0x27
    740a:	5c9b      	ldrb	r3, [r3, r2]
    740c:	2b00      	cmp	r3, #0
    740e:	d014      	beq.n	743a <_usart_set_config+0x182>
    7410:	683b      	ldr	r3, [r7, #0]
    7412:	6a18      	ldr	r0, [r3, #32]
    7414:	683b      	ldr	r3, [r7, #0]
    7416:	6a99      	ldr	r1, [r3, #40]	; 0x28
    7418:	231d      	movs	r3, #29
    741a:	18fc      	adds	r4, r7, r3
    741c:	231f      	movs	r3, #31
    741e:	18fb      	adds	r3, r7, r3
    7420:	781d      	ldrb	r5, [r3, #0]
    7422:	230a      	movs	r3, #10
    7424:	18fa      	adds	r2, r7, r3
    7426:	231e      	movs	r3, #30
    7428:	18fb      	adds	r3, r7, r3
    742a:	781b      	ldrb	r3, [r3, #0]
    742c:	9300      	str	r3, [sp, #0]
    742e:	002b      	movs	r3, r5
    7430:	4d55      	ldr	r5, [pc, #340]	; (7588 <_usart_set_config+0x2d0>)
    7432:	47a8      	blx	r5
    7434:	0003      	movs	r3, r0
    7436:	7023      	strb	r3, [r4, #0]
    7438:	e01a      	b.n	7470 <_usart_set_config+0x1b8>
    743a:	683b      	ldr	r3, [r7, #0]
    743c:	6a1d      	ldr	r5, [r3, #32]
    743e:	693b      	ldr	r3, [r7, #16]
    7440:	b2db      	uxtb	r3, r3
    7442:	0018      	movs	r0, r3
    7444:	4b4e      	ldr	r3, [pc, #312]	; (7580 <_usart_set_config+0x2c8>)
    7446:	4798      	blx	r3
    7448:	231d      	movs	r3, #29
    744a:	18fc      	adds	r4, r7, r3
    744c:	231f      	movs	r3, #31
    744e:	18fb      	adds	r3, r7, r3
    7450:	7819      	ldrb	r1, [r3, #0]
    7452:	230a      	movs	r3, #10
    7454:	18fa      	adds	r2, r7, r3
    7456:	231e      	movs	r3, #30
    7458:	18fb      	adds	r3, r7, r3
    745a:	781b      	ldrb	r3, [r3, #0]
    745c:	9300      	str	r3, [sp, #0]
    745e:	000b      	movs	r3, r1
    7460:	0001      	movs	r1, r0
    7462:	0028      	movs	r0, r5
    7464:	4d48      	ldr	r5, [pc, #288]	; (7588 <_usart_set_config+0x2d0>)
    7466:	47a8      	blx	r5
    7468:	0003      	movs	r3, r0
    746a:	7023      	strb	r3, [r4, #0]
    746c:	e000      	b.n	7470 <_usart_set_config+0x1b8>
    746e:	46c0      	nop			; (mov r8, r8)
    7470:	231d      	movs	r3, #29
    7472:	18fb      	adds	r3, r7, r3
    7474:	781b      	ldrb	r3, [r3, #0]
    7476:	2b00      	cmp	r3, #0
    7478:	d003      	beq.n	7482 <_usart_set_config+0x1ca>
    747a:	231d      	movs	r3, #29
    747c:	18fb      	adds	r3, r7, r3
    747e:	781b      	ldrb	r3, [r3, #0]
    7480:	e077      	b.n	7572 <_usart_set_config+0x2ba>
    7482:	683b      	ldr	r3, [r7, #0]
    7484:	7e5b      	ldrb	r3, [r3, #25]
    7486:	2b00      	cmp	r3, #0
    7488:	d003      	beq.n	7492 <_usart_set_config+0x1da>
    748a:	683b      	ldr	r3, [r7, #0]
    748c:	7e9a      	ldrb	r2, [r3, #26]
    748e:	69bb      	ldr	r3, [r7, #24]
    7490:	739a      	strb	r2, [r3, #14]
    7492:	687b      	ldr	r3, [r7, #4]
    7494:	0018      	movs	r0, r3
    7496:	4b3d      	ldr	r3, [pc, #244]	; (758c <_usart_set_config+0x2d4>)
    7498:	4798      	blx	r3
    749a:	230a      	movs	r3, #10
    749c:	18fb      	adds	r3, r7, r3
    749e:	881a      	ldrh	r2, [r3, #0]
    74a0:	69bb      	ldr	r3, [r7, #24]
    74a2:	819a      	strh	r2, [r3, #12]
    74a4:	6a7a      	ldr	r2, [r7, #36]	; 0x24
    74a6:	68fb      	ldr	r3, [r7, #12]
    74a8:	4313      	orrs	r3, r2
    74aa:	627b      	str	r3, [r7, #36]	; 0x24
    74ac:	683b      	ldr	r3, [r7, #0]
    74ae:	2227      	movs	r2, #39	; 0x27
    74b0:	5c9b      	ldrb	r3, [r3, r2]
    74b2:	2201      	movs	r2, #1
    74b4:	4053      	eors	r3, r2
    74b6:	b2db      	uxtb	r3, r3
    74b8:	2b00      	cmp	r3, #0
    74ba:	d003      	beq.n	74c4 <_usart_set_config+0x20c>
    74bc:	6a7b      	ldr	r3, [r7, #36]	; 0x24
    74be:	2204      	movs	r2, #4
    74c0:	4313      	orrs	r3, r2
    74c2:	627b      	str	r3, [r7, #36]	; 0x24
    74c4:	683b      	ldr	r3, [r7, #0]
    74c6:	7e5b      	ldrb	r3, [r3, #25]
    74c8:	029a      	lsls	r2, r3, #10
    74ca:	683b      	ldr	r3, [r7, #0]
    74cc:	7f1b      	ldrb	r3, [r3, #28]
    74ce:	025b      	lsls	r3, r3, #9
    74d0:	431a      	orrs	r2, r3
    74d2:	683b      	ldr	r3, [r7, #0]
    74d4:	7f5b      	ldrb	r3, [r3, #29]
    74d6:	021b      	lsls	r3, r3, #8
    74d8:	431a      	orrs	r2, r3
    74da:	683b      	ldr	r3, [r7, #0]
    74dc:	2124      	movs	r1, #36	; 0x24
    74de:	5c5b      	ldrb	r3, [r3, r1]
    74e0:	045b      	lsls	r3, r3, #17
    74e2:	431a      	orrs	r2, r3
    74e4:	683b      	ldr	r3, [r7, #0]
    74e6:	2125      	movs	r1, #37	; 0x25
    74e8:	5c5b      	ldrb	r3, [r3, r1]
    74ea:	041b      	lsls	r3, r3, #16
    74ec:	4313      	orrs	r3, r2
    74ee:	623b      	str	r3, [r7, #32]
    74f0:	683b      	ldr	r3, [r7, #0]
    74f2:	7a9b      	ldrb	r3, [r3, #10]
    74f4:	001a      	movs	r2, r3
    74f6:	6a3b      	ldr	r3, [r7, #32]
    74f8:	4313      	orrs	r3, r2
    74fa:	623b      	str	r3, [r7, #32]
    74fc:	683b      	ldr	r3, [r7, #0]
    74fe:	7adb      	ldrb	r3, [r3, #11]
    7500:	001a      	movs	r2, r3
    7502:	6a3b      	ldr	r3, [r7, #32]
    7504:	4313      	orrs	r3, r2
    7506:	623b      	str	r3, [r7, #32]
    7508:	683b      	ldr	r3, [r7, #0]
    750a:	891b      	ldrh	r3, [r3, #8]
    750c:	2bff      	cmp	r3, #255	; 0xff
    750e:	d00b      	beq.n	7528 <_usart_set_config+0x270>
    7510:	6a7b      	ldr	r3, [r7, #36]	; 0x24
    7512:	2280      	movs	r2, #128	; 0x80
    7514:	0452      	lsls	r2, r2, #17
    7516:	4313      	orrs	r3, r2
    7518:	627b      	str	r3, [r7, #36]	; 0x24
    751a:	683b      	ldr	r3, [r7, #0]
    751c:	891b      	ldrh	r3, [r3, #8]
    751e:	001a      	movs	r2, r3
    7520:	6a3b      	ldr	r3, [r7, #32]
    7522:	4313      	orrs	r3, r2
    7524:	623b      	str	r3, [r7, #32]
    7526:	e008      	b.n	753a <_usart_set_config+0x282>
    7528:	683b      	ldr	r3, [r7, #0]
    752a:	7edb      	ldrb	r3, [r3, #27]
    752c:	2b00      	cmp	r3, #0
    752e:	d004      	beq.n	753a <_usart_set_config+0x282>
    7530:	6a7b      	ldr	r3, [r7, #36]	; 0x24
    7532:	2280      	movs	r2, #128	; 0x80
    7534:	04d2      	lsls	r2, r2, #19
    7536:	4313      	orrs	r3, r2
    7538:	627b      	str	r3, [r7, #36]	; 0x24
    753a:	683b      	ldr	r3, [r7, #0]
    753c:	222c      	movs	r2, #44	; 0x2c
    753e:	5c9b      	ldrb	r3, [r3, r2]
    7540:	2b00      	cmp	r3, #0
    7542:	d103      	bne.n	754c <_usart_set_config+0x294>
    7544:	4b12      	ldr	r3, [pc, #72]	; (7590 <_usart_set_config+0x2d8>)
    7546:	4798      	blx	r3
    7548:	1e03      	subs	r3, r0, #0
    754a:	d003      	beq.n	7554 <_usart_set_config+0x29c>
    754c:	6a7b      	ldr	r3, [r7, #36]	; 0x24
    754e:	2280      	movs	r2, #128	; 0x80
    7550:	4313      	orrs	r3, r2
    7552:	627b      	str	r3, [r7, #36]	; 0x24
    7554:	687b      	ldr	r3, [r7, #4]
    7556:	0018      	movs	r0, r3
    7558:	4b0c      	ldr	r3, [pc, #48]	; (758c <_usart_set_config+0x2d4>)
    755a:	4798      	blx	r3
    755c:	69bb      	ldr	r3, [r7, #24]
    755e:	6a3a      	ldr	r2, [r7, #32]
    7560:	605a      	str	r2, [r3, #4]
    7562:	687b      	ldr	r3, [r7, #4]
    7564:	0018      	movs	r0, r3
    7566:	4b09      	ldr	r3, [pc, #36]	; (758c <_usart_set_config+0x2d4>)
    7568:	4798      	blx	r3
    756a:	69bb      	ldr	r3, [r7, #24]
    756c:	6a7a      	ldr	r2, [r7, #36]	; 0x24
    756e:	601a      	str	r2, [r3, #0]
    7570:	2300      	movs	r3, #0
    7572:	0018      	movs	r0, r3
    7574:	46bd      	mov	sp, r7
    7576:	b00a      	add	sp, #40	; 0x28
    7578:	bdb0      	pop	{r4, r5, r7, pc}
    757a:	46c0      	nop			; (mov r8, r8)
    757c:	00007ced 	.word	0x00007ced
    7580:	000091e5 	.word	0x000091e5
    7584:	00007867 	.word	0x00007867
    7588:	000078e5 	.word	0x000078e5
    758c:	00007295 	.word	0x00007295
    7590:	00007255 	.word	0x00007255

00007594 <usart_init>:
    7594:	b590      	push	{r4, r7, lr}
    7596:	b093      	sub	sp, #76	; 0x4c
    7598:	af00      	add	r7, sp, #0
    759a:	60f8      	str	r0, [r7, #12]
    759c:	60b9      	str	r1, [r7, #8]
    759e:	607a      	str	r2, [r7, #4]
    75a0:	233f      	movs	r3, #63	; 0x3f
    75a2:	18fb      	adds	r3, r7, r3
    75a4:	2200      	movs	r2, #0
    75a6:	701a      	strb	r2, [r3, #0]
    75a8:	68fb      	ldr	r3, [r7, #12]
    75aa:	68ba      	ldr	r2, [r7, #8]
    75ac:	601a      	str	r2, [r3, #0]
    75ae:	68fb      	ldr	r3, [r7, #12]
    75b0:	681b      	ldr	r3, [r3, #0]
    75b2:	63bb      	str	r3, [r7, #56]	; 0x38
    75b4:	68fb      	ldr	r3, [r7, #12]
    75b6:	681b      	ldr	r3, [r3, #0]
    75b8:	0018      	movs	r0, r3
    75ba:	4b63      	ldr	r3, [pc, #396]	; (7748 <usart_init+0x1b4>)
    75bc:	4798      	blx	r3
    75be:	0003      	movs	r3, r0
    75c0:	637b      	str	r3, [r7, #52]	; 0x34
    75c2:	6b7b      	ldr	r3, [r7, #52]	; 0x34
    75c4:	3302      	adds	r3, #2
    75c6:	633b      	str	r3, [r7, #48]	; 0x30
    75c8:	6b7b      	ldr	r3, [r7, #52]	; 0x34
    75ca:	3314      	adds	r3, #20
    75cc:	62fb      	str	r3, [r7, #44]	; 0x2c
    75ce:	6bbb      	ldr	r3, [r7, #56]	; 0x38
    75d0:	681b      	ldr	r3, [r3, #0]
    75d2:	2201      	movs	r2, #1
    75d4:	4013      	ands	r3, r2
    75d6:	d001      	beq.n	75dc <usart_init+0x48>
    75d8:	2305      	movs	r3, #5
    75da:	e0b1      	b.n	7740 <usart_init+0x1ac>
    75dc:	6bbb      	ldr	r3, [r7, #56]	; 0x38
    75de:	681b      	ldr	r3, [r3, #0]
    75e0:	2202      	movs	r2, #2
    75e2:	4013      	ands	r3, r2
    75e4:	d001      	beq.n	75ea <usart_init+0x56>
    75e6:	231c      	movs	r3, #28
    75e8:	e0aa      	b.n	7740 <usart_init+0x1ac>
    75ea:	2201      	movs	r2, #1
    75ec:	6b3b      	ldr	r3, [r7, #48]	; 0x30
    75ee:	409a      	lsls	r2, r3
    75f0:	0013      	movs	r3, r2
    75f2:	0019      	movs	r1, r3
    75f4:	2002      	movs	r0, #2
    75f6:	4b55      	ldr	r3, [pc, #340]	; (774c <usart_init+0x1b8>)
    75f8:	4798      	blx	r3
    75fa:	2328      	movs	r3, #40	; 0x28
    75fc:	18fb      	adds	r3, r7, r3
    75fe:	0018      	movs	r0, r3
    7600:	4b53      	ldr	r3, [pc, #332]	; (7750 <usart_init+0x1bc>)
    7602:	4798      	blx	r3
    7604:	687b      	ldr	r3, [r7, #4]
    7606:	222d      	movs	r2, #45	; 0x2d
    7608:	5c9a      	ldrb	r2, [r3, r2]
    760a:	2328      	movs	r3, #40	; 0x28
    760c:	18fb      	adds	r3, r7, r3
    760e:	701a      	strb	r2, [r3, #0]
    7610:	6afb      	ldr	r3, [r7, #44]	; 0x2c
    7612:	b2db      	uxtb	r3, r3
    7614:	2228      	movs	r2, #40	; 0x28
    7616:	18ba      	adds	r2, r7, r2
    7618:	0011      	movs	r1, r2
    761a:	0018      	movs	r0, r3
    761c:	4b4d      	ldr	r3, [pc, #308]	; (7754 <usart_init+0x1c0>)
    761e:	4798      	blx	r3
    7620:	6afb      	ldr	r3, [r7, #44]	; 0x2c
    7622:	b2db      	uxtb	r3, r3
    7624:	0018      	movs	r0, r3
    7626:	4b4c      	ldr	r3, [pc, #304]	; (7758 <usart_init+0x1c4>)
    7628:	4798      	blx	r3
    762a:	687b      	ldr	r3, [r7, #4]
    762c:	222d      	movs	r2, #45	; 0x2d
    762e:	5c9b      	ldrb	r3, [r3, r2]
    7630:	2100      	movs	r1, #0
    7632:	0018      	movs	r0, r3
    7634:	4b49      	ldr	r3, [pc, #292]	; (775c <usart_init+0x1c8>)
    7636:	4798      	blx	r3
    7638:	687b      	ldr	r3, [r7, #4]
    763a:	7ada      	ldrb	r2, [r3, #11]
    763c:	68fb      	ldr	r3, [r7, #12]
    763e:	715a      	strb	r2, [r3, #5]
    7640:	687b      	ldr	r3, [r7, #4]
    7642:	2224      	movs	r2, #36	; 0x24
    7644:	5c9a      	ldrb	r2, [r3, r2]
    7646:	68fb      	ldr	r3, [r7, #12]
    7648:	719a      	strb	r2, [r3, #6]
    764a:	687b      	ldr	r3, [r7, #4]
    764c:	2225      	movs	r2, #37	; 0x25
    764e:	5c9a      	ldrb	r2, [r3, r2]
    7650:	68fb      	ldr	r3, [r7, #12]
    7652:	71da      	strb	r2, [r3, #7]
    7654:	687b      	ldr	r3, [r7, #4]
    7656:	7eda      	ldrb	r2, [r3, #27]
    7658:	68fb      	ldr	r3, [r7, #12]
    765a:	721a      	strb	r2, [r3, #8]
    765c:	687b      	ldr	r3, [r7, #4]
    765e:	7f1a      	ldrb	r2, [r3, #28]
    7660:	68fb      	ldr	r3, [r7, #12]
    7662:	725a      	strb	r2, [r3, #9]
    7664:	233f      	movs	r3, #63	; 0x3f
    7666:	18fc      	adds	r4, r7, r3
    7668:	687a      	ldr	r2, [r7, #4]
    766a:	68fb      	ldr	r3, [r7, #12]
    766c:	0011      	movs	r1, r2
    766e:	0018      	movs	r0, r3
    7670:	4b3b      	ldr	r3, [pc, #236]	; (7760 <usart_init+0x1cc>)
    7672:	4798      	blx	r3
    7674:	0003      	movs	r3, r0
    7676:	7023      	strb	r3, [r4, #0]
    7678:	233f      	movs	r3, #63	; 0x3f
    767a:	18fb      	adds	r3, r7, r3
    767c:	781b      	ldrb	r3, [r3, #0]
    767e:	2b00      	cmp	r3, #0
    7680:	d003      	beq.n	768a <usart_init+0xf6>
    7682:	233f      	movs	r3, #63	; 0x3f
    7684:	18fb      	adds	r3, r7, r3
    7686:	781b      	ldrb	r3, [r3, #0]
    7688:	e05a      	b.n	7740 <usart_init+0x1ac>
    768a:	2324      	movs	r3, #36	; 0x24
    768c:	18fb      	adds	r3, r7, r3
    768e:	0018      	movs	r0, r3
    7690:	4b34      	ldr	r3, [pc, #208]	; (7764 <usart_init+0x1d0>)
    7692:	4798      	blx	r3
    7694:	2324      	movs	r3, #36	; 0x24
    7696:	18fb      	adds	r3, r7, r3
    7698:	2200      	movs	r2, #0
    769a:	705a      	strb	r2, [r3, #1]
    769c:	2324      	movs	r3, #36	; 0x24
    769e:	18fb      	adds	r3, r7, r3
    76a0:	2200      	movs	r2, #0
    76a2:	709a      	strb	r2, [r3, #2]
    76a4:	687b      	ldr	r3, [r7, #4]
    76a6:	6b1a      	ldr	r2, [r3, #48]	; 0x30
    76a8:	2314      	movs	r3, #20
    76aa:	18fb      	adds	r3, r7, r3
    76ac:	601a      	str	r2, [r3, #0]
    76ae:	687b      	ldr	r3, [r7, #4]
    76b0:	6b5a      	ldr	r2, [r3, #52]	; 0x34
    76b2:	2314      	movs	r3, #20
    76b4:	18fb      	adds	r3, r7, r3
    76b6:	605a      	str	r2, [r3, #4]
    76b8:	687b      	ldr	r3, [r7, #4]
    76ba:	6b9a      	ldr	r2, [r3, #56]	; 0x38
    76bc:	2314      	movs	r3, #20
    76be:	18fb      	adds	r3, r7, r3
    76c0:	609a      	str	r2, [r3, #8]
    76c2:	687b      	ldr	r3, [r7, #4]
    76c4:	6bda      	ldr	r2, [r3, #60]	; 0x3c
    76c6:	2314      	movs	r3, #20
    76c8:	18fb      	adds	r3, r7, r3
    76ca:	60da      	str	r2, [r3, #12]
    76cc:	2347      	movs	r3, #71	; 0x47
    76ce:	18fb      	adds	r3, r7, r3
    76d0:	2200      	movs	r2, #0
    76d2:	701a      	strb	r2, [r3, #0]
    76d4:	e02c      	b.n	7730 <usart_init+0x19c>
    76d6:	2347      	movs	r3, #71	; 0x47
    76d8:	18fb      	adds	r3, r7, r3
    76da:	781a      	ldrb	r2, [r3, #0]
    76dc:	2314      	movs	r3, #20
    76de:	18fb      	adds	r3, r7, r3
    76e0:	0092      	lsls	r2, r2, #2
    76e2:	58d3      	ldr	r3, [r2, r3]
    76e4:	643b      	str	r3, [r7, #64]	; 0x40
    76e6:	6c3b      	ldr	r3, [r7, #64]	; 0x40
    76e8:	2b00      	cmp	r3, #0
    76ea:	d109      	bne.n	7700 <usart_init+0x16c>
    76ec:	2347      	movs	r3, #71	; 0x47
    76ee:	18fb      	adds	r3, r7, r3
    76f0:	781a      	ldrb	r2, [r3, #0]
    76f2:	68bb      	ldr	r3, [r7, #8]
    76f4:	0011      	movs	r1, r2
    76f6:	0018      	movs	r0, r3
    76f8:	4b1b      	ldr	r3, [pc, #108]	; (7768 <usart_init+0x1d4>)
    76fa:	4798      	blx	r3
    76fc:	0003      	movs	r3, r0
    76fe:	643b      	str	r3, [r7, #64]	; 0x40
    7700:	6c3b      	ldr	r3, [r7, #64]	; 0x40
    7702:	3301      	adds	r3, #1
    7704:	d00d      	beq.n	7722 <usart_init+0x18e>
    7706:	6c3b      	ldr	r3, [r7, #64]	; 0x40
    7708:	b2da      	uxtb	r2, r3
    770a:	2324      	movs	r3, #36	; 0x24
    770c:	18fb      	adds	r3, r7, r3
    770e:	701a      	strb	r2, [r3, #0]
    7710:	6c3b      	ldr	r3, [r7, #64]	; 0x40
    7712:	0c1b      	lsrs	r3, r3, #16
    7714:	b2db      	uxtb	r3, r3
    7716:	2224      	movs	r2, #36	; 0x24
    7718:	18ba      	adds	r2, r7, r2
    771a:	0011      	movs	r1, r2
    771c:	0018      	movs	r0, r3
    771e:	4b13      	ldr	r3, [pc, #76]	; (776c <usart_init+0x1d8>)
    7720:	4798      	blx	r3
    7722:	2347      	movs	r3, #71	; 0x47
    7724:	18fb      	adds	r3, r7, r3
    7726:	781a      	ldrb	r2, [r3, #0]
    7728:	2347      	movs	r3, #71	; 0x47
    772a:	18fb      	adds	r3, r7, r3
    772c:	3201      	adds	r2, #1
    772e:	701a      	strb	r2, [r3, #0]
    7730:	2347      	movs	r3, #71	; 0x47
    7732:	18fb      	adds	r3, r7, r3
    7734:	781b      	ldrb	r3, [r3, #0]
    7736:	2b03      	cmp	r3, #3
    7738:	d9cd      	bls.n	76d6 <usart_init+0x142>
    773a:	233f      	movs	r3, #63	; 0x3f
    773c:	18fb      	adds	r3, r7, r3
    773e:	781b      	ldrb	r3, [r3, #0]
    7740:	0018      	movs	r0, r3
    7742:	46bd      	mov	sp, r7
    7744:	b013      	add	sp, #76	; 0x4c
    7746:	bd90      	pop	{r4, r7, pc}
    7748:	00007ced 	.word	0x00007ced
    774c:	000071d1 	.word	0x000071d1
    7750:	000071b9 	.word	0x000071b9
    7754:	00009079 	.word	0x00009079
    7758:	000090bd 	.word	0x000090bd
    775c:	00007aa5 	.word	0x00007aa5
    7760:	000072b9 	.word	0x000072b9
    7764:	0000722d 	.word	0x0000722d
    7768:	00007b31 	.word	0x00007b31
    776c:	000093ad 	.word	0x000093ad

00007770 <system_gclk_chan_get_config_defaults>:
    7770:	b580      	push	{r7, lr}
    7772:	b082      	sub	sp, #8
    7774:	af00      	add	r7, sp, #0
    7776:	6078      	str	r0, [r7, #4]
    7778:	687b      	ldr	r3, [r7, #4]
    777a:	2200      	movs	r2, #0
    777c:	701a      	strb	r2, [r3, #0]
    777e:	46c0      	nop			; (mov r8, r8)
    7780:	46bd      	mov	sp, r7
    7782:	b002      	add	sp, #8
    7784:	bd80      	pop	{r7, pc}

00007786 <long_division>:
    7786:	b5f0      	push	{r4, r5, r6, r7, lr}
    7788:	b08d      	sub	sp, #52	; 0x34
    778a:	af00      	add	r7, sp, #0
    778c:	60b8      	str	r0, [r7, #8]
    778e:	60f9      	str	r1, [r7, #12]
    7790:	603a      	str	r2, [r7, #0]
    7792:	607b      	str	r3, [r7, #4]
    7794:	2300      	movs	r3, #0
    7796:	2400      	movs	r4, #0
    7798:	623b      	str	r3, [r7, #32]
    779a:	627c      	str	r4, [r7, #36]	; 0x24
    779c:	2300      	movs	r3, #0
    779e:	2400      	movs	r4, #0
    77a0:	61bb      	str	r3, [r7, #24]
    77a2:	61fc      	str	r4, [r7, #28]
    77a4:	233f      	movs	r3, #63	; 0x3f
    77a6:	62fb      	str	r3, [r7, #44]	; 0x2c
    77a8:	e053      	b.n	7852 <long_division+0xcc>
    77aa:	6afb      	ldr	r3, [r7, #44]	; 0x2c
    77ac:	3b20      	subs	r3, #32
    77ae:	2b00      	cmp	r3, #0
    77b0:	db04      	blt.n	77bc <long_division+0x36>
    77b2:	2201      	movs	r2, #1
    77b4:	409a      	lsls	r2, r3
    77b6:	0013      	movs	r3, r2
    77b8:	617b      	str	r3, [r7, #20]
    77ba:	e00b      	b.n	77d4 <long_division+0x4e>
    77bc:	6afb      	ldr	r3, [r7, #44]	; 0x2c
    77be:	2220      	movs	r2, #32
    77c0:	1ad3      	subs	r3, r2, r3
    77c2:	2201      	movs	r2, #1
    77c4:	40da      	lsrs	r2, r3
    77c6:	0013      	movs	r3, r2
    77c8:	2100      	movs	r1, #0
    77ca:	6afa      	ldr	r2, [r7, #44]	; 0x2c
    77cc:	4091      	lsls	r1, r2
    77ce:	000a      	movs	r2, r1
    77d0:	4313      	orrs	r3, r2
    77d2:	617b      	str	r3, [r7, #20]
    77d4:	2201      	movs	r2, #1
    77d6:	6afb      	ldr	r3, [r7, #44]	; 0x2c
    77d8:	409a      	lsls	r2, r3
    77da:	0013      	movs	r3, r2
    77dc:	613b      	str	r3, [r7, #16]
    77de:	69bb      	ldr	r3, [r7, #24]
    77e0:	69fc      	ldr	r4, [r7, #28]
    77e2:	18db      	adds	r3, r3, r3
    77e4:	4164      	adcs	r4, r4
    77e6:	61bb      	str	r3, [r7, #24]
    77e8:	61fc      	str	r4, [r7, #28]
    77ea:	68bb      	ldr	r3, [r7, #8]
    77ec:	693a      	ldr	r2, [r7, #16]
    77ee:	401a      	ands	r2, r3
    77f0:	0015      	movs	r5, r2
    77f2:	68fb      	ldr	r3, [r7, #12]
    77f4:	697a      	ldr	r2, [r7, #20]
    77f6:	401a      	ands	r2, r3
    77f8:	0016      	movs	r6, r2
    77fa:	002b      	movs	r3, r5
    77fc:	4333      	orrs	r3, r6
    77fe:	d007      	beq.n	7810 <long_division+0x8a>
    7800:	69bb      	ldr	r3, [r7, #24]
    7802:	2201      	movs	r2, #1
    7804:	4313      	orrs	r3, r2
    7806:	61bb      	str	r3, [r7, #24]
    7808:	69fb      	ldr	r3, [r7, #28]
    780a:	2200      	movs	r2, #0
    780c:	4313      	orrs	r3, r2
    780e:	61fb      	str	r3, [r7, #28]
    7810:	687a      	ldr	r2, [r7, #4]
    7812:	69fb      	ldr	r3, [r7, #28]
    7814:	429a      	cmp	r2, r3
    7816:	d819      	bhi.n	784c <long_division+0xc6>
    7818:	687a      	ldr	r2, [r7, #4]
    781a:	69fb      	ldr	r3, [r7, #28]
    781c:	429a      	cmp	r2, r3
    781e:	d103      	bne.n	7828 <long_division+0xa2>
    7820:	683a      	ldr	r2, [r7, #0]
    7822:	69bb      	ldr	r3, [r7, #24]
    7824:	429a      	cmp	r2, r3
    7826:	d811      	bhi.n	784c <long_division+0xc6>
    7828:	69b9      	ldr	r1, [r7, #24]
    782a:	69fa      	ldr	r2, [r7, #28]
    782c:	683b      	ldr	r3, [r7, #0]
    782e:	687c      	ldr	r4, [r7, #4]
    7830:	1ac9      	subs	r1, r1, r3
    7832:	41a2      	sbcs	r2, r4
    7834:	000b      	movs	r3, r1
    7836:	0014      	movs	r4, r2
    7838:	61bb      	str	r3, [r7, #24]
    783a:	61fc      	str	r4, [r7, #28]
    783c:	6a3a      	ldr	r2, [r7, #32]
    783e:	693b      	ldr	r3, [r7, #16]
    7840:	4313      	orrs	r3, r2
    7842:	623b      	str	r3, [r7, #32]
    7844:	6a7a      	ldr	r2, [r7, #36]	; 0x24
    7846:	697b      	ldr	r3, [r7, #20]
    7848:	4313      	orrs	r3, r2
    784a:	627b      	str	r3, [r7, #36]	; 0x24
    784c:	6afb      	ldr	r3, [r7, #44]	; 0x2c
    784e:	3b01      	subs	r3, #1
    7850:	62fb      	str	r3, [r7, #44]	; 0x2c
    7852:	6afb      	ldr	r3, [r7, #44]	; 0x2c
    7854:	2b00      	cmp	r3, #0
    7856:	daa8      	bge.n	77aa <long_division+0x24>
    7858:	6a3b      	ldr	r3, [r7, #32]
    785a:	6a7c      	ldr	r4, [r7, #36]	; 0x24
    785c:	0018      	movs	r0, r3
    785e:	0021      	movs	r1, r4
    7860:	46bd      	mov	sp, r7
    7862:	b00d      	add	sp, #52	; 0x34
    7864:	bdf0      	pop	{r4, r5, r6, r7, pc}

00007866 <_sercom_get_sync_baud_val>:
    7866:	b580      	push	{r7, lr}
    7868:	b086      	sub	sp, #24
    786a:	af00      	add	r7, sp, #0
    786c:	60f8      	str	r0, [r7, #12]
    786e:	60b9      	str	r1, [r7, #8]
    7870:	607a      	str	r2, [r7, #4]
    7872:	2316      	movs	r3, #22
    7874:	18fb      	adds	r3, r7, r3
    7876:	2200      	movs	r2, #0
    7878:	801a      	strh	r2, [r3, #0]
    787a:	68bb      	ldr	r3, [r7, #8]
    787c:	613b      	str	r3, [r7, #16]
    787e:	68bb      	ldr	r3, [r7, #8]
    7880:	085a      	lsrs	r2, r3, #1
    7882:	68fb      	ldr	r3, [r7, #12]
    7884:	429a      	cmp	r2, r3
    7886:	d201      	bcs.n	788c <_sercom_get_sync_baud_val+0x26>
    7888:	2340      	movs	r3, #64	; 0x40
    788a:	e026      	b.n	78da <_sercom_get_sync_baud_val+0x74>
    788c:	68bb      	ldr	r3, [r7, #8]
    788e:	085b      	lsrs	r3, r3, #1
    7890:	613b      	str	r3, [r7, #16]
    7892:	e00a      	b.n	78aa <_sercom_get_sync_baud_val+0x44>
    7894:	693a      	ldr	r2, [r7, #16]
    7896:	68fb      	ldr	r3, [r7, #12]
    7898:	1ad3      	subs	r3, r2, r3
    789a:	613b      	str	r3, [r7, #16]
    789c:	2316      	movs	r3, #22
    789e:	18fb      	adds	r3, r7, r3
    78a0:	881a      	ldrh	r2, [r3, #0]
    78a2:	2316      	movs	r3, #22
    78a4:	18fb      	adds	r3, r7, r3
    78a6:	3201      	adds	r2, #1
    78a8:	801a      	strh	r2, [r3, #0]
    78aa:	693a      	ldr	r2, [r7, #16]
    78ac:	68fb      	ldr	r3, [r7, #12]
    78ae:	429a      	cmp	r2, r3
    78b0:	d2f0      	bcs.n	7894 <_sercom_get_sync_baud_val+0x2e>
    78b2:	2316      	movs	r3, #22
    78b4:	18fb      	adds	r3, r7, r3
    78b6:	2216      	movs	r2, #22
    78b8:	18ba      	adds	r2, r7, r2
    78ba:	8812      	ldrh	r2, [r2, #0]
    78bc:	3a01      	subs	r2, #1
    78be:	801a      	strh	r2, [r3, #0]
    78c0:	2316      	movs	r3, #22
    78c2:	18fb      	adds	r3, r7, r3
    78c4:	881b      	ldrh	r3, [r3, #0]
    78c6:	2bff      	cmp	r3, #255	; 0xff
    78c8:	d901      	bls.n	78ce <_sercom_get_sync_baud_val+0x68>
    78ca:	2340      	movs	r3, #64	; 0x40
    78cc:	e005      	b.n	78da <_sercom_get_sync_baud_val+0x74>
    78ce:	687b      	ldr	r3, [r7, #4]
    78d0:	2216      	movs	r2, #22
    78d2:	18ba      	adds	r2, r7, r2
    78d4:	8812      	ldrh	r2, [r2, #0]
    78d6:	801a      	strh	r2, [r3, #0]
    78d8:	2300      	movs	r3, #0
    78da:	0018      	movs	r0, r3
    78dc:	46bd      	mov	sp, r7
    78de:	b006      	add	sp, #24
    78e0:	bd80      	pop	{r7, pc}
	...

000078e4 <_sercom_get_async_baud_val>:
    78e4:	b5f0      	push	{r4, r5, r6, r7, lr}
    78e6:	b0a1      	sub	sp, #132	; 0x84
    78e8:	af00      	add	r7, sp, #0
    78ea:	64f8      	str	r0, [r7, #76]	; 0x4c
    78ec:	64b9      	str	r1, [r7, #72]	; 0x48
    78ee:	647a      	str	r2, [r7, #68]	; 0x44
    78f0:	2243      	movs	r2, #67	; 0x43
    78f2:	18ba      	adds	r2, r7, r2
    78f4:	7013      	strb	r3, [r2, #0]
    78f6:	2300      	movs	r3, #0
    78f8:	2400      	movs	r4, #0
    78fa:	673b      	str	r3, [r7, #112]	; 0x70
    78fc:	677c      	str	r4, [r7, #116]	; 0x74
    78fe:	2300      	movs	r3, #0
    7900:	2400      	movs	r4, #0
    7902:	66bb      	str	r3, [r7, #104]	; 0x68
    7904:	66fc      	str	r4, [r7, #108]	; 0x6c
    7906:	2300      	movs	r3, #0
    7908:	2400      	movs	r4, #0
    790a:	67bb      	str	r3, [r7, #120]	; 0x78
    790c:	67fc      	str	r4, [r7, #124]	; 0x7c
    790e:	2300      	movs	r3, #0
    7910:	667b      	str	r3, [r7, #100]	; 0x64
    7912:	2358      	movs	r3, #88	; 0x58
    7914:	2240      	movs	r2, #64	; 0x40
    7916:	4694      	mov	ip, r2
    7918:	44bc      	add	ip, r7
    791a:	4463      	add	r3, ip
    791c:	781a      	ldrb	r2, [r3, #0]
    791e:	6cfb      	ldr	r3, [r7, #76]	; 0x4c
    7920:	435a      	muls	r2, r3
    7922:	6cbb      	ldr	r3, [r7, #72]	; 0x48
    7924:	429a      	cmp	r2, r3
    7926:	d901      	bls.n	792c <_sercom_get_async_baud_val+0x48>
    7928:	2340      	movs	r3, #64	; 0x40
    792a:	e0b3      	b.n	7a94 <_sercom_get_async_baud_val+0x1b0>
    792c:	2343      	movs	r3, #67	; 0x43
    792e:	18fb      	adds	r3, r7, r3
    7930:	781b      	ldrb	r3, [r3, #0]
    7932:	2b00      	cmp	r3, #0
    7934:	d13d      	bne.n	79b2 <_sercom_get_async_baud_val+0xce>
    7936:	2358      	movs	r3, #88	; 0x58
    7938:	2240      	movs	r2, #64	; 0x40
    793a:	4694      	mov	ip, r2
    793c:	44bc      	add	ip, r7
    793e:	4463      	add	r3, ip
    7940:	781b      	ldrb	r3, [r3, #0]
    7942:	b2db      	uxtb	r3, r3
    7944:	613b      	str	r3, [r7, #16]
    7946:	2300      	movs	r3, #0
    7948:	617b      	str	r3, [r7, #20]
    794a:	6cfb      	ldr	r3, [r7, #76]	; 0x4c
    794c:	60bb      	str	r3, [r7, #8]
    794e:	2300      	movs	r3, #0
    7950:	60fb      	str	r3, [r7, #12]
    7952:	4c52      	ldr	r4, [pc, #328]	; (7a9c <_sercom_get_async_baud_val+0x1b8>)
    7954:	68ba      	ldr	r2, [r7, #8]
    7956:	68fb      	ldr	r3, [r7, #12]
    7958:	6938      	ldr	r0, [r7, #16]
    795a:	6979      	ldr	r1, [r7, #20]
    795c:	47a0      	blx	r4
    795e:	0003      	movs	r3, r0
    7960:	000c      	movs	r4, r1
    7962:	001b      	movs	r3, r3
    7964:	65fb      	str	r3, [r7, #92]	; 0x5c
    7966:	2300      	movs	r3, #0
    7968:	65bb      	str	r3, [r7, #88]	; 0x58
    796a:	6cbb      	ldr	r3, [r7, #72]	; 0x48
    796c:	603b      	str	r3, [r7, #0]
    796e:	2300      	movs	r3, #0
    7970:	607b      	str	r3, [r7, #4]
    7972:	6db8      	ldr	r0, [r7, #88]	; 0x58
    7974:	6df9      	ldr	r1, [r7, #92]	; 0x5c
    7976:	683a      	ldr	r2, [r7, #0]
    7978:	687b      	ldr	r3, [r7, #4]
    797a:	4c49      	ldr	r4, [pc, #292]	; (7aa0 <_sercom_get_async_baud_val+0x1bc>)
    797c:	47a0      	blx	r4
    797e:	0003      	movs	r3, r0
    7980:	000c      	movs	r4, r1
    7982:	673b      	str	r3, [r7, #112]	; 0x70
    7984:	677c      	str	r4, [r7, #116]	; 0x74
    7986:	2100      	movs	r1, #0
    7988:	2201      	movs	r2, #1
    798a:	6f3b      	ldr	r3, [r7, #112]	; 0x70
    798c:	6f7c      	ldr	r4, [r7, #116]	; 0x74
    798e:	1ac9      	subs	r1, r1, r3
    7990:	41a2      	sbcs	r2, r4
    7992:	000b      	movs	r3, r1
    7994:	0014      	movs	r4, r2
    7996:	66bb      	str	r3, [r7, #104]	; 0x68
    7998:	66fc      	str	r4, [r7, #108]	; 0x6c
    799a:	6ebb      	ldr	r3, [r7, #104]	; 0x68
    799c:	0c1b      	lsrs	r3, r3, #16
    799e:	6efa      	ldr	r2, [r7, #108]	; 0x6c
    79a0:	0416      	lsls	r6, r2, #16
    79a2:	431e      	orrs	r6, r3
    79a4:	6ebb      	ldr	r3, [r7, #104]	; 0x68
    79a6:	041d      	lsls	r5, r3, #16
    79a8:	0033      	movs	r3, r6
    79aa:	67bb      	str	r3, [r7, #120]	; 0x78
    79ac:	2300      	movs	r3, #0
    79ae:	67fb      	str	r3, [r7, #124]	; 0x7c
    79b0:	e06a      	b.n	7a88 <_sercom_get_async_baud_val+0x1a4>
    79b2:	2343      	movs	r3, #67	; 0x43
    79b4:	18fb      	adds	r3, r7, r3
    79b6:	781b      	ldrb	r3, [r3, #0]
    79b8:	2b01      	cmp	r3, #1
    79ba:	d165      	bne.n	7a88 <_sercom_get_async_baud_val+0x1a4>
    79bc:	6cfb      	ldr	r3, [r7, #76]	; 0x4c
    79be:	633b      	str	r3, [r7, #48]	; 0x30
    79c0:	2300      	movs	r3, #0
    79c2:	637b      	str	r3, [r7, #52]	; 0x34
    79c4:	2358      	movs	r3, #88	; 0x58
    79c6:	2240      	movs	r2, #64	; 0x40
    79c8:	4694      	mov	ip, r2
    79ca:	44bc      	add	ip, r7
    79cc:	4463      	add	r3, ip
    79ce:	781b      	ldrb	r3, [r3, #0]
    79d0:	b2db      	uxtb	r3, r3
    79d2:	62bb      	str	r3, [r7, #40]	; 0x28
    79d4:	2300      	movs	r3, #0
    79d6:	62fb      	str	r3, [r7, #44]	; 0x2c
    79d8:	4c30      	ldr	r4, [pc, #192]	; (7a9c <_sercom_get_async_baud_val+0x1b8>)
    79da:	6aba      	ldr	r2, [r7, #40]	; 0x28
    79dc:	6afb      	ldr	r3, [r7, #44]	; 0x2c
    79de:	6b38      	ldr	r0, [r7, #48]	; 0x30
    79e0:	6b79      	ldr	r1, [r7, #52]	; 0x34
    79e2:	47a0      	blx	r4
    79e4:	0003      	movs	r3, r0
    79e6:	000c      	movs	r4, r1
    79e8:	65bb      	str	r3, [r7, #88]	; 0x58
    79ea:	65fc      	str	r4, [r7, #92]	; 0x5c
    79ec:	6cbb      	ldr	r3, [r7, #72]	; 0x48
    79ee:	623b      	str	r3, [r7, #32]
    79f0:	2300      	movs	r3, #0
    79f2:	627b      	str	r3, [r7, #36]	; 0x24
    79f4:	6dbb      	ldr	r3, [r7, #88]	; 0x58
    79f6:	6dfc      	ldr	r4, [r7, #92]	; 0x5c
    79f8:	001a      	movs	r2, r3
    79fa:	0023      	movs	r3, r4
    79fc:	6a38      	ldr	r0, [r7, #32]
    79fe:	6a79      	ldr	r1, [r7, #36]	; 0x24
    7a00:	4c27      	ldr	r4, [pc, #156]	; (7aa0 <_sercom_get_async_baud_val+0x1bc>)
    7a02:	47a0      	blx	r4
    7a04:	0003      	movs	r3, r0
    7a06:	000c      	movs	r4, r1
    7a08:	667b      	str	r3, [r7, #100]	; 0x64
    7a0a:	6e7a      	ldr	r2, [r7, #100]	; 0x64
    7a0c:	2380      	movs	r3, #128	; 0x80
    7a0e:	019b      	lsls	r3, r3, #6
    7a10:	429a      	cmp	r2, r3
    7a12:	d901      	bls.n	7a18 <_sercom_get_async_baud_val+0x134>
    7a14:	2340      	movs	r3, #64	; 0x40
    7a16:	e03d      	b.n	7a94 <_sercom_get_async_baud_val+0x1b0>
    7a18:	6cbb      	ldr	r3, [r7, #72]	; 0x48
    7a1a:	61bb      	str	r3, [r7, #24]
    7a1c:	2300      	movs	r3, #0
    7a1e:	61fb      	str	r3, [r7, #28]
    7a20:	69b9      	ldr	r1, [r7, #24]
    7a22:	69fa      	ldr	r2, [r7, #28]
    7a24:	000b      	movs	r3, r1
    7a26:	0f5b      	lsrs	r3, r3, #29
    7a28:	0010      	movs	r0, r2
    7a2a:	00c0      	lsls	r0, r0, #3
    7a2c:	63f8      	str	r0, [r7, #60]	; 0x3c
    7a2e:	6bf8      	ldr	r0, [r7, #60]	; 0x3c
    7a30:	4318      	orrs	r0, r3
    7a32:	63f8      	str	r0, [r7, #60]	; 0x3c
    7a34:	000b      	movs	r3, r1
    7a36:	00db      	lsls	r3, r3, #3
    7a38:	63bb      	str	r3, [r7, #56]	; 0x38
    7a3a:	6dbb      	ldr	r3, [r7, #88]	; 0x58
    7a3c:	6dfc      	ldr	r4, [r7, #92]	; 0x5c
    7a3e:	001a      	movs	r2, r3
    7a40:	0023      	movs	r3, r4
    7a42:	6bb8      	ldr	r0, [r7, #56]	; 0x38
    7a44:	6bf9      	ldr	r1, [r7, #60]	; 0x3c
    7a46:	4c16      	ldr	r4, [pc, #88]	; (7aa0 <_sercom_get_async_baud_val+0x1bc>)
    7a48:	47a0      	blx	r4
    7a4a:	0003      	movs	r3, r0
    7a4c:	000c      	movs	r4, r1
    7a4e:	65bb      	str	r3, [r7, #88]	; 0x58
    7a50:	65fc      	str	r4, [r7, #92]	; 0x5c
    7a52:	6dbb      	ldr	r3, [r7, #88]	; 0x58
    7a54:	6dfc      	ldr	r4, [r7, #92]	; 0x5c
    7a56:	b2d9      	uxtb	r1, r3
    7a58:	6e7b      	ldr	r3, [r7, #100]	; 0x64
    7a5a:	b2db      	uxtb	r3, r3
    7a5c:	00db      	lsls	r3, r3, #3
    7a5e:	b2da      	uxtb	r2, r3
    7a60:	2317      	movs	r3, #23
    7a62:	2040      	movs	r0, #64	; 0x40
    7a64:	4684      	mov	ip, r0
    7a66:	44bc      	add	ip, r7
    7a68:	4463      	add	r3, ip
    7a6a:	1a8a      	subs	r2, r1, r2
    7a6c:	701a      	strb	r2, [r3, #0]
    7a6e:	2317      	movs	r3, #23
    7a70:	2240      	movs	r2, #64	; 0x40
    7a72:	4694      	mov	ip, r2
    7a74:	44bc      	add	ip, r7
    7a76:	4463      	add	r3, ip
    7a78:	781b      	ldrb	r3, [r3, #0]
    7a7a:	035b      	lsls	r3, r3, #13
    7a7c:	001a      	movs	r2, r3
    7a7e:	6e7b      	ldr	r3, [r7, #100]	; 0x64
    7a80:	4313      	orrs	r3, r2
    7a82:	67bb      	str	r3, [r7, #120]	; 0x78
    7a84:	2300      	movs	r3, #0
    7a86:	67fb      	str	r3, [r7, #124]	; 0x7c
    7a88:	6fbb      	ldr	r3, [r7, #120]	; 0x78
    7a8a:	6ffc      	ldr	r4, [r7, #124]	; 0x7c
    7a8c:	b29a      	uxth	r2, r3
    7a8e:	6c7b      	ldr	r3, [r7, #68]	; 0x44
    7a90:	801a      	strh	r2, [r3, #0]
    7a92:	2300      	movs	r3, #0
    7a94:	0018      	movs	r0, r3
    7a96:	46bd      	mov	sp, r7
    7a98:	b021      	add	sp, #132	; 0x84
    7a9a:	bdf0      	pop	{r4, r5, r6, r7, pc}
    7a9c:	00010075 	.word	0x00010075
    7aa0:	00007787 	.word	0x00007787

00007aa4 <sercom_set_gclk_generator>:
    7aa4:	b580      	push	{r7, lr}
    7aa6:	b084      	sub	sp, #16
    7aa8:	af00      	add	r7, sp, #0
    7aaa:	0002      	movs	r2, r0
    7aac:	1dfb      	adds	r3, r7, #7
    7aae:	701a      	strb	r2, [r3, #0]
    7ab0:	1dbb      	adds	r3, r7, #6
    7ab2:	1c0a      	adds	r2, r1, #0
    7ab4:	701a      	strb	r2, [r3, #0]
    7ab6:	4b1a      	ldr	r3, [pc, #104]	; (7b20 <sercom_set_gclk_generator+0x7c>)
    7ab8:	781b      	ldrb	r3, [r3, #0]
    7aba:	2201      	movs	r2, #1
    7abc:	4053      	eors	r3, r2
    7abe:	b2db      	uxtb	r3, r3
    7ac0:	2b00      	cmp	r3, #0
    7ac2:	d103      	bne.n	7acc <sercom_set_gclk_generator+0x28>
    7ac4:	1dbb      	adds	r3, r7, #6
    7ac6:	781b      	ldrb	r3, [r3, #0]
    7ac8:	2b00      	cmp	r3, #0
    7aca:	d01b      	beq.n	7b04 <sercom_set_gclk_generator+0x60>
    7acc:	230c      	movs	r3, #12
    7ace:	18fb      	adds	r3, r7, r3
    7ad0:	0018      	movs	r0, r3
    7ad2:	4b14      	ldr	r3, [pc, #80]	; (7b24 <sercom_set_gclk_generator+0x80>)
    7ad4:	4798      	blx	r3
    7ad6:	230c      	movs	r3, #12
    7ad8:	18fb      	adds	r3, r7, r3
    7ada:	1dfa      	adds	r2, r7, #7
    7adc:	7812      	ldrb	r2, [r2, #0]
    7ade:	701a      	strb	r2, [r3, #0]
    7ae0:	230c      	movs	r3, #12
    7ae2:	18fb      	adds	r3, r7, r3
    7ae4:	0019      	movs	r1, r3
    7ae6:	2013      	movs	r0, #19
    7ae8:	4b0f      	ldr	r3, [pc, #60]	; (7b28 <sercom_set_gclk_generator+0x84>)
    7aea:	4798      	blx	r3
    7aec:	2013      	movs	r0, #19
    7aee:	4b0f      	ldr	r3, [pc, #60]	; (7b2c <sercom_set_gclk_generator+0x88>)
    7af0:	4798      	blx	r3
    7af2:	4b0b      	ldr	r3, [pc, #44]	; (7b20 <sercom_set_gclk_generator+0x7c>)
    7af4:	1dfa      	adds	r2, r7, #7
    7af6:	7812      	ldrb	r2, [r2, #0]
    7af8:	705a      	strb	r2, [r3, #1]
    7afa:	4b09      	ldr	r3, [pc, #36]	; (7b20 <sercom_set_gclk_generator+0x7c>)
    7afc:	2201      	movs	r2, #1
    7afe:	701a      	strb	r2, [r3, #0]
    7b00:	2300      	movs	r3, #0
    7b02:	e008      	b.n	7b16 <sercom_set_gclk_generator+0x72>
    7b04:	4b06      	ldr	r3, [pc, #24]	; (7b20 <sercom_set_gclk_generator+0x7c>)
    7b06:	785b      	ldrb	r3, [r3, #1]
    7b08:	1dfa      	adds	r2, r7, #7
    7b0a:	7812      	ldrb	r2, [r2, #0]
    7b0c:	429a      	cmp	r2, r3
    7b0e:	d101      	bne.n	7b14 <sercom_set_gclk_generator+0x70>
    7b10:	2300      	movs	r3, #0
    7b12:	e000      	b.n	7b16 <sercom_set_gclk_generator+0x72>
    7b14:	231d      	movs	r3, #29
    7b16:	0018      	movs	r0, r3
    7b18:	46bd      	mov	sp, r7
    7b1a:	b004      	add	sp, #16
    7b1c:	bd80      	pop	{r7, pc}
    7b1e:	46c0      	nop			; (mov r8, r8)
    7b20:	20000564 	.word	0x20000564
    7b24:	00007771 	.word	0x00007771
    7b28:	00009079 	.word	0x00009079
    7b2c:	000090bd 	.word	0x000090bd

00007b30 <_sercom_get_default_pad>:
    7b30:	b580      	push	{r7, lr}
    7b32:	b082      	sub	sp, #8
    7b34:	af00      	add	r7, sp, #0
    7b36:	6078      	str	r0, [r7, #4]
    7b38:	000a      	movs	r2, r1
    7b3a:	1cfb      	adds	r3, r7, #3
    7b3c:	701a      	strb	r2, [r3, #0]
    7b3e:	687b      	ldr	r3, [r7, #4]
    7b40:	4a4d      	ldr	r2, [pc, #308]	; (7c78 <_sercom_get_default_pad+0x148>)
    7b42:	4293      	cmp	r3, r2
    7b44:	d03f      	beq.n	7bc6 <_sercom_get_default_pad+0x96>
    7b46:	4a4c      	ldr	r2, [pc, #304]	; (7c78 <_sercom_get_default_pad+0x148>)
    7b48:	4293      	cmp	r3, r2
    7b4a:	d806      	bhi.n	7b5a <_sercom_get_default_pad+0x2a>
    7b4c:	4a4b      	ldr	r2, [pc, #300]	; (7c7c <_sercom_get_default_pad+0x14c>)
    7b4e:	4293      	cmp	r3, r2
    7b50:	d00f      	beq.n	7b72 <_sercom_get_default_pad+0x42>
    7b52:	4a4b      	ldr	r2, [pc, #300]	; (7c80 <_sercom_get_default_pad+0x150>)
    7b54:	4293      	cmp	r3, r2
    7b56:	d021      	beq.n	7b9c <_sercom_get_default_pad+0x6c>
    7b58:	e089      	b.n	7c6e <_sercom_get_default_pad+0x13e>
    7b5a:	4a4a      	ldr	r2, [pc, #296]	; (7c84 <_sercom_get_default_pad+0x154>)
    7b5c:	4293      	cmp	r3, r2
    7b5e:	d100      	bne.n	7b62 <_sercom_get_default_pad+0x32>
    7b60:	e05b      	b.n	7c1a <_sercom_get_default_pad+0xea>
    7b62:	4a49      	ldr	r2, [pc, #292]	; (7c88 <_sercom_get_default_pad+0x158>)
    7b64:	4293      	cmp	r3, r2
    7b66:	d100      	bne.n	7b6a <_sercom_get_default_pad+0x3a>
    7b68:	e06c      	b.n	7c44 <_sercom_get_default_pad+0x114>
    7b6a:	4a48      	ldr	r2, [pc, #288]	; (7c8c <_sercom_get_default_pad+0x15c>)
    7b6c:	4293      	cmp	r3, r2
    7b6e:	d03f      	beq.n	7bf0 <_sercom_get_default_pad+0xc0>
    7b70:	e07d      	b.n	7c6e <_sercom_get_default_pad+0x13e>
    7b72:	1cfb      	adds	r3, r7, #3
    7b74:	781b      	ldrb	r3, [r3, #0]
    7b76:	2b01      	cmp	r3, #1
    7b78:	d00a      	beq.n	7b90 <_sercom_get_default_pad+0x60>
    7b7a:	dc02      	bgt.n	7b82 <_sercom_get_default_pad+0x52>
    7b7c:	2b00      	cmp	r3, #0
    7b7e:	d005      	beq.n	7b8c <_sercom_get_default_pad+0x5c>
    7b80:	e075      	b.n	7c6e <_sercom_get_default_pad+0x13e>
    7b82:	2b02      	cmp	r3, #2
    7b84:	d006      	beq.n	7b94 <_sercom_get_default_pad+0x64>
    7b86:	2b03      	cmp	r3, #3
    7b88:	d006      	beq.n	7b98 <_sercom_get_default_pad+0x68>
    7b8a:	e070      	b.n	7c6e <_sercom_get_default_pad+0x13e>
    7b8c:	4b40      	ldr	r3, [pc, #256]	; (7c90 <_sercom_get_default_pad+0x160>)
    7b8e:	e06f      	b.n	7c70 <_sercom_get_default_pad+0x140>
    7b90:	4b40      	ldr	r3, [pc, #256]	; (7c94 <_sercom_get_default_pad+0x164>)
    7b92:	e06d      	b.n	7c70 <_sercom_get_default_pad+0x140>
    7b94:	4b40      	ldr	r3, [pc, #256]	; (7c98 <_sercom_get_default_pad+0x168>)
    7b96:	e06b      	b.n	7c70 <_sercom_get_default_pad+0x140>
    7b98:	4b40      	ldr	r3, [pc, #256]	; (7c9c <_sercom_get_default_pad+0x16c>)
    7b9a:	e069      	b.n	7c70 <_sercom_get_default_pad+0x140>
    7b9c:	1cfb      	adds	r3, r7, #3
    7b9e:	781b      	ldrb	r3, [r3, #0]
    7ba0:	2b01      	cmp	r3, #1
    7ba2:	d00a      	beq.n	7bba <_sercom_get_default_pad+0x8a>
    7ba4:	dc02      	bgt.n	7bac <_sercom_get_default_pad+0x7c>
    7ba6:	2b00      	cmp	r3, #0
    7ba8:	d005      	beq.n	7bb6 <_sercom_get_default_pad+0x86>
    7baa:	e060      	b.n	7c6e <_sercom_get_default_pad+0x13e>
    7bac:	2b02      	cmp	r3, #2
    7bae:	d006      	beq.n	7bbe <_sercom_get_default_pad+0x8e>
    7bb0:	2b03      	cmp	r3, #3
    7bb2:	d006      	beq.n	7bc2 <_sercom_get_default_pad+0x92>
    7bb4:	e05b      	b.n	7c6e <_sercom_get_default_pad+0x13e>
    7bb6:	2303      	movs	r3, #3
    7bb8:	e05a      	b.n	7c70 <_sercom_get_default_pad+0x140>
    7bba:	4b39      	ldr	r3, [pc, #228]	; (7ca0 <_sercom_get_default_pad+0x170>)
    7bbc:	e058      	b.n	7c70 <_sercom_get_default_pad+0x140>
    7bbe:	4b39      	ldr	r3, [pc, #228]	; (7ca4 <_sercom_get_default_pad+0x174>)
    7bc0:	e056      	b.n	7c70 <_sercom_get_default_pad+0x140>
    7bc2:	4b39      	ldr	r3, [pc, #228]	; (7ca8 <_sercom_get_default_pad+0x178>)
    7bc4:	e054      	b.n	7c70 <_sercom_get_default_pad+0x140>
    7bc6:	1cfb      	adds	r3, r7, #3
    7bc8:	781b      	ldrb	r3, [r3, #0]
    7bca:	2b01      	cmp	r3, #1
    7bcc:	d00a      	beq.n	7be4 <_sercom_get_default_pad+0xb4>
    7bce:	dc02      	bgt.n	7bd6 <_sercom_get_default_pad+0xa6>
    7bd0:	2b00      	cmp	r3, #0
    7bd2:	d005      	beq.n	7be0 <_sercom_get_default_pad+0xb0>
    7bd4:	e04b      	b.n	7c6e <_sercom_get_default_pad+0x13e>
    7bd6:	2b02      	cmp	r3, #2
    7bd8:	d006      	beq.n	7be8 <_sercom_get_default_pad+0xb8>
    7bda:	2b03      	cmp	r3, #3
    7bdc:	d006      	beq.n	7bec <_sercom_get_default_pad+0xbc>
    7bde:	e046      	b.n	7c6e <_sercom_get_default_pad+0x13e>
    7be0:	4b32      	ldr	r3, [pc, #200]	; (7cac <_sercom_get_default_pad+0x17c>)
    7be2:	e045      	b.n	7c70 <_sercom_get_default_pad+0x140>
    7be4:	4b32      	ldr	r3, [pc, #200]	; (7cb0 <_sercom_get_default_pad+0x180>)
    7be6:	e043      	b.n	7c70 <_sercom_get_default_pad+0x140>
    7be8:	4b32      	ldr	r3, [pc, #200]	; (7cb4 <_sercom_get_default_pad+0x184>)
    7bea:	e041      	b.n	7c70 <_sercom_get_default_pad+0x140>
    7bec:	4b32      	ldr	r3, [pc, #200]	; (7cb8 <_sercom_get_default_pad+0x188>)
    7bee:	e03f      	b.n	7c70 <_sercom_get_default_pad+0x140>
    7bf0:	1cfb      	adds	r3, r7, #3
    7bf2:	781b      	ldrb	r3, [r3, #0]
    7bf4:	2b01      	cmp	r3, #1
    7bf6:	d00a      	beq.n	7c0e <_sercom_get_default_pad+0xde>
    7bf8:	dc02      	bgt.n	7c00 <_sercom_get_default_pad+0xd0>
    7bfa:	2b00      	cmp	r3, #0
    7bfc:	d005      	beq.n	7c0a <_sercom_get_default_pad+0xda>
    7bfe:	e036      	b.n	7c6e <_sercom_get_default_pad+0x13e>
    7c00:	2b02      	cmp	r3, #2
    7c02:	d006      	beq.n	7c12 <_sercom_get_default_pad+0xe2>
    7c04:	2b03      	cmp	r3, #3
    7c06:	d006      	beq.n	7c16 <_sercom_get_default_pad+0xe6>
    7c08:	e031      	b.n	7c6e <_sercom_get_default_pad+0x13e>
    7c0a:	4b2c      	ldr	r3, [pc, #176]	; (7cbc <_sercom_get_default_pad+0x18c>)
    7c0c:	e030      	b.n	7c70 <_sercom_get_default_pad+0x140>
    7c0e:	4b2c      	ldr	r3, [pc, #176]	; (7cc0 <_sercom_get_default_pad+0x190>)
    7c10:	e02e      	b.n	7c70 <_sercom_get_default_pad+0x140>
    7c12:	4b2c      	ldr	r3, [pc, #176]	; (7cc4 <_sercom_get_default_pad+0x194>)
    7c14:	e02c      	b.n	7c70 <_sercom_get_default_pad+0x140>
    7c16:	4b2c      	ldr	r3, [pc, #176]	; (7cc8 <_sercom_get_default_pad+0x198>)
    7c18:	e02a      	b.n	7c70 <_sercom_get_default_pad+0x140>
    7c1a:	1cfb      	adds	r3, r7, #3
    7c1c:	781b      	ldrb	r3, [r3, #0]
    7c1e:	2b01      	cmp	r3, #1
    7c20:	d00a      	beq.n	7c38 <_sercom_get_default_pad+0x108>
    7c22:	dc02      	bgt.n	7c2a <_sercom_get_default_pad+0xfa>
    7c24:	2b00      	cmp	r3, #0
    7c26:	d005      	beq.n	7c34 <_sercom_get_default_pad+0x104>
    7c28:	e021      	b.n	7c6e <_sercom_get_default_pad+0x13e>
    7c2a:	2b02      	cmp	r3, #2
    7c2c:	d006      	beq.n	7c3c <_sercom_get_default_pad+0x10c>
    7c2e:	2b03      	cmp	r3, #3
    7c30:	d006      	beq.n	7c40 <_sercom_get_default_pad+0x110>
    7c32:	e01c      	b.n	7c6e <_sercom_get_default_pad+0x13e>
    7c34:	4b25      	ldr	r3, [pc, #148]	; (7ccc <_sercom_get_default_pad+0x19c>)
    7c36:	e01b      	b.n	7c70 <_sercom_get_default_pad+0x140>
    7c38:	4b25      	ldr	r3, [pc, #148]	; (7cd0 <_sercom_get_default_pad+0x1a0>)
    7c3a:	e019      	b.n	7c70 <_sercom_get_default_pad+0x140>
    7c3c:	4b25      	ldr	r3, [pc, #148]	; (7cd4 <_sercom_get_default_pad+0x1a4>)
    7c3e:	e017      	b.n	7c70 <_sercom_get_default_pad+0x140>
    7c40:	4b25      	ldr	r3, [pc, #148]	; (7cd8 <_sercom_get_default_pad+0x1a8>)
    7c42:	e015      	b.n	7c70 <_sercom_get_default_pad+0x140>
    7c44:	1cfb      	adds	r3, r7, #3
    7c46:	781b      	ldrb	r3, [r3, #0]
    7c48:	2b01      	cmp	r3, #1
    7c4a:	d00a      	beq.n	7c62 <_sercom_get_default_pad+0x132>
    7c4c:	dc02      	bgt.n	7c54 <_sercom_get_default_pad+0x124>
    7c4e:	2b00      	cmp	r3, #0
    7c50:	d005      	beq.n	7c5e <_sercom_get_default_pad+0x12e>
    7c52:	e00c      	b.n	7c6e <_sercom_get_default_pad+0x13e>
    7c54:	2b02      	cmp	r3, #2
    7c56:	d006      	beq.n	7c66 <_sercom_get_default_pad+0x136>
    7c58:	2b03      	cmp	r3, #3
    7c5a:	d006      	beq.n	7c6a <_sercom_get_default_pad+0x13a>
    7c5c:	e007      	b.n	7c6e <_sercom_get_default_pad+0x13e>
    7c5e:	4b1f      	ldr	r3, [pc, #124]	; (7cdc <_sercom_get_default_pad+0x1ac>)
    7c60:	e006      	b.n	7c70 <_sercom_get_default_pad+0x140>
    7c62:	4b1f      	ldr	r3, [pc, #124]	; (7ce0 <_sercom_get_default_pad+0x1b0>)
    7c64:	e004      	b.n	7c70 <_sercom_get_default_pad+0x140>
    7c66:	4b1f      	ldr	r3, [pc, #124]	; (7ce4 <_sercom_get_default_pad+0x1b4>)
    7c68:	e002      	b.n	7c70 <_sercom_get_default_pad+0x140>
    7c6a:	4b1f      	ldr	r3, [pc, #124]	; (7ce8 <_sercom_get_default_pad+0x1b8>)
    7c6c:	e000      	b.n	7c70 <_sercom_get_default_pad+0x140>
    7c6e:	2300      	movs	r3, #0
    7c70:	0018      	movs	r0, r3
    7c72:	46bd      	mov	sp, r7
    7c74:	b002      	add	sp, #8
    7c76:	bd80      	pop	{r7, pc}
    7c78:	42001000 	.word	0x42001000
    7c7c:	42000800 	.word	0x42000800
    7c80:	42000c00 	.word	0x42000c00
    7c84:	42001800 	.word	0x42001800
    7c88:	42001c00 	.word	0x42001c00
    7c8c:	42001400 	.word	0x42001400
    7c90:	00040003 	.word	0x00040003
    7c94:	00050003 	.word	0x00050003
    7c98:	00060003 	.word	0x00060003
    7c9c:	00070003 	.word	0x00070003
    7ca0:	00010003 	.word	0x00010003
    7ca4:	001e0003 	.word	0x001e0003
    7ca8:	001f0003 	.word	0x001f0003
    7cac:	00080003 	.word	0x00080003
    7cb0:	00090003 	.word	0x00090003
    7cb4:	000a0003 	.word	0x000a0003
    7cb8:	000b0003 	.word	0x000b0003
    7cbc:	00100003 	.word	0x00100003
    7cc0:	00110003 	.word	0x00110003
    7cc4:	00120003 	.word	0x00120003
    7cc8:	00130003 	.word	0x00130003
    7ccc:	000c0003 	.word	0x000c0003
    7cd0:	000d0003 	.word	0x000d0003
    7cd4:	000e0003 	.word	0x000e0003
    7cd8:	000f0003 	.word	0x000f0003
    7cdc:	00160003 	.word	0x00160003
    7ce0:	00170003 	.word	0x00170003
    7ce4:	00180003 	.word	0x00180003
    7ce8:	00190003 	.word	0x00190003

00007cec <_sercom_get_sercom_inst_index>:
    7cec:	b590      	push	{r4, r7, lr}
    7cee:	b08b      	sub	sp, #44	; 0x2c
    7cf0:	af00      	add	r7, sp, #0
    7cf2:	6078      	str	r0, [r7, #4]
    7cf4:	230c      	movs	r3, #12
    7cf6:	18fb      	adds	r3, r7, r3
    7cf8:	4a0f      	ldr	r2, [pc, #60]	; (7d38 <_sercom_get_sercom_inst_index+0x4c>)
    7cfa:	ca13      	ldmia	r2!, {r0, r1, r4}
    7cfc:	c313      	stmia	r3!, {r0, r1, r4}
    7cfe:	ca13      	ldmia	r2!, {r0, r1, r4}
    7d00:	c313      	stmia	r3!, {r0, r1, r4}
    7d02:	2300      	movs	r3, #0
    7d04:	627b      	str	r3, [r7, #36]	; 0x24
    7d06:	e00e      	b.n	7d26 <_sercom_get_sercom_inst_index+0x3a>
    7d08:	230c      	movs	r3, #12
    7d0a:	18fb      	adds	r3, r7, r3
    7d0c:	6a7a      	ldr	r2, [r7, #36]	; 0x24
    7d0e:	0092      	lsls	r2, r2, #2
    7d10:	58d3      	ldr	r3, [r2, r3]
    7d12:	001a      	movs	r2, r3
    7d14:	687b      	ldr	r3, [r7, #4]
    7d16:	429a      	cmp	r2, r3
    7d18:	d102      	bne.n	7d20 <_sercom_get_sercom_inst_index+0x34>
    7d1a:	6a7b      	ldr	r3, [r7, #36]	; 0x24
    7d1c:	b2db      	uxtb	r3, r3
    7d1e:	e006      	b.n	7d2e <_sercom_get_sercom_inst_index+0x42>
    7d20:	6a7b      	ldr	r3, [r7, #36]	; 0x24
    7d22:	3301      	adds	r3, #1
    7d24:	627b      	str	r3, [r7, #36]	; 0x24
    7d26:	6a7b      	ldr	r3, [r7, #36]	; 0x24
    7d28:	2b05      	cmp	r3, #5
    7d2a:	d9ed      	bls.n	7d08 <_sercom_get_sercom_inst_index+0x1c>
    7d2c:	2300      	movs	r3, #0
    7d2e:	0018      	movs	r0, r3
    7d30:	46bd      	mov	sp, r7
    7d32:	b00b      	add	sp, #44	; 0x2c
    7d34:	bd90      	pop	{r4, r7, pc}
    7d36:	46c0      	nop			; (mov r8, r8)
    7d38:	00012054 	.word	0x00012054

00007d3c <system_gclk_chan_get_config_defaults>:
    7d3c:	b580      	push	{r7, lr}
    7d3e:	b082      	sub	sp, #8
    7d40:	af00      	add	r7, sp, #0
    7d42:	6078      	str	r0, [r7, #4]
    7d44:	687b      	ldr	r3, [r7, #4]
    7d46:	2200      	movs	r2, #0
    7d48:	701a      	strb	r2, [r3, #0]
    7d4a:	46c0      	nop			; (mov r8, r8)
    7d4c:	46bd      	mov	sp, r7
    7d4e:	b002      	add	sp, #8
    7d50:	bd80      	pop	{r7, pc}
	...

00007d54 <system_apb_clock_set_mask>:
    7d54:	b580      	push	{r7, lr}
    7d56:	b082      	sub	sp, #8
    7d58:	af00      	add	r7, sp, #0
    7d5a:	0002      	movs	r2, r0
    7d5c:	6039      	str	r1, [r7, #0]
    7d5e:	1dfb      	adds	r3, r7, #7
    7d60:	701a      	strb	r2, [r3, #0]
    7d62:	1dfb      	adds	r3, r7, #7
    7d64:	781b      	ldrb	r3, [r3, #0]
    7d66:	2b01      	cmp	r3, #1
    7d68:	d00a      	beq.n	7d80 <system_apb_clock_set_mask+0x2c>
    7d6a:	2b02      	cmp	r3, #2
    7d6c:	d00f      	beq.n	7d8e <system_apb_clock_set_mask+0x3a>
    7d6e:	2b00      	cmp	r3, #0
    7d70:	d114      	bne.n	7d9c <system_apb_clock_set_mask+0x48>
    7d72:	4b0e      	ldr	r3, [pc, #56]	; (7dac <system_apb_clock_set_mask+0x58>)
    7d74:	4a0d      	ldr	r2, [pc, #52]	; (7dac <system_apb_clock_set_mask+0x58>)
    7d76:	6991      	ldr	r1, [r2, #24]
    7d78:	683a      	ldr	r2, [r7, #0]
    7d7a:	430a      	orrs	r2, r1
    7d7c:	619a      	str	r2, [r3, #24]
    7d7e:	e00f      	b.n	7da0 <system_apb_clock_set_mask+0x4c>
    7d80:	4b0a      	ldr	r3, [pc, #40]	; (7dac <system_apb_clock_set_mask+0x58>)
    7d82:	4a0a      	ldr	r2, [pc, #40]	; (7dac <system_apb_clock_set_mask+0x58>)
    7d84:	69d1      	ldr	r1, [r2, #28]
    7d86:	683a      	ldr	r2, [r7, #0]
    7d88:	430a      	orrs	r2, r1
    7d8a:	61da      	str	r2, [r3, #28]
    7d8c:	e008      	b.n	7da0 <system_apb_clock_set_mask+0x4c>
    7d8e:	4b07      	ldr	r3, [pc, #28]	; (7dac <system_apb_clock_set_mask+0x58>)
    7d90:	4a06      	ldr	r2, [pc, #24]	; (7dac <system_apb_clock_set_mask+0x58>)
    7d92:	6a11      	ldr	r1, [r2, #32]
    7d94:	683a      	ldr	r2, [r7, #0]
    7d96:	430a      	orrs	r2, r1
    7d98:	621a      	str	r2, [r3, #32]
    7d9a:	e001      	b.n	7da0 <system_apb_clock_set_mask+0x4c>
    7d9c:	2317      	movs	r3, #23
    7d9e:	e000      	b.n	7da2 <system_apb_clock_set_mask+0x4e>
    7da0:	2300      	movs	r3, #0
    7da2:	0018      	movs	r0, r3
    7da4:	46bd      	mov	sp, r7
    7da6:	b002      	add	sp, #8
    7da8:	bd80      	pop	{r7, pc}
    7daa:	46c0      	nop			; (mov r8, r8)
    7dac:	40000400 	.word	0x40000400

00007db0 <system_pinmux_get_config_defaults>:
    7db0:	b580      	push	{r7, lr}
    7db2:	b082      	sub	sp, #8
    7db4:	af00      	add	r7, sp, #0
    7db6:	6078      	str	r0, [r7, #4]
    7db8:	687b      	ldr	r3, [r7, #4]
    7dba:	2280      	movs	r2, #128	; 0x80
    7dbc:	701a      	strb	r2, [r3, #0]
    7dbe:	687b      	ldr	r3, [r7, #4]
    7dc0:	2200      	movs	r2, #0
    7dc2:	705a      	strb	r2, [r3, #1]
    7dc4:	687b      	ldr	r3, [r7, #4]
    7dc6:	2201      	movs	r2, #1
    7dc8:	709a      	strb	r2, [r3, #2]
    7dca:	687b      	ldr	r3, [r7, #4]
    7dcc:	2200      	movs	r2, #0
    7dce:	70da      	strb	r2, [r3, #3]
    7dd0:	46c0      	nop			; (mov r8, r8)
    7dd2:	46bd      	mov	sp, r7
    7dd4:	b002      	add	sp, #8
    7dd6:	bd80      	pop	{r7, pc}

00007dd8 <tc_is_syncing>:
    7dd8:	b580      	push	{r7, lr}
    7dda:	b084      	sub	sp, #16
    7ddc:	af00      	add	r7, sp, #0
    7dde:	6078      	str	r0, [r7, #4]
    7de0:	687b      	ldr	r3, [r7, #4]
    7de2:	681b      	ldr	r3, [r3, #0]
    7de4:	60fb      	str	r3, [r7, #12]
    7de6:	68fb      	ldr	r3, [r7, #12]
    7de8:	7bdb      	ldrb	r3, [r3, #15]
    7dea:	b2db      	uxtb	r3, r3
    7dec:	001a      	movs	r2, r3
    7dee:	2380      	movs	r3, #128	; 0x80
    7df0:	4013      	ands	r3, r2
    7df2:	1e5a      	subs	r2, r3, #1
    7df4:	4193      	sbcs	r3, r2
    7df6:	b2db      	uxtb	r3, r3
    7df8:	0018      	movs	r0, r3
    7dfa:	46bd      	mov	sp, r7
    7dfc:	b004      	add	sp, #16
    7dfe:	bd80      	pop	{r7, pc}

00007e00 <_tc_get_inst_index>:
    7e00:	b590      	push	{r4, r7, lr}
    7e02:	b087      	sub	sp, #28
    7e04:	af00      	add	r7, sp, #0
    7e06:	6078      	str	r0, [r7, #4]
    7e08:	2308      	movs	r3, #8
    7e0a:	18fb      	adds	r3, r7, r3
    7e0c:	4a0d      	ldr	r2, [pc, #52]	; (7e44 <_tc_get_inst_index+0x44>)
    7e0e:	ca13      	ldmia	r2!, {r0, r1, r4}
    7e10:	c313      	stmia	r3!, {r0, r1, r4}
    7e12:	2300      	movs	r3, #0
    7e14:	617b      	str	r3, [r7, #20]
    7e16:	e00d      	b.n	7e34 <_tc_get_inst_index+0x34>
    7e18:	2308      	movs	r3, #8
    7e1a:	18fb      	adds	r3, r7, r3
    7e1c:	697a      	ldr	r2, [r7, #20]
    7e1e:	0092      	lsls	r2, r2, #2
    7e20:	58d2      	ldr	r2, [r2, r3]
    7e22:	687b      	ldr	r3, [r7, #4]
    7e24:	429a      	cmp	r2, r3
    7e26:	d102      	bne.n	7e2e <_tc_get_inst_index+0x2e>
    7e28:	697b      	ldr	r3, [r7, #20]
    7e2a:	b2db      	uxtb	r3, r3
    7e2c:	e006      	b.n	7e3c <_tc_get_inst_index+0x3c>
    7e2e:	697b      	ldr	r3, [r7, #20]
    7e30:	3301      	adds	r3, #1
    7e32:	617b      	str	r3, [r7, #20]
    7e34:	697b      	ldr	r3, [r7, #20]
    7e36:	2b02      	cmp	r3, #2
    7e38:	d9ee      	bls.n	7e18 <_tc_get_inst_index+0x18>
    7e3a:	2300      	movs	r3, #0
    7e3c:	0018      	movs	r0, r3
    7e3e:	46bd      	mov	sp, r7
    7e40:	b007      	add	sp, #28
    7e42:	bd90      	pop	{r4, r7, pc}
    7e44:	0001206c 	.word	0x0001206c

00007e48 <tc_init>:
    7e48:	b590      	push	{r4, r7, lr}
    7e4a:	b08d      	sub	sp, #52	; 0x34
    7e4c:	af00      	add	r7, sp, #0
    7e4e:	60f8      	str	r0, [r7, #12]
    7e50:	60b9      	str	r1, [r7, #8]
    7e52:	607a      	str	r2, [r7, #4]
    7e54:	232e      	movs	r3, #46	; 0x2e
    7e56:	18fb      	adds	r3, r7, r3
    7e58:	2200      	movs	r2, #0
    7e5a:	801a      	strh	r2, [r3, #0]
    7e5c:	232d      	movs	r3, #45	; 0x2d
    7e5e:	18fb      	adds	r3, r7, r3
    7e60:	2200      	movs	r2, #0
    7e62:	701a      	strb	r2, [r3, #0]
    7e64:	232c      	movs	r3, #44	; 0x2c
    7e66:	18fb      	adds	r3, r7, r3
    7e68:	2200      	movs	r2, #0
    7e6a:	701a      	strb	r2, [r3, #0]
    7e6c:	232a      	movs	r3, #42	; 0x2a
    7e6e:	18fc      	adds	r4, r7, r3
    7e70:	68bb      	ldr	r3, [r7, #8]
    7e72:	0018      	movs	r0, r3
    7e74:	4bc3      	ldr	r3, [pc, #780]	; (8184 <tc_init+0x33c>)
    7e76:	4798      	blx	r3
    7e78:	0003      	movs	r3, r0
    7e7a:	7023      	strb	r3, [r4, #0]
    7e7c:	2324      	movs	r3, #36	; 0x24
    7e7e:	18fb      	adds	r3, r7, r3
    7e80:	4ac1      	ldr	r2, [pc, #772]	; (8188 <tc_init+0x340>)
    7e82:	8811      	ldrh	r1, [r2, #0]
    7e84:	8019      	strh	r1, [r3, #0]
    7e86:	7892      	ldrb	r2, [r2, #2]
    7e88:	709a      	strb	r2, [r3, #2]
    7e8a:	231c      	movs	r3, #28
    7e8c:	18fb      	adds	r3, r7, r3
    7e8e:	4abf      	ldr	r2, [pc, #764]	; (818c <tc_init+0x344>)
    7e90:	6811      	ldr	r1, [r2, #0]
    7e92:	6019      	str	r1, [r3, #0]
    7e94:	8892      	ldrh	r2, [r2, #4]
    7e96:	809a      	strh	r2, [r3, #4]
    7e98:	68fb      	ldr	r3, [r7, #12]
    7e9a:	68ba      	ldr	r2, [r7, #8]
    7e9c:	601a      	str	r2, [r3, #0]
    7e9e:	687b      	ldr	r3, [r7, #4]
    7ea0:	789b      	ldrb	r3, [r3, #2]
    7ea2:	2b08      	cmp	r3, #8
    7ea4:	d108      	bne.n	7eb8 <tc_init+0x70>
    7ea6:	232a      	movs	r3, #42	; 0x2a
    7ea8:	18fb      	adds	r3, r7, r3
    7eaa:	781b      	ldrb	r3, [r3, #0]
    7eac:	3303      	adds	r3, #3
    7eae:	2201      	movs	r2, #1
    7eb0:	4013      	ands	r3, r2
    7eb2:	d001      	beq.n	7eb8 <tc_init+0x70>
    7eb4:	2317      	movs	r3, #23
    7eb6:	e1c0      	b.n	823a <tc_init+0x3f2>
    7eb8:	687b      	ldr	r3, [r7, #4]
    7eba:	789a      	ldrb	r2, [r3, #2]
    7ebc:	68fb      	ldr	r3, [r7, #12]
    7ebe:	711a      	strb	r2, [r3, #4]
    7ec0:	68bb      	ldr	r3, [r7, #8]
    7ec2:	881b      	ldrh	r3, [r3, #0]
    7ec4:	b29b      	uxth	r3, r3
    7ec6:	001a      	movs	r2, r3
    7ec8:	2301      	movs	r3, #1
    7eca:	4013      	ands	r3, r2
    7ecc:	d001      	beq.n	7ed2 <tc_init+0x8a>
    7ece:	2305      	movs	r3, #5
    7ed0:	e1b3      	b.n	823a <tc_init+0x3f2>
    7ed2:	68bb      	ldr	r3, [r7, #8]
    7ed4:	7bdb      	ldrb	r3, [r3, #15]
    7ed6:	b2db      	uxtb	r3, r3
    7ed8:	001a      	movs	r2, r3
    7eda:	2310      	movs	r3, #16
    7edc:	4013      	ands	r3, r2
    7ede:	d001      	beq.n	7ee4 <tc_init+0x9c>
    7ee0:	231c      	movs	r3, #28
    7ee2:	e1aa      	b.n	823a <tc_init+0x3f2>
    7ee4:	68bb      	ldr	r3, [r7, #8]
    7ee6:	881b      	ldrh	r3, [r3, #0]
    7ee8:	b29b      	uxth	r3, r3
    7eea:	001a      	movs	r2, r3
    7eec:	2302      	movs	r3, #2
    7eee:	4013      	ands	r3, r2
    7ef0:	d001      	beq.n	7ef6 <tc_init+0xae>
    7ef2:	231c      	movs	r3, #28
    7ef4:	e1a1      	b.n	823a <tc_init+0x3f2>
    7ef6:	687b      	ldr	r3, [r7, #4]
    7ef8:	7c1b      	ldrb	r3, [r3, #16]
    7efa:	2b00      	cmp	r3, #0
    7efc:	d017      	beq.n	7f2e <tc_init+0xe6>
    7efe:	2318      	movs	r3, #24
    7f00:	18fb      	adds	r3, r7, r3
    7f02:	0018      	movs	r0, r3
    7f04:	4ba2      	ldr	r3, [pc, #648]	; (8190 <tc_init+0x348>)
    7f06:	4798      	blx	r3
    7f08:	687b      	ldr	r3, [r7, #4]
    7f0a:	699b      	ldr	r3, [r3, #24]
    7f0c:	b2da      	uxtb	r2, r3
    7f0e:	2318      	movs	r3, #24
    7f10:	18fb      	adds	r3, r7, r3
    7f12:	701a      	strb	r2, [r3, #0]
    7f14:	2318      	movs	r3, #24
    7f16:	18fb      	adds	r3, r7, r3
    7f18:	2201      	movs	r2, #1
    7f1a:	705a      	strb	r2, [r3, #1]
    7f1c:	687b      	ldr	r3, [r7, #4]
    7f1e:	695b      	ldr	r3, [r3, #20]
    7f20:	b2db      	uxtb	r3, r3
    7f22:	2218      	movs	r2, #24
    7f24:	18ba      	adds	r2, r7, r2
    7f26:	0011      	movs	r1, r2
    7f28:	0018      	movs	r0, r3
    7f2a:	4b9a      	ldr	r3, [pc, #616]	; (8194 <tc_init+0x34c>)
    7f2c:	4798      	blx	r3
    7f2e:	687b      	ldr	r3, [r7, #4]
    7f30:	7f1b      	ldrb	r3, [r3, #28]
    7f32:	2b00      	cmp	r3, #0
    7f34:	d017      	beq.n	7f66 <tc_init+0x11e>
    7f36:	2318      	movs	r3, #24
    7f38:	18fb      	adds	r3, r7, r3
    7f3a:	0018      	movs	r0, r3
    7f3c:	4b94      	ldr	r3, [pc, #592]	; (8190 <tc_init+0x348>)
    7f3e:	4798      	blx	r3
    7f40:	687b      	ldr	r3, [r7, #4]
    7f42:	6a5b      	ldr	r3, [r3, #36]	; 0x24
    7f44:	b2da      	uxtb	r2, r3
    7f46:	2318      	movs	r3, #24
    7f48:	18fb      	adds	r3, r7, r3
    7f4a:	701a      	strb	r2, [r3, #0]
    7f4c:	2318      	movs	r3, #24
    7f4e:	18fb      	adds	r3, r7, r3
    7f50:	2201      	movs	r2, #1
    7f52:	705a      	strb	r2, [r3, #1]
    7f54:	687b      	ldr	r3, [r7, #4]
    7f56:	6a1b      	ldr	r3, [r3, #32]
    7f58:	b2db      	uxtb	r3, r3
    7f5a:	2218      	movs	r2, #24
    7f5c:	18ba      	adds	r2, r7, r2
    7f5e:	0011      	movs	r1, r2
    7f60:	0018      	movs	r0, r3
    7f62:	4b8c      	ldr	r3, [pc, #560]	; (8194 <tc_init+0x34c>)
    7f64:	4798      	blx	r3
    7f66:	232a      	movs	r3, #42	; 0x2a
    7f68:	18fb      	adds	r3, r7, r3
    7f6a:	781a      	ldrb	r2, [r3, #0]
    7f6c:	231c      	movs	r3, #28
    7f6e:	18fb      	adds	r3, r7, r3
    7f70:	0052      	lsls	r2, r2, #1
    7f72:	5ad3      	ldrh	r3, [r2, r3]
    7f74:	0019      	movs	r1, r3
    7f76:	2002      	movs	r0, #2
    7f78:	4b87      	ldr	r3, [pc, #540]	; (8198 <tc_init+0x350>)
    7f7a:	4798      	blx	r3
    7f7c:	687b      	ldr	r3, [r7, #4]
    7f7e:	789b      	ldrb	r3, [r3, #2]
    7f80:	2b08      	cmp	r3, #8
    7f82:	d10b      	bne.n	7f9c <tc_init+0x154>
    7f84:	232a      	movs	r3, #42	; 0x2a
    7f86:	18fb      	adds	r3, r7, r3
    7f88:	781b      	ldrb	r3, [r3, #0]
    7f8a:	1c5a      	adds	r2, r3, #1
    7f8c:	231c      	movs	r3, #28
    7f8e:	18fb      	adds	r3, r7, r3
    7f90:	0052      	lsls	r2, r2, #1
    7f92:	5ad3      	ldrh	r3, [r2, r3]
    7f94:	0019      	movs	r1, r3
    7f96:	2002      	movs	r0, #2
    7f98:	4b7f      	ldr	r3, [pc, #508]	; (8198 <tc_init+0x350>)
    7f9a:	4798      	blx	r3
    7f9c:	2314      	movs	r3, #20
    7f9e:	18fb      	adds	r3, r7, r3
    7fa0:	0018      	movs	r0, r3
    7fa2:	4b7e      	ldr	r3, [pc, #504]	; (819c <tc_init+0x354>)
    7fa4:	4798      	blx	r3
    7fa6:	687b      	ldr	r3, [r7, #4]
    7fa8:	781a      	ldrb	r2, [r3, #0]
    7faa:	2314      	movs	r3, #20
    7fac:	18fb      	adds	r3, r7, r3
    7fae:	701a      	strb	r2, [r3, #0]
    7fb0:	232a      	movs	r3, #42	; 0x2a
    7fb2:	18fb      	adds	r3, r7, r3
    7fb4:	781b      	ldrb	r3, [r3, #0]
    7fb6:	2224      	movs	r2, #36	; 0x24
    7fb8:	18ba      	adds	r2, r7, r2
    7fba:	5cd3      	ldrb	r3, [r2, r3]
    7fbc:	2214      	movs	r2, #20
    7fbe:	18ba      	adds	r2, r7, r2
    7fc0:	0011      	movs	r1, r2
    7fc2:	0018      	movs	r0, r3
    7fc4:	4b76      	ldr	r3, [pc, #472]	; (81a0 <tc_init+0x358>)
    7fc6:	4798      	blx	r3
    7fc8:	232a      	movs	r3, #42	; 0x2a
    7fca:	18fb      	adds	r3, r7, r3
    7fcc:	781b      	ldrb	r3, [r3, #0]
    7fce:	2224      	movs	r2, #36	; 0x24
    7fd0:	18ba      	adds	r2, r7, r2
    7fd2:	5cd3      	ldrb	r3, [r2, r3]
    7fd4:	0018      	movs	r0, r3
    7fd6:	4b73      	ldr	r3, [pc, #460]	; (81a4 <tc_init+0x35c>)
    7fd8:	4798      	blx	r3
    7fda:	687b      	ldr	r3, [r7, #4]
    7fdc:	789a      	ldrb	r2, [r3, #2]
    7fde:	687b      	ldr	r3, [r7, #4]
    7fe0:	799b      	ldrb	r3, [r3, #6]
    7fe2:	4313      	orrs	r3, r2
    7fe4:	b2db      	uxtb	r3, r3
    7fe6:	b29a      	uxth	r2, r3
    7fe8:	687b      	ldr	r3, [r7, #4]
    7fea:	891b      	ldrh	r3, [r3, #8]
    7fec:	4313      	orrs	r3, r2
    7fee:	b299      	uxth	r1, r3
    7ff0:	687b      	ldr	r3, [r7, #4]
    7ff2:	889a      	ldrh	r2, [r3, #4]
    7ff4:	232e      	movs	r3, #46	; 0x2e
    7ff6:	18fb      	adds	r3, r7, r3
    7ff8:	430a      	orrs	r2, r1
    7ffa:	801a      	strh	r2, [r3, #0]
    7ffc:	687b      	ldr	r3, [r7, #4]
    7ffe:	785b      	ldrb	r3, [r3, #1]
    8000:	2b00      	cmp	r3, #0
    8002:	d008      	beq.n	8016 <tc_init+0x1ce>
    8004:	232e      	movs	r3, #46	; 0x2e
    8006:	18fb      	adds	r3, r7, r3
    8008:	222e      	movs	r2, #46	; 0x2e
    800a:	18ba      	adds	r2, r7, r2
    800c:	8812      	ldrh	r2, [r2, #0]
    800e:	2180      	movs	r1, #128	; 0x80
    8010:	0109      	lsls	r1, r1, #4
    8012:	430a      	orrs	r2, r1
    8014:	801a      	strh	r2, [r3, #0]
    8016:	46c0      	nop			; (mov r8, r8)
    8018:	68fb      	ldr	r3, [r7, #12]
    801a:	0018      	movs	r0, r3
    801c:	4b62      	ldr	r3, [pc, #392]	; (81a8 <tc_init+0x360>)
    801e:	4798      	blx	r3
    8020:	1e03      	subs	r3, r0, #0
    8022:	d1f9      	bne.n	8018 <tc_init+0x1d0>
    8024:	68bb      	ldr	r3, [r7, #8]
    8026:	222e      	movs	r2, #46	; 0x2e
    8028:	18ba      	adds	r2, r7, r2
    802a:	8812      	ldrh	r2, [r2, #0]
    802c:	801a      	strh	r2, [r3, #0]
    802e:	687b      	ldr	r3, [r7, #4]
    8030:	7b5b      	ldrb	r3, [r3, #13]
    8032:	2b00      	cmp	r3, #0
    8034:	d003      	beq.n	803e <tc_init+0x1f6>
    8036:	232d      	movs	r3, #45	; 0x2d
    8038:	18fb      	adds	r3, r7, r3
    803a:	2204      	movs	r2, #4
    803c:	701a      	strb	r2, [r3, #0]
    803e:	687b      	ldr	r3, [r7, #4]
    8040:	7b9b      	ldrb	r3, [r3, #14]
    8042:	2b00      	cmp	r3, #0
    8044:	d007      	beq.n	8056 <tc_init+0x20e>
    8046:	232d      	movs	r3, #45	; 0x2d
    8048:	18fb      	adds	r3, r7, r3
    804a:	222d      	movs	r2, #45	; 0x2d
    804c:	18ba      	adds	r2, r7, r2
    804e:	7812      	ldrb	r2, [r2, #0]
    8050:	2101      	movs	r1, #1
    8052:	430a      	orrs	r2, r1
    8054:	701a      	strb	r2, [r3, #0]
    8056:	46c0      	nop			; (mov r8, r8)
    8058:	68fb      	ldr	r3, [r7, #12]
    805a:	0018      	movs	r0, r3
    805c:	4b52      	ldr	r3, [pc, #328]	; (81a8 <tc_init+0x360>)
    805e:	4798      	blx	r3
    8060:	1e03      	subs	r3, r0, #0
    8062:	d1f9      	bne.n	8058 <tc_init+0x210>
    8064:	68bb      	ldr	r3, [r7, #8]
    8066:	22ff      	movs	r2, #255	; 0xff
    8068:	711a      	strb	r2, [r3, #4]
    806a:	232d      	movs	r3, #45	; 0x2d
    806c:	18fb      	adds	r3, r7, r3
    806e:	781b      	ldrb	r3, [r3, #0]
    8070:	2b00      	cmp	r3, #0
    8072:	d00b      	beq.n	808c <tc_init+0x244>
    8074:	46c0      	nop			; (mov r8, r8)
    8076:	68fb      	ldr	r3, [r7, #12]
    8078:	0018      	movs	r0, r3
    807a:	4b4b      	ldr	r3, [pc, #300]	; (81a8 <tc_init+0x360>)
    807c:	4798      	blx	r3
    807e:	1e03      	subs	r3, r0, #0
    8080:	d1f9      	bne.n	8076 <tc_init+0x22e>
    8082:	68bb      	ldr	r3, [r7, #8]
    8084:	222d      	movs	r2, #45	; 0x2d
    8086:	18ba      	adds	r2, r7, r2
    8088:	7812      	ldrb	r2, [r2, #0]
    808a:	715a      	strb	r2, [r3, #5]
    808c:	232c      	movs	r3, #44	; 0x2c
    808e:	18fb      	adds	r3, r7, r3
    8090:	687a      	ldr	r2, [r7, #4]
    8092:	7a92      	ldrb	r2, [r2, #10]
    8094:	701a      	strb	r2, [r3, #0]
    8096:	232b      	movs	r3, #43	; 0x2b
    8098:	18fb      	adds	r3, r7, r3
    809a:	2200      	movs	r2, #0
    809c:	701a      	strb	r2, [r3, #0]
    809e:	e01c      	b.n	80da <tc_init+0x292>
    80a0:	232b      	movs	r3, #43	; 0x2b
    80a2:	18fb      	adds	r3, r7, r3
    80a4:	781b      	ldrb	r3, [r3, #0]
    80a6:	687a      	ldr	r2, [r7, #4]
    80a8:	18d3      	adds	r3, r2, r3
    80aa:	7adb      	ldrb	r3, [r3, #11]
    80ac:	2b00      	cmp	r3, #0
    80ae:	d00d      	beq.n	80cc <tc_init+0x284>
    80b0:	232b      	movs	r3, #43	; 0x2b
    80b2:	18fb      	adds	r3, r7, r3
    80b4:	781b      	ldrb	r3, [r3, #0]
    80b6:	2210      	movs	r2, #16
    80b8:	409a      	lsls	r2, r3
    80ba:	0013      	movs	r3, r2
    80bc:	b2d9      	uxtb	r1, r3
    80be:	232c      	movs	r3, #44	; 0x2c
    80c0:	18fb      	adds	r3, r7, r3
    80c2:	222c      	movs	r2, #44	; 0x2c
    80c4:	18ba      	adds	r2, r7, r2
    80c6:	7812      	ldrb	r2, [r2, #0]
    80c8:	430a      	orrs	r2, r1
    80ca:	701a      	strb	r2, [r3, #0]
    80cc:	232b      	movs	r3, #43	; 0x2b
    80ce:	18fb      	adds	r3, r7, r3
    80d0:	781a      	ldrb	r2, [r3, #0]
    80d2:	232b      	movs	r3, #43	; 0x2b
    80d4:	18fb      	adds	r3, r7, r3
    80d6:	3201      	adds	r2, #1
    80d8:	701a      	strb	r2, [r3, #0]
    80da:	232b      	movs	r3, #43	; 0x2b
    80dc:	18fb      	adds	r3, r7, r3
    80de:	781b      	ldrb	r3, [r3, #0]
    80e0:	2b01      	cmp	r3, #1
    80e2:	d9dd      	bls.n	80a0 <tc_init+0x258>
    80e4:	46c0      	nop			; (mov r8, r8)
    80e6:	68fb      	ldr	r3, [r7, #12]
    80e8:	0018      	movs	r0, r3
    80ea:	4b2f      	ldr	r3, [pc, #188]	; (81a8 <tc_init+0x360>)
    80ec:	4798      	blx	r3
    80ee:	1e03      	subs	r3, r0, #0
    80f0:	d1f9      	bne.n	80e6 <tc_init+0x29e>
    80f2:	68bb      	ldr	r3, [r7, #8]
    80f4:	222c      	movs	r2, #44	; 0x2c
    80f6:	18ba      	adds	r2, r7, r2
    80f8:	7812      	ldrb	r2, [r2, #0]
    80fa:	719a      	strb	r2, [r3, #6]
    80fc:	46c0      	nop			; (mov r8, r8)
    80fe:	68fb      	ldr	r3, [r7, #12]
    8100:	0018      	movs	r0, r3
    8102:	4b29      	ldr	r3, [pc, #164]	; (81a8 <tc_init+0x360>)
    8104:	4798      	blx	r3
    8106:	1e03      	subs	r3, r0, #0
    8108:	d1f9      	bne.n	80fe <tc_init+0x2b6>
    810a:	68fb      	ldr	r3, [r7, #12]
    810c:	791b      	ldrb	r3, [r3, #4]
    810e:	2b04      	cmp	r3, #4
    8110:	d005      	beq.n	811e <tc_init+0x2d6>
    8112:	2b08      	cmp	r3, #8
    8114:	d100      	bne.n	8118 <tc_init+0x2d0>
    8116:	e06c      	b.n	81f2 <tc_init+0x3aa>
    8118:	2b00      	cmp	r3, #0
    811a:	d047      	beq.n	81ac <tc_init+0x364>
    811c:	e08c      	b.n	8238 <tc_init+0x3f0>
    811e:	46c0      	nop			; (mov r8, r8)
    8120:	68fb      	ldr	r3, [r7, #12]
    8122:	0018      	movs	r0, r3
    8124:	4b20      	ldr	r3, [pc, #128]	; (81a8 <tc_init+0x360>)
    8126:	4798      	blx	r3
    8128:	1e03      	subs	r3, r0, #0
    812a:	d1f9      	bne.n	8120 <tc_init+0x2d8>
    812c:	687b      	ldr	r3, [r7, #4]
    812e:	2228      	movs	r2, #40	; 0x28
    8130:	5c9a      	ldrb	r2, [r3, r2]
    8132:	68bb      	ldr	r3, [r7, #8]
    8134:	741a      	strb	r2, [r3, #16]
    8136:	46c0      	nop			; (mov r8, r8)
    8138:	68fb      	ldr	r3, [r7, #12]
    813a:	0018      	movs	r0, r3
    813c:	4b1a      	ldr	r3, [pc, #104]	; (81a8 <tc_init+0x360>)
    813e:	4798      	blx	r3
    8140:	1e03      	subs	r3, r0, #0
    8142:	d1f9      	bne.n	8138 <tc_init+0x2f0>
    8144:	687b      	ldr	r3, [r7, #4]
    8146:	2229      	movs	r2, #41	; 0x29
    8148:	5c9a      	ldrb	r2, [r3, r2]
    814a:	68bb      	ldr	r3, [r7, #8]
    814c:	751a      	strb	r2, [r3, #20]
    814e:	46c0      	nop			; (mov r8, r8)
    8150:	68fb      	ldr	r3, [r7, #12]
    8152:	0018      	movs	r0, r3
    8154:	4b14      	ldr	r3, [pc, #80]	; (81a8 <tc_init+0x360>)
    8156:	4798      	blx	r3
    8158:	1e03      	subs	r3, r0, #0
    815a:	d1f9      	bne.n	8150 <tc_init+0x308>
    815c:	687b      	ldr	r3, [r7, #4]
    815e:	222a      	movs	r2, #42	; 0x2a
    8160:	5c9a      	ldrb	r2, [r3, r2]
    8162:	68bb      	ldr	r3, [r7, #8]
    8164:	761a      	strb	r2, [r3, #24]
    8166:	46c0      	nop			; (mov r8, r8)
    8168:	68fb      	ldr	r3, [r7, #12]
    816a:	0018      	movs	r0, r3
    816c:	4b0e      	ldr	r3, [pc, #56]	; (81a8 <tc_init+0x360>)
    816e:	4798      	blx	r3
    8170:	1e03      	subs	r3, r0, #0
    8172:	d1f9      	bne.n	8168 <tc_init+0x320>
    8174:	687b      	ldr	r3, [r7, #4]
    8176:	222b      	movs	r2, #43	; 0x2b
    8178:	5c9a      	ldrb	r2, [r3, r2]
    817a:	68bb      	ldr	r3, [r7, #8]
    817c:	765a      	strb	r2, [r3, #25]
    817e:	2300      	movs	r3, #0
    8180:	e05b      	b.n	823a <tc_init+0x3f2>
    8182:	46c0      	nop			; (mov r8, r8)
    8184:	00007e01 	.word	0x00007e01
    8188:	00012078 	.word	0x00012078
    818c:	0001207c 	.word	0x0001207c
    8190:	00007db1 	.word	0x00007db1
    8194:	000093ad 	.word	0x000093ad
    8198:	00007d55 	.word	0x00007d55
    819c:	00007d3d 	.word	0x00007d3d
    81a0:	00009079 	.word	0x00009079
    81a4:	000090bd 	.word	0x000090bd
    81a8:	00007dd9 	.word	0x00007dd9
    81ac:	46c0      	nop			; (mov r8, r8)
    81ae:	68fb      	ldr	r3, [r7, #12]
    81b0:	0018      	movs	r0, r3
    81b2:	4b24      	ldr	r3, [pc, #144]	; (8244 <tc_init+0x3fc>)
    81b4:	4798      	blx	r3
    81b6:	1e03      	subs	r3, r0, #0
    81b8:	d1f9      	bne.n	81ae <tc_init+0x366>
    81ba:	687b      	ldr	r3, [r7, #4]
    81bc:	8d1a      	ldrh	r2, [r3, #40]	; 0x28
    81be:	68bb      	ldr	r3, [r7, #8]
    81c0:	821a      	strh	r2, [r3, #16]
    81c2:	46c0      	nop			; (mov r8, r8)
    81c4:	68fb      	ldr	r3, [r7, #12]
    81c6:	0018      	movs	r0, r3
    81c8:	4b1e      	ldr	r3, [pc, #120]	; (8244 <tc_init+0x3fc>)
    81ca:	4798      	blx	r3
    81cc:	1e03      	subs	r3, r0, #0
    81ce:	d1f9      	bne.n	81c4 <tc_init+0x37c>
    81d0:	687b      	ldr	r3, [r7, #4]
    81d2:	8d5a      	ldrh	r2, [r3, #42]	; 0x2a
    81d4:	68bb      	ldr	r3, [r7, #8]
    81d6:	831a      	strh	r2, [r3, #24]
    81d8:	46c0      	nop			; (mov r8, r8)
    81da:	68fb      	ldr	r3, [r7, #12]
    81dc:	0018      	movs	r0, r3
    81de:	4b19      	ldr	r3, [pc, #100]	; (8244 <tc_init+0x3fc>)
    81e0:	4798      	blx	r3
    81e2:	1e03      	subs	r3, r0, #0
    81e4:	d1f9      	bne.n	81da <tc_init+0x392>
    81e6:	687b      	ldr	r3, [r7, #4]
    81e8:	8d9a      	ldrh	r2, [r3, #44]	; 0x2c
    81ea:	68bb      	ldr	r3, [r7, #8]
    81ec:	835a      	strh	r2, [r3, #26]
    81ee:	2300      	movs	r3, #0
    81f0:	e023      	b.n	823a <tc_init+0x3f2>
    81f2:	46c0      	nop			; (mov r8, r8)
    81f4:	68fb      	ldr	r3, [r7, #12]
    81f6:	0018      	movs	r0, r3
    81f8:	4b12      	ldr	r3, [pc, #72]	; (8244 <tc_init+0x3fc>)
    81fa:	4798      	blx	r3
    81fc:	1e03      	subs	r3, r0, #0
    81fe:	d1f9      	bne.n	81f4 <tc_init+0x3ac>
    8200:	687b      	ldr	r3, [r7, #4]
    8202:	6a9a      	ldr	r2, [r3, #40]	; 0x28
    8204:	68bb      	ldr	r3, [r7, #8]
    8206:	611a      	str	r2, [r3, #16]
    8208:	46c0      	nop			; (mov r8, r8)
    820a:	68fb      	ldr	r3, [r7, #12]
    820c:	0018      	movs	r0, r3
    820e:	4b0d      	ldr	r3, [pc, #52]	; (8244 <tc_init+0x3fc>)
    8210:	4798      	blx	r3
    8212:	1e03      	subs	r3, r0, #0
    8214:	d1f9      	bne.n	820a <tc_init+0x3c2>
    8216:	687b      	ldr	r3, [r7, #4]
    8218:	6ada      	ldr	r2, [r3, #44]	; 0x2c
    821a:	68bb      	ldr	r3, [r7, #8]
    821c:	619a      	str	r2, [r3, #24]
    821e:	46c0      	nop			; (mov r8, r8)
    8220:	68fb      	ldr	r3, [r7, #12]
    8222:	0018      	movs	r0, r3
    8224:	4b07      	ldr	r3, [pc, #28]	; (8244 <tc_init+0x3fc>)
    8226:	4798      	blx	r3
    8228:	1e03      	subs	r3, r0, #0
    822a:	d1f9      	bne.n	8220 <tc_init+0x3d8>
    822c:	687b      	ldr	r3, [r7, #4]
    822e:	6b1a      	ldr	r2, [r3, #48]	; 0x30
    8230:	68bb      	ldr	r3, [r7, #8]
    8232:	61da      	str	r2, [r3, #28]
    8234:	2300      	movs	r3, #0
    8236:	e000      	b.n	823a <tc_init+0x3f2>
    8238:	2317      	movs	r3, #23
    823a:	0018      	movs	r0, r3
    823c:	46bd      	mov	sp, r7
    823e:	b00d      	add	sp, #52	; 0x34
    8240:	bd90      	pop	{r4, r7, pc}
    8242:	46c0      	nop			; (mov r8, r8)
    8244:	00007dd9 	.word	0x00007dd9

00008248 <system_pinmux_get_config_defaults>:
    8248:	b580      	push	{r7, lr}
    824a:	b082      	sub	sp, #8
    824c:	af00      	add	r7, sp, #0
    824e:	6078      	str	r0, [r7, #4]
    8250:	687b      	ldr	r3, [r7, #4]
    8252:	2280      	movs	r2, #128	; 0x80
    8254:	701a      	strb	r2, [r3, #0]
    8256:	687b      	ldr	r3, [r7, #4]
    8258:	2200      	movs	r2, #0
    825a:	705a      	strb	r2, [r3, #1]
    825c:	687b      	ldr	r3, [r7, #4]
    825e:	2201      	movs	r2, #1
    8260:	709a      	strb	r2, [r3, #2]
    8262:	687b      	ldr	r3, [r7, #4]
    8264:	2200      	movs	r2, #0
    8266:	70da      	strb	r2, [r3, #3]
    8268:	46c0      	nop			; (mov r8, r8)
    826a:	46bd      	mov	sp, r7
    826c:	b002      	add	sp, #8
    826e:	bd80      	pop	{r7, pc}

00008270 <port_pin_set_config>:
    8270:	b580      	push	{r7, lr}
    8272:	b084      	sub	sp, #16
    8274:	af00      	add	r7, sp, #0
    8276:	0002      	movs	r2, r0
    8278:	6039      	str	r1, [r7, #0]
    827a:	1dfb      	adds	r3, r7, #7
    827c:	701a      	strb	r2, [r3, #0]
    827e:	230c      	movs	r3, #12
    8280:	18fb      	adds	r3, r7, r3
    8282:	0018      	movs	r0, r3
    8284:	4b10      	ldr	r3, [pc, #64]	; (82c8 <port_pin_set_config+0x58>)
    8286:	4798      	blx	r3
    8288:	230c      	movs	r3, #12
    828a:	18fb      	adds	r3, r7, r3
    828c:	2280      	movs	r2, #128	; 0x80
    828e:	701a      	strb	r2, [r3, #0]
    8290:	683b      	ldr	r3, [r7, #0]
    8292:	781a      	ldrb	r2, [r3, #0]
    8294:	230c      	movs	r3, #12
    8296:	18fb      	adds	r3, r7, r3
    8298:	705a      	strb	r2, [r3, #1]
    829a:	683b      	ldr	r3, [r7, #0]
    829c:	785a      	ldrb	r2, [r3, #1]
    829e:	230c      	movs	r3, #12
    82a0:	18fb      	adds	r3, r7, r3
    82a2:	709a      	strb	r2, [r3, #2]
    82a4:	683b      	ldr	r3, [r7, #0]
    82a6:	789a      	ldrb	r2, [r3, #2]
    82a8:	230c      	movs	r3, #12
    82aa:	18fb      	adds	r3, r7, r3
    82ac:	70da      	strb	r2, [r3, #3]
    82ae:	230c      	movs	r3, #12
    82b0:	18fa      	adds	r2, r7, r3
    82b2:	1dfb      	adds	r3, r7, #7
    82b4:	781b      	ldrb	r3, [r3, #0]
    82b6:	0011      	movs	r1, r2
    82b8:	0018      	movs	r0, r3
    82ba:	4b04      	ldr	r3, [pc, #16]	; (82cc <port_pin_set_config+0x5c>)
    82bc:	4798      	blx	r3
    82be:	46c0      	nop			; (mov r8, r8)
    82c0:	46bd      	mov	sp, r7
    82c2:	b004      	add	sp, #16
    82c4:	bd80      	pop	{r7, pc}
    82c6:	46c0      	nop			; (mov r8, r8)
    82c8:	00008249 	.word	0x00008249
    82cc:	000093ad 	.word	0x000093ad

000082d0 <fnRING_BUFFER_BYTE_Init>:
    82d0:	b580      	push	{r7, lr}
    82d2:	b082      	sub	sp, #8
    82d4:	af00      	add	r7, sp, #0
    82d6:	6078      	str	r0, [r7, #4]
    82d8:	687b      	ldr	r3, [r7, #4]
    82da:	2280      	movs	r2, #128	; 0x80
    82dc:	2100      	movs	r1, #0
    82de:	5499      	strb	r1, [r3, r2]
    82e0:	687b      	ldr	r3, [r7, #4]
    82e2:	2281      	movs	r2, #129	; 0x81
    82e4:	2100      	movs	r1, #0
    82e6:	5499      	strb	r1, [r3, r2]
    82e8:	46c0      	nop			; (mov r8, r8)
    82ea:	46bd      	mov	sp, r7
    82ec:	b002      	add	sp, #8
    82ee:	bd80      	pop	{r7, pc}

000082f0 <fnRING_BUFFER_BYTE_Insert>:
    82f0:	b580      	push	{r7, lr}
    82f2:	b084      	sub	sp, #16
    82f4:	af00      	add	r7, sp, #0
    82f6:	6078      	str	r0, [r7, #4]
    82f8:	000a      	movs	r2, r1
    82fa:	1cfb      	adds	r3, r7, #3
    82fc:	701a      	strb	r2, [r3, #0]
    82fe:	687b      	ldr	r3, [r7, #4]
    8300:	2280      	movs	r2, #128	; 0x80
    8302:	5c9b      	ldrb	r3, [r3, r2]
    8304:	b2db      	uxtb	r3, r3
    8306:	3301      	adds	r3, #1
    8308:	b2da      	uxtb	r2, r3
    830a:	230f      	movs	r3, #15
    830c:	18fb      	adds	r3, r7, r3
    830e:	217f      	movs	r1, #127	; 0x7f
    8310:	400a      	ands	r2, r1
    8312:	701a      	strb	r2, [r3, #0]
    8314:	687b      	ldr	r3, [r7, #4]
    8316:	220f      	movs	r2, #15
    8318:	18ba      	adds	r2, r7, r2
    831a:	2180      	movs	r1, #128	; 0x80
    831c:	7812      	ldrb	r2, [r2, #0]
    831e:	545a      	strb	r2, [r3, r1]
    8320:	687b      	ldr	r3, [r7, #4]
    8322:	2280      	movs	r2, #128	; 0x80
    8324:	5c9b      	ldrb	r3, [r3, r2]
    8326:	b2da      	uxtb	r2, r3
    8328:	687b      	ldr	r3, [r7, #4]
    832a:	2181      	movs	r1, #129	; 0x81
    832c:	5c5b      	ldrb	r3, [r3, r1]
    832e:	b2db      	uxtb	r3, r3
    8330:	429a      	cmp	r2, r3
    8332:	d103      	bne.n	833c <fnRING_BUFFER_BYTE_Insert+0x4c>
    8334:	687b      	ldr	r3, [r7, #4]
    8336:	0018      	movs	r0, r3
    8338:	4b06      	ldr	r3, [pc, #24]	; (8354 <fnRING_BUFFER_BYTE_Insert+0x64>)
    833a:	4798      	blx	r3
    833c:	230f      	movs	r3, #15
    833e:	18fb      	adds	r3, r7, r3
    8340:	781b      	ldrb	r3, [r3, #0]
    8342:	687a      	ldr	r2, [r7, #4]
    8344:	1cf9      	adds	r1, r7, #3
    8346:	7809      	ldrb	r1, [r1, #0]
    8348:	54d1      	strb	r1, [r2, r3]
    834a:	46c0      	nop			; (mov r8, r8)
    834c:	46bd      	mov	sp, r7
    834e:	b004      	add	sp, #16
    8350:	bd80      	pop	{r7, pc}
    8352:	46c0      	nop			; (mov r8, r8)
    8354:	000082d1 	.word	0x000082d1

00008358 <fnRING_BUFFER_BYTE_Get>:
    8358:	b580      	push	{r7, lr}
    835a:	b084      	sub	sp, #16
    835c:	af00      	add	r7, sp, #0
    835e:	6078      	str	r0, [r7, #4]
    8360:	687b      	ldr	r3, [r7, #4]
    8362:	2281      	movs	r2, #129	; 0x81
    8364:	5c9b      	ldrb	r3, [r3, r2]
    8366:	b2db      	uxtb	r3, r3
    8368:	3301      	adds	r3, #1
    836a:	b2da      	uxtb	r2, r3
    836c:	230f      	movs	r3, #15
    836e:	18fb      	adds	r3, r7, r3
    8370:	217f      	movs	r1, #127	; 0x7f
    8372:	400a      	ands	r2, r1
    8374:	701a      	strb	r2, [r3, #0]
    8376:	687b      	ldr	r3, [r7, #4]
    8378:	220f      	movs	r2, #15
    837a:	18ba      	adds	r2, r7, r2
    837c:	2181      	movs	r1, #129	; 0x81
    837e:	7812      	ldrb	r2, [r2, #0]
    8380:	545a      	strb	r2, [r3, r1]
    8382:	230f      	movs	r3, #15
    8384:	18fb      	adds	r3, r7, r3
    8386:	781b      	ldrb	r3, [r3, #0]
    8388:	687a      	ldr	r2, [r7, #4]
    838a:	5cd3      	ldrb	r3, [r2, r3]
    838c:	b2db      	uxtb	r3, r3
    838e:	0018      	movs	r0, r3
    8390:	46bd      	mov	sp, r7
    8392:	b004      	add	sp, #16
    8394:	bd80      	pop	{r7, pc}

00008396 <fnRING_BUFFER_BYTE_Is_Data_Avaiable>:
    8396:	b580      	push	{r7, lr}
    8398:	b082      	sub	sp, #8
    839a:	af00      	add	r7, sp, #0
    839c:	6078      	str	r0, [r7, #4]
    839e:	687b      	ldr	r3, [r7, #4]
    83a0:	2280      	movs	r2, #128	; 0x80
    83a2:	5c9b      	ldrb	r3, [r3, r2]
    83a4:	b2da      	uxtb	r2, r3
    83a6:	687b      	ldr	r3, [r7, #4]
    83a8:	2181      	movs	r1, #129	; 0x81
    83aa:	5c5b      	ldrb	r3, [r3, r1]
    83ac:	b2db      	uxtb	r3, r3
    83ae:	1ad3      	subs	r3, r2, r3
    83b0:	1e5a      	subs	r2, r3, #1
    83b2:	4193      	sbcs	r3, r2
    83b4:	b2db      	uxtb	r3, r3
    83b6:	0018      	movs	r0, r3
    83b8:	46bd      	mov	sp, r7
    83ba:	b002      	add	sp, #8
    83bc:	bd80      	pop	{r7, pc}
	...

000083c0 <fnDEBUG_Const_String>:
    83c0:	b580      	push	{r7, lr}
    83c2:	b084      	sub	sp, #16
    83c4:	af00      	add	r7, sp, #0
    83c6:	6078      	str	r0, [r7, #4]
    83c8:	687b      	ldr	r3, [r7, #4]
    83ca:	0018      	movs	r0, r3
    83cc:	4b08      	ldr	r3, [pc, #32]	; (83f0 <fnDEBUG_Const_String+0x30>)
    83ce:	4798      	blx	r3
    83d0:	0002      	movs	r2, r0
    83d2:	230f      	movs	r3, #15
    83d4:	18fb      	adds	r3, r7, r3
    83d6:	701a      	strb	r2, [r3, #0]
    83d8:	230f      	movs	r3, #15
    83da:	18fb      	adds	r3, r7, r3
    83dc:	781a      	ldrb	r2, [r3, #0]
    83de:	687b      	ldr	r3, [r7, #4]
    83e0:	0011      	movs	r1, r2
    83e2:	0018      	movs	r0, r3
    83e4:	4b03      	ldr	r3, [pc, #12]	; (83f4 <fnDEBUG_Const_String+0x34>)
    83e6:	4798      	blx	r3
    83e8:	46c0      	nop			; (mov r8, r8)
    83ea:	46bd      	mov	sp, r7
    83ec:	b004      	add	sp, #16
    83ee:	bd80      	pop	{r7, pc}
    83f0:	00011d2d 	.word	0x00011d2d
    83f4:	00008a61 	.word	0x00008a61

000083f8 <fnDELAY_LOOP_us>:
    83f8:	b580      	push	{r7, lr}
    83fa:	b082      	sub	sp, #8
    83fc:	af00      	add	r7, sp, #0
    83fe:	0002      	movs	r2, r0
    8400:	1dbb      	adds	r3, r7, #6
    8402:	801a      	strh	r2, [r3, #0]
    8404:	1dbb      	adds	r3, r7, #6
    8406:	881b      	ldrh	r3, [r3, #0]
    8408:	0018      	movs	r0, r3
    840a:	4b03      	ldr	r3, [pc, #12]	; (8418 <fnDELAY_LOOP_us+0x20>)
    840c:	4798      	blx	r3
    840e:	46c0      	nop			; (mov r8, r8)
    8410:	46bd      	mov	sp, r7
    8412:	b002      	add	sp, #8
    8414:	bd80      	pop	{r7, pc}
    8416:	46c0      	nop			; (mov r8, r8)
    8418:	00008a99 	.word	0x00008a99

0000841c <fnDELAY_LOOP_ms>:
    841c:	b580      	push	{r7, lr}
    841e:	b082      	sub	sp, #8
    8420:	af00      	add	r7, sp, #0
    8422:	0002      	movs	r2, r0
    8424:	1dbb      	adds	r3, r7, #6
    8426:	801a      	strh	r2, [r3, #0]
    8428:	1dbb      	adds	r3, r7, #6
    842a:	881b      	ldrh	r3, [r3, #0]
    842c:	0018      	movs	r0, r3
    842e:	4b03      	ldr	r3, [pc, #12]	; (843c <fnDELAY_LOOP_ms+0x20>)
    8430:	4798      	blx	r3
    8432:	46c0      	nop			; (mov r8, r8)
    8434:	46bd      	mov	sp, r7
    8436:	b002      	add	sp, #8
    8438:	bd80      	pop	{r7, pc}
    843a:	46c0      	nop			; (mov r8, r8)
    843c:	00008b41 	.word	0x00008b41

00008440 <NVIC_SetPriority>:
    8440:	b5b0      	push	{r4, r5, r7, lr}
    8442:	b082      	sub	sp, #8
    8444:	af00      	add	r7, sp, #0
    8446:	0002      	movs	r2, r0
    8448:	6039      	str	r1, [r7, #0]
    844a:	1dfb      	adds	r3, r7, #7
    844c:	701a      	strb	r2, [r3, #0]
    844e:	1dfb      	adds	r3, r7, #7
    8450:	781b      	ldrb	r3, [r3, #0]
    8452:	2b7f      	cmp	r3, #127	; 0x7f
    8454:	d932      	bls.n	84bc <NVIC_SetPriority+0x7c>
    8456:	4c2f      	ldr	r4, [pc, #188]	; (8514 <NVIC_SetPriority+0xd4>)
    8458:	1dfb      	adds	r3, r7, #7
    845a:	781b      	ldrb	r3, [r3, #0]
    845c:	001a      	movs	r2, r3
    845e:	230f      	movs	r3, #15
    8460:	4013      	ands	r3, r2
    8462:	3b08      	subs	r3, #8
    8464:	0899      	lsrs	r1, r3, #2
    8466:	4a2b      	ldr	r2, [pc, #172]	; (8514 <NVIC_SetPriority+0xd4>)
    8468:	1dfb      	adds	r3, r7, #7
    846a:	781b      	ldrb	r3, [r3, #0]
    846c:	0018      	movs	r0, r3
    846e:	230f      	movs	r3, #15
    8470:	4003      	ands	r3, r0
    8472:	3b08      	subs	r3, #8
    8474:	089b      	lsrs	r3, r3, #2
    8476:	3306      	adds	r3, #6
    8478:	009b      	lsls	r3, r3, #2
    847a:	18d3      	adds	r3, r2, r3
    847c:	3304      	adds	r3, #4
    847e:	681b      	ldr	r3, [r3, #0]
    8480:	1dfa      	adds	r2, r7, #7
    8482:	7812      	ldrb	r2, [r2, #0]
    8484:	0010      	movs	r0, r2
    8486:	2203      	movs	r2, #3
    8488:	4002      	ands	r2, r0
    848a:	00d2      	lsls	r2, r2, #3
    848c:	20ff      	movs	r0, #255	; 0xff
    848e:	4090      	lsls	r0, r2
    8490:	0002      	movs	r2, r0
    8492:	43d2      	mvns	r2, r2
    8494:	401a      	ands	r2, r3
    8496:	683b      	ldr	r3, [r7, #0]
    8498:	019b      	lsls	r3, r3, #6
    849a:	20ff      	movs	r0, #255	; 0xff
    849c:	4018      	ands	r0, r3
    849e:	1dfb      	adds	r3, r7, #7
    84a0:	781b      	ldrb	r3, [r3, #0]
    84a2:	001d      	movs	r5, r3
    84a4:	2303      	movs	r3, #3
    84a6:	402b      	ands	r3, r5
    84a8:	00db      	lsls	r3, r3, #3
    84aa:	4098      	lsls	r0, r3
    84ac:	0003      	movs	r3, r0
    84ae:	431a      	orrs	r2, r3
    84b0:	1d8b      	adds	r3, r1, #6
    84b2:	009b      	lsls	r3, r3, #2
    84b4:	18e3      	adds	r3, r4, r3
    84b6:	3304      	adds	r3, #4
    84b8:	601a      	str	r2, [r3, #0]
    84ba:	e027      	b.n	850c <NVIC_SetPriority+0xcc>
    84bc:	4c16      	ldr	r4, [pc, #88]	; (8518 <NVIC_SetPriority+0xd8>)
    84be:	1dfb      	adds	r3, r7, #7
    84c0:	781b      	ldrb	r3, [r3, #0]
    84c2:	b25b      	sxtb	r3, r3
    84c4:	089b      	lsrs	r3, r3, #2
    84c6:	4914      	ldr	r1, [pc, #80]	; (8518 <NVIC_SetPriority+0xd8>)
    84c8:	1dfa      	adds	r2, r7, #7
    84ca:	7812      	ldrb	r2, [r2, #0]
    84cc:	b252      	sxtb	r2, r2
    84ce:	0892      	lsrs	r2, r2, #2
    84d0:	32c0      	adds	r2, #192	; 0xc0
    84d2:	0092      	lsls	r2, r2, #2
    84d4:	5852      	ldr	r2, [r2, r1]
    84d6:	1df9      	adds	r1, r7, #7
    84d8:	7809      	ldrb	r1, [r1, #0]
    84da:	0008      	movs	r0, r1
    84dc:	2103      	movs	r1, #3
    84de:	4001      	ands	r1, r0
    84e0:	00c9      	lsls	r1, r1, #3
    84e2:	20ff      	movs	r0, #255	; 0xff
    84e4:	4088      	lsls	r0, r1
    84e6:	0001      	movs	r1, r0
    84e8:	43c9      	mvns	r1, r1
    84ea:	4011      	ands	r1, r2
    84ec:	683a      	ldr	r2, [r7, #0]
    84ee:	0192      	lsls	r2, r2, #6
    84f0:	20ff      	movs	r0, #255	; 0xff
    84f2:	4010      	ands	r0, r2
    84f4:	1dfa      	adds	r2, r7, #7
    84f6:	7812      	ldrb	r2, [r2, #0]
    84f8:	0015      	movs	r5, r2
    84fa:	2203      	movs	r2, #3
    84fc:	402a      	ands	r2, r5
    84fe:	00d2      	lsls	r2, r2, #3
    8500:	4090      	lsls	r0, r2
    8502:	0002      	movs	r2, r0
    8504:	430a      	orrs	r2, r1
    8506:	33c0      	adds	r3, #192	; 0xc0
    8508:	009b      	lsls	r3, r3, #2
    850a:	511a      	str	r2, [r3, r4]
    850c:	46c0      	nop			; (mov r8, r8)
    850e:	46bd      	mov	sp, r7
    8510:	b002      	add	sp, #8
    8512:	bdb0      	pop	{r4, r5, r7, pc}
    8514:	e000ed00 	.word	0xe000ed00
    8518:	e000e100 	.word	0xe000e100

0000851c <SysTick_Disable>:
    851c:	b580      	push	{r7, lr}
    851e:	af00      	add	r7, sp, #0
    8520:	2301      	movs	r3, #1
    8522:	425b      	negs	r3, r3
    8524:	2103      	movs	r1, #3
    8526:	0018      	movs	r0, r3
    8528:	4b05      	ldr	r3, [pc, #20]	; (8540 <SysTick_Disable+0x24>)
    852a:	4798      	blx	r3
    852c:	4b05      	ldr	r3, [pc, #20]	; (8544 <SysTick_Disable+0x28>)
    852e:	2200      	movs	r2, #0
    8530:	609a      	str	r2, [r3, #8]
    8532:	4b04      	ldr	r3, [pc, #16]	; (8544 <SysTick_Disable+0x28>)
    8534:	2200      	movs	r2, #0
    8536:	601a      	str	r2, [r3, #0]
    8538:	2300      	movs	r3, #0
    853a:	0018      	movs	r0, r3
    853c:	46bd      	mov	sp, r7
    853e:	bd80      	pop	{r7, pc}
    8540:	00008441 	.word	0x00008441
    8544:	e000e010 	.word	0xe000e010

00008548 <fnTIMER_System_Tick_Init>:
    8548:	b580      	push	{r7, lr}
    854a:	b082      	sub	sp, #8
    854c:	af00      	add	r7, sp, #0
    854e:	4b0c      	ldr	r3, [pc, #48]	; (8580 <fnTIMER_System_Tick_Init+0x38>)
    8550:	2200      	movs	r2, #0
    8552:	601a      	str	r2, [r3, #0]
    8554:	1dfb      	adds	r3, r7, #7
    8556:	2200      	movs	r2, #0
    8558:	701a      	strb	r2, [r3, #0]
    855a:	e009      	b.n	8570 <fnTIMER_System_Tick_Init+0x28>
    855c:	1dfb      	adds	r3, r7, #7
    855e:	781b      	ldrb	r3, [r3, #0]
    8560:	0018      	movs	r0, r3
    8562:	4b08      	ldr	r3, [pc, #32]	; (8584 <fnTIMER_System_Tick_Init+0x3c>)
    8564:	4798      	blx	r3
    8566:	1dfb      	adds	r3, r7, #7
    8568:	781a      	ldrb	r2, [r3, #0]
    856a:	1dfb      	adds	r3, r7, #7
    856c:	3201      	adds	r2, #1
    856e:	701a      	strb	r2, [r3, #0]
    8570:	1dfb      	adds	r3, r7, #7
    8572:	781b      	ldrb	r3, [r3, #0]
    8574:	2b0f      	cmp	r3, #15
    8576:	d9f1      	bls.n	855c <fnTIMER_System_Tick_Init+0x14>
    8578:	46c0      	nop			; (mov r8, r8)
    857a:	46bd      	mov	sp, r7
    857c:	b002      	add	sp, #8
    857e:	bd80      	pop	{r7, pc}
    8580:	20000ad0 	.word	0x20000ad0
    8584:	000086e5 	.word	0x000086e5

00008588 <fnTIMER_System_Tick>:
    8588:	b580      	push	{r7, lr}
    858a:	af00      	add	r7, sp, #0
    858c:	4b04      	ldr	r3, [pc, #16]	; (85a0 <fnTIMER_System_Tick+0x18>)
    858e:	681b      	ldr	r3, [r3, #0]
    8590:	1c5a      	adds	r2, r3, #1
    8592:	4b03      	ldr	r3, [pc, #12]	; (85a0 <fnTIMER_System_Tick+0x18>)
    8594:	601a      	str	r2, [r3, #0]
    8596:	4b03      	ldr	r3, [pc, #12]	; (85a4 <fnTIMER_System_Tick+0x1c>)
    8598:	4798      	blx	r3
    859a:	46c0      	nop			; (mov r8, r8)
    859c:	46bd      	mov	sp, r7
    859e:	bd80      	pop	{r7, pc}
    85a0:	20000ad0 	.word	0x20000ad0
    85a4:	00008781 	.word	0x00008781

000085a8 <fnTIMER_Start>:
    85a8:	b580      	push	{r7, lr}
    85aa:	b086      	sub	sp, #24
    85ac:	af00      	add	r7, sp, #0
    85ae:	60f8      	str	r0, [r7, #12]
    85b0:	60b9      	str	r1, [r7, #8]
    85b2:	603b      	str	r3, [r7, #0]
    85b4:	1dfb      	adds	r3, r7, #7
    85b6:	701a      	strb	r2, [r3, #0]
    85b8:	2317      	movs	r3, #23
    85ba:	18fb      	adds	r3, r7, r3
    85bc:	2200      	movs	r2, #0
    85be:	701a      	strb	r2, [r3, #0]
    85c0:	e014      	b.n	85ec <fnTIMER_Start+0x44>
    85c2:	2317      	movs	r3, #23
    85c4:	18fb      	adds	r3, r7, r3
    85c6:	781a      	ldrb	r2, [r3, #0]
    85c8:	4944      	ldr	r1, [pc, #272]	; (86dc <fnTIMER_Start+0x134>)
    85ca:	0013      	movs	r3, r2
    85cc:	00db      	lsls	r3, r3, #3
    85ce:	1a9b      	subs	r3, r3, r2
    85d0:	009b      	lsls	r3, r3, #2
    85d2:	5c5b      	ldrb	r3, [r3, r1]
    85d4:	2201      	movs	r2, #1
    85d6:	4053      	eors	r3, r2
    85d8:	b2db      	uxtb	r3, r3
    85da:	2b00      	cmp	r3, #0
    85dc:	d10c      	bne.n	85f8 <fnTIMER_Start+0x50>
    85de:	2317      	movs	r3, #23
    85e0:	18fb      	adds	r3, r7, r3
    85e2:	781a      	ldrb	r2, [r3, #0]
    85e4:	2317      	movs	r3, #23
    85e6:	18fb      	adds	r3, r7, r3
    85e8:	3201      	adds	r2, #1
    85ea:	701a      	strb	r2, [r3, #0]
    85ec:	2317      	movs	r3, #23
    85ee:	18fb      	adds	r3, r7, r3
    85f0:	781b      	ldrb	r3, [r3, #0]
    85f2:	2b0f      	cmp	r3, #15
    85f4:	d9e5      	bls.n	85c2 <fnTIMER_Start+0x1a>
    85f6:	e000      	b.n	85fa <fnTIMER_Start+0x52>
    85f8:	46c0      	nop			; (mov r8, r8)
    85fa:	2317      	movs	r3, #23
    85fc:	18fb      	adds	r3, r7, r3
    85fe:	781b      	ldrb	r3, [r3, #0]
    8600:	2b0f      	cmp	r3, #15
    8602:	d901      	bls.n	8608 <fnTIMER_Start+0x60>
    8604:	2301      	movs	r3, #1
    8606:	e065      	b.n	86d4 <fnTIMER_Start+0x12c>
    8608:	4b35      	ldr	r3, [pc, #212]	; (86e0 <fnTIMER_Start+0x138>)
    860a:	4798      	blx	r3
    860c:	68fb      	ldr	r3, [r7, #12]
    860e:	2b00      	cmp	r3, #0
    8610:	d013      	beq.n	863a <fnTIMER_Start+0x92>
    8612:	68fb      	ldr	r3, [r7, #12]
    8614:	2201      	movs	r2, #1
    8616:	701a      	strb	r2, [r3, #0]
    8618:	68fb      	ldr	r3, [r7, #12]
    861a:	2217      	movs	r2, #23
    861c:	18ba      	adds	r2, r7, r2
    861e:	7812      	ldrb	r2, [r2, #0]
    8620:	705a      	strb	r2, [r3, #1]
    8622:	2317      	movs	r3, #23
    8624:	18fb      	adds	r3, r7, r3
    8626:	781a      	ldrb	r2, [r3, #0]
    8628:	492c      	ldr	r1, [pc, #176]	; (86dc <fnTIMER_Start+0x134>)
    862a:	0013      	movs	r3, r2
    862c:	00db      	lsls	r3, r3, #3
    862e:	1a9b      	subs	r3, r3, r2
    8630:	009b      	lsls	r3, r3, #2
    8632:	18cb      	adds	r3, r1, r3
    8634:	3314      	adds	r3, #20
    8636:	68fa      	ldr	r2, [r7, #12]
    8638:	601a      	str	r2, [r3, #0]
    863a:	2317      	movs	r3, #23
    863c:	18fb      	adds	r3, r7, r3
    863e:	781a      	ldrb	r2, [r3, #0]
    8640:	4926      	ldr	r1, [pc, #152]	; (86dc <fnTIMER_Start+0x134>)
    8642:	0013      	movs	r3, r2
    8644:	00db      	lsls	r3, r3, #3
    8646:	1a9b      	subs	r3, r3, r2
    8648:	009b      	lsls	r3, r3, #2
    864a:	2201      	movs	r2, #1
    864c:	545a      	strb	r2, [r3, r1]
    864e:	2317      	movs	r3, #23
    8650:	18fb      	adds	r3, r7, r3
    8652:	781a      	ldrb	r2, [r3, #0]
    8654:	4921      	ldr	r1, [pc, #132]	; (86dc <fnTIMER_Start+0x134>)
    8656:	0013      	movs	r3, r2
    8658:	00db      	lsls	r3, r3, #3
    865a:	1a9b      	subs	r3, r3, r2
    865c:	009b      	lsls	r3, r3, #2
    865e:	18cb      	adds	r3, r1, r3
    8660:	3304      	adds	r3, #4
    8662:	68ba      	ldr	r2, [r7, #8]
    8664:	601a      	str	r2, [r3, #0]
    8666:	2317      	movs	r3, #23
    8668:	18fb      	adds	r3, r7, r3
    866a:	781a      	ldrb	r2, [r3, #0]
    866c:	491b      	ldr	r1, [pc, #108]	; (86dc <fnTIMER_Start+0x134>)
    866e:	0013      	movs	r3, r2
    8670:	00db      	lsls	r3, r3, #3
    8672:	1a9b      	subs	r3, r3, r2
    8674:	009b      	lsls	r3, r3, #2
    8676:	18cb      	adds	r3, r1, r3
    8678:	3308      	adds	r3, #8
    867a:	68ba      	ldr	r2, [r7, #8]
    867c:	601a      	str	r2, [r3, #0]
    867e:	2317      	movs	r3, #23
    8680:	18fb      	adds	r3, r7, r3
    8682:	781a      	ldrb	r2, [r3, #0]
    8684:	4915      	ldr	r1, [pc, #84]	; (86dc <fnTIMER_Start+0x134>)
    8686:	0013      	movs	r3, r2
    8688:	00db      	lsls	r3, r3, #3
    868a:	1a9b      	subs	r3, r3, r2
    868c:	009b      	lsls	r3, r3, #2
    868e:	18cb      	adds	r3, r1, r3
    8690:	330c      	adds	r3, #12
    8692:	1dfa      	adds	r2, r7, #7
    8694:	7812      	ldrb	r2, [r2, #0]
    8696:	701a      	strb	r2, [r3, #0]
    8698:	2317      	movs	r3, #23
    869a:	18fb      	adds	r3, r7, r3
    869c:	781a      	ldrb	r2, [r3, #0]
    869e:	490f      	ldr	r1, [pc, #60]	; (86dc <fnTIMER_Start+0x134>)
    86a0:	0013      	movs	r3, r2
    86a2:	00db      	lsls	r3, r3, #3
    86a4:	1a9b      	subs	r3, r3, r2
    86a6:	009b      	lsls	r3, r3, #2
    86a8:	18cb      	adds	r3, r1, r3
    86aa:	3310      	adds	r3, #16
    86ac:	683a      	ldr	r2, [r7, #0]
    86ae:	601a      	str	r2, [r3, #0]
    86b0:	2317      	movs	r3, #23
    86b2:	18fb      	adds	r3, r7, r3
    86b4:	781a      	ldrb	r2, [r3, #0]
    86b6:	4909      	ldr	r1, [pc, #36]	; (86dc <fnTIMER_Start+0x134>)
    86b8:	0013      	movs	r3, r2
    86ba:	00db      	lsls	r3, r3, #3
    86bc:	1a9b      	subs	r3, r3, r2
    86be:	009b      	lsls	r3, r3, #2
    86c0:	18cb      	adds	r3, r1, r3
    86c2:	3318      	adds	r3, #24
    86c4:	6a3a      	ldr	r2, [r7, #32]
    86c6:	601a      	str	r2, [r3, #0]
    86c8:	2317      	movs	r3, #23
    86ca:	18fb      	adds	r3, r7, r3
    86cc:	781b      	ldrb	r3, [r3, #0]
    86ce:	1e5a      	subs	r2, r3, #1
    86d0:	4193      	sbcs	r3, r2
    86d2:	b2db      	uxtb	r3, r3
    86d4:	0018      	movs	r0, r3
    86d6:	46bd      	mov	sp, r7
    86d8:	b006      	add	sp, #24
    86da:	bd80      	pop	{r7, pc}
    86dc:	20000910 	.word	0x20000910
    86e0:	000088ad 	.word	0x000088ad

000086e4 <fnTIMER_Stop>:
    86e4:	b580      	push	{r7, lr}
    86e6:	b082      	sub	sp, #8
    86e8:	af00      	add	r7, sp, #0
    86ea:	0002      	movs	r2, r0
    86ec:	1dfb      	adds	r3, r7, #7
    86ee:	701a      	strb	r2, [r3, #0]
    86f0:	1dfb      	adds	r3, r7, #7
    86f2:	781b      	ldrb	r3, [r3, #0]
    86f4:	2b0f      	cmp	r3, #15
    86f6:	d83b      	bhi.n	8770 <fnTIMER_Stop+0x8c>
    86f8:	1dfb      	adds	r3, r7, #7
    86fa:	781a      	ldrb	r2, [r3, #0]
    86fc:	491e      	ldr	r1, [pc, #120]	; (8778 <fnTIMER_Stop+0x94>)
    86fe:	0013      	movs	r3, r2
    8700:	00db      	lsls	r3, r3, #3
    8702:	1a9b      	subs	r3, r3, r2
    8704:	009b      	lsls	r3, r3, #2
    8706:	18cb      	adds	r3, r1, r3
    8708:	3314      	adds	r3, #20
    870a:	681b      	ldr	r3, [r3, #0]
    870c:	2b00      	cmp	r3, #0
    870e:	d022      	beq.n	8756 <fnTIMER_Stop+0x72>
    8710:	1dfb      	adds	r3, r7, #7
    8712:	781a      	ldrb	r2, [r3, #0]
    8714:	4918      	ldr	r1, [pc, #96]	; (8778 <fnTIMER_Stop+0x94>)
    8716:	0013      	movs	r3, r2
    8718:	00db      	lsls	r3, r3, #3
    871a:	1a9b      	subs	r3, r3, r2
    871c:	009b      	lsls	r3, r3, #2
    871e:	18cb      	adds	r3, r1, r3
    8720:	3314      	adds	r3, #20
    8722:	681b      	ldr	r3, [r3, #0]
    8724:	2200      	movs	r2, #0
    8726:	701a      	strb	r2, [r3, #0]
    8728:	1dfb      	adds	r3, r7, #7
    872a:	781a      	ldrb	r2, [r3, #0]
    872c:	4912      	ldr	r1, [pc, #72]	; (8778 <fnTIMER_Stop+0x94>)
    872e:	0013      	movs	r3, r2
    8730:	00db      	lsls	r3, r3, #3
    8732:	1a9b      	subs	r3, r3, r2
    8734:	009b      	lsls	r3, r3, #2
    8736:	18cb      	adds	r3, r1, r3
    8738:	3314      	adds	r3, #20
    873a:	681b      	ldr	r3, [r3, #0]
    873c:	22ff      	movs	r2, #255	; 0xff
    873e:	705a      	strb	r2, [r3, #1]
    8740:	1dfb      	adds	r3, r7, #7
    8742:	781a      	ldrb	r2, [r3, #0]
    8744:	490c      	ldr	r1, [pc, #48]	; (8778 <fnTIMER_Stop+0x94>)
    8746:	0013      	movs	r3, r2
    8748:	00db      	lsls	r3, r3, #3
    874a:	1a9b      	subs	r3, r3, r2
    874c:	009b      	lsls	r3, r3, #2
    874e:	18cb      	adds	r3, r1, r3
    8750:	3314      	adds	r3, #20
    8752:	2200      	movs	r2, #0
    8754:	601a      	str	r2, [r3, #0]
    8756:	1dfb      	adds	r3, r7, #7
    8758:	781a      	ldrb	r2, [r3, #0]
    875a:	4907      	ldr	r1, [pc, #28]	; (8778 <fnTIMER_Stop+0x94>)
    875c:	0013      	movs	r3, r2
    875e:	00db      	lsls	r3, r3, #3
    8760:	1a9b      	subs	r3, r3, r2
    8762:	009b      	lsls	r3, r3, #2
    8764:	2200      	movs	r2, #0
    8766:	545a      	strb	r2, [r3, r1]
    8768:	4b04      	ldr	r3, [pc, #16]	; (877c <fnTIMER_Stop+0x98>)
    876a:	4798      	blx	r3
    876c:	46c0      	nop			; (mov r8, r8)
    876e:	e000      	b.n	8772 <fnTIMER_Stop+0x8e>
    8770:	46c0      	nop			; (mov r8, r8)
    8772:	46bd      	mov	sp, r7
    8774:	b002      	add	sp, #8
    8776:	bd80      	pop	{r7, pc}
    8778:	20000910 	.word	0x20000910
    877c:	000088e9 	.word	0x000088e9

00008780 <fnTIMER_Update_Counters>:
    8780:	b580      	push	{r7, lr}
    8782:	b082      	sub	sp, #8
    8784:	af00      	add	r7, sp, #0
    8786:	1dfb      	adds	r3, r7, #7
    8788:	2200      	movs	r2, #0
    878a:	701a      	strb	r2, [r3, #0]
    878c:	e081      	b.n	8892 <fnTIMER_Update_Counters+0x112>
    878e:	1dfb      	adds	r3, r7, #7
    8790:	781a      	ldrb	r2, [r3, #0]
    8792:	4944      	ldr	r1, [pc, #272]	; (88a4 <fnTIMER_Update_Counters+0x124>)
    8794:	0013      	movs	r3, r2
    8796:	00db      	lsls	r3, r3, #3
    8798:	1a9b      	subs	r3, r3, r2
    879a:	009b      	lsls	r3, r3, #2
    879c:	5c5b      	ldrb	r3, [r3, r1]
    879e:	2b00      	cmp	r3, #0
    87a0:	d072      	beq.n	8888 <fnTIMER_Update_Counters+0x108>
    87a2:	1dfb      	adds	r3, r7, #7
    87a4:	781a      	ldrb	r2, [r3, #0]
    87a6:	493f      	ldr	r1, [pc, #252]	; (88a4 <fnTIMER_Update_Counters+0x124>)
    87a8:	0013      	movs	r3, r2
    87aa:	00db      	lsls	r3, r3, #3
    87ac:	1a9b      	subs	r3, r3, r2
    87ae:	009b      	lsls	r3, r3, #2
    87b0:	18cb      	adds	r3, r1, r3
    87b2:	3304      	adds	r3, #4
    87b4:	681b      	ldr	r3, [r3, #0]
    87b6:	2b00      	cmp	r3, #0
    87b8:	d012      	beq.n	87e0 <fnTIMER_Update_Counters+0x60>
    87ba:	1dfb      	adds	r3, r7, #7
    87bc:	781a      	ldrb	r2, [r3, #0]
    87be:	4939      	ldr	r1, [pc, #228]	; (88a4 <fnTIMER_Update_Counters+0x124>)
    87c0:	0013      	movs	r3, r2
    87c2:	00db      	lsls	r3, r3, #3
    87c4:	1a9b      	subs	r3, r3, r2
    87c6:	009b      	lsls	r3, r3, #2
    87c8:	18cb      	adds	r3, r1, r3
    87ca:	3304      	adds	r3, #4
    87cc:	681b      	ldr	r3, [r3, #0]
    87ce:	1e59      	subs	r1, r3, #1
    87d0:	4834      	ldr	r0, [pc, #208]	; (88a4 <fnTIMER_Update_Counters+0x124>)
    87d2:	0013      	movs	r3, r2
    87d4:	00db      	lsls	r3, r3, #3
    87d6:	1a9b      	subs	r3, r3, r2
    87d8:	009b      	lsls	r3, r3, #2
    87da:	18c3      	adds	r3, r0, r3
    87dc:	3304      	adds	r3, #4
    87de:	6019      	str	r1, [r3, #0]
    87e0:	1dfb      	adds	r3, r7, #7
    87e2:	781a      	ldrb	r2, [r3, #0]
    87e4:	492f      	ldr	r1, [pc, #188]	; (88a4 <fnTIMER_Update_Counters+0x124>)
    87e6:	0013      	movs	r3, r2
    87e8:	00db      	lsls	r3, r3, #3
    87ea:	1a9b      	subs	r3, r3, r2
    87ec:	009b      	lsls	r3, r3, #2
    87ee:	18cb      	adds	r3, r1, r3
    87f0:	3304      	adds	r3, #4
    87f2:	681b      	ldr	r3, [r3, #0]
    87f4:	2b00      	cmp	r3, #0
    87f6:	d147      	bne.n	8888 <fnTIMER_Update_Counters+0x108>
    87f8:	1dfb      	adds	r3, r7, #7
    87fa:	781a      	ldrb	r2, [r3, #0]
    87fc:	4929      	ldr	r1, [pc, #164]	; (88a4 <fnTIMER_Update_Counters+0x124>)
    87fe:	0013      	movs	r3, r2
    8800:	00db      	lsls	r3, r3, #3
    8802:	1a9b      	subs	r3, r3, r2
    8804:	009b      	lsls	r3, r3, #2
    8806:	18cb      	adds	r3, r1, r3
    8808:	330c      	adds	r3, #12
    880a:	781b      	ldrb	r3, [r3, #0]
    880c:	2b01      	cmp	r3, #1
    880e:	d114      	bne.n	883a <fnTIMER_Update_Counters+0xba>
    8810:	1dfb      	adds	r3, r7, #7
    8812:	781a      	ldrb	r2, [r3, #0]
    8814:	1dfb      	adds	r3, r7, #7
    8816:	7819      	ldrb	r1, [r3, #0]
    8818:	4822      	ldr	r0, [pc, #136]	; (88a4 <fnTIMER_Update_Counters+0x124>)
    881a:	000b      	movs	r3, r1
    881c:	00db      	lsls	r3, r3, #3
    881e:	1a5b      	subs	r3, r3, r1
    8820:	009b      	lsls	r3, r3, #2
    8822:	18c3      	adds	r3, r0, r3
    8824:	3308      	adds	r3, #8
    8826:	6819      	ldr	r1, [r3, #0]
    8828:	481e      	ldr	r0, [pc, #120]	; (88a4 <fnTIMER_Update_Counters+0x124>)
    882a:	0013      	movs	r3, r2
    882c:	00db      	lsls	r3, r3, #3
    882e:	1a9b      	subs	r3, r3, r2
    8830:	009b      	lsls	r3, r3, #2
    8832:	18c3      	adds	r3, r0, r3
    8834:	3304      	adds	r3, #4
    8836:	6019      	str	r1, [r3, #0]
    8838:	e004      	b.n	8844 <fnTIMER_Update_Counters+0xc4>
    883a:	1dfb      	adds	r3, r7, #7
    883c:	781b      	ldrb	r3, [r3, #0]
    883e:	0018      	movs	r0, r3
    8840:	4b19      	ldr	r3, [pc, #100]	; (88a8 <fnTIMER_Update_Counters+0x128>)
    8842:	4798      	blx	r3
    8844:	1dfb      	adds	r3, r7, #7
    8846:	781a      	ldrb	r2, [r3, #0]
    8848:	4916      	ldr	r1, [pc, #88]	; (88a4 <fnTIMER_Update_Counters+0x124>)
    884a:	0013      	movs	r3, r2
    884c:	00db      	lsls	r3, r3, #3
    884e:	1a9b      	subs	r3, r3, r2
    8850:	009b      	lsls	r3, r3, #2
    8852:	18cb      	adds	r3, r1, r3
    8854:	3310      	adds	r3, #16
    8856:	681b      	ldr	r3, [r3, #0]
    8858:	2b00      	cmp	r3, #0
    885a:	d015      	beq.n	8888 <fnTIMER_Update_Counters+0x108>
    885c:	1dfb      	adds	r3, r7, #7
    885e:	781a      	ldrb	r2, [r3, #0]
    8860:	4910      	ldr	r1, [pc, #64]	; (88a4 <fnTIMER_Update_Counters+0x124>)
    8862:	0013      	movs	r3, r2
    8864:	00db      	lsls	r3, r3, #3
    8866:	1a9b      	subs	r3, r3, r2
    8868:	009b      	lsls	r3, r3, #2
    886a:	18cb      	adds	r3, r1, r3
    886c:	3310      	adds	r3, #16
    886e:	6819      	ldr	r1, [r3, #0]
    8870:	1dfb      	adds	r3, r7, #7
    8872:	781a      	ldrb	r2, [r3, #0]
    8874:	480b      	ldr	r0, [pc, #44]	; (88a4 <fnTIMER_Update_Counters+0x124>)
    8876:	0013      	movs	r3, r2
    8878:	00db      	lsls	r3, r3, #3
    887a:	1a9b      	subs	r3, r3, r2
    887c:	009b      	lsls	r3, r3, #2
    887e:	18c3      	adds	r3, r0, r3
    8880:	3318      	adds	r3, #24
    8882:	681b      	ldr	r3, [r3, #0]
    8884:	0018      	movs	r0, r3
    8886:	4788      	blx	r1
    8888:	1dfb      	adds	r3, r7, #7
    888a:	781a      	ldrb	r2, [r3, #0]
    888c:	1dfb      	adds	r3, r7, #7
    888e:	3201      	adds	r2, #1
    8890:	701a      	strb	r2, [r3, #0]
    8892:	1dfb      	adds	r3, r7, #7
    8894:	781b      	ldrb	r3, [r3, #0]
    8896:	2b0f      	cmp	r3, #15
    8898:	d800      	bhi.n	889c <fnTIMER_Update_Counters+0x11c>
    889a:	e778      	b.n	878e <fnTIMER_Update_Counters+0xe>
    889c:	46c0      	nop			; (mov r8, r8)
    889e:	46bd      	mov	sp, r7
    88a0:	b002      	add	sp, #8
    88a2:	bd80      	pop	{r7, pc}
    88a4:	20000910 	.word	0x20000910
    88a8:	000086e5 	.word	0x000086e5

000088ac <fnTIMER_HAL_Enable>:
    88ac:	b580      	push	{r7, lr}
    88ae:	af00      	add	r7, sp, #0
    88b0:	4b0a      	ldr	r3, [pc, #40]	; (88dc <fnTIMER_HAL_Enable+0x30>)
    88b2:	781b      	ldrb	r3, [r3, #0]
    88b4:	b2db      	uxtb	r3, r3
    88b6:	2b00      	cmp	r3, #0
    88b8:	d106      	bne.n	88c8 <fnTIMER_HAL_Enable+0x1c>
    88ba:	4b09      	ldr	r3, [pc, #36]	; (88e0 <fnTIMER_HAL_Enable+0x34>)
    88bc:	4798      	blx	r3
    88be:	4b09      	ldr	r3, [pc, #36]	; (88e4 <fnTIMER_HAL_Enable+0x38>)
    88c0:	781a      	ldrb	r2, [r3, #0]
    88c2:	2102      	movs	r1, #2
    88c4:	430a      	orrs	r2, r1
    88c6:	701a      	strb	r2, [r3, #0]
    88c8:	4b04      	ldr	r3, [pc, #16]	; (88dc <fnTIMER_HAL_Enable+0x30>)
    88ca:	781b      	ldrb	r3, [r3, #0]
    88cc:	b2db      	uxtb	r3, r3
    88ce:	3301      	adds	r3, #1
    88d0:	b2da      	uxtb	r2, r3
    88d2:	4b02      	ldr	r3, [pc, #8]	; (88dc <fnTIMER_HAL_Enable+0x30>)
    88d4:	701a      	strb	r2, [r3, #0]
    88d6:	46c0      	nop			; (mov r8, r8)
    88d8:	46bd      	mov	sp, r7
    88da:	bd80      	pop	{r7, pc}
    88dc:	20000566 	.word	0x20000566
    88e0:	0000b411 	.word	0x0000b411
    88e4:	20000b6c 	.word	0x20000b6c

000088e8 <fnTIMER_HAL_Disable>:
    88e8:	b580      	push	{r7, lr}
    88ea:	af00      	add	r7, sp, #0
    88ec:	4b0d      	ldr	r3, [pc, #52]	; (8924 <fnTIMER_HAL_Disable+0x3c>)
    88ee:	781b      	ldrb	r3, [r3, #0]
    88f0:	b2db      	uxtb	r3, r3
    88f2:	2b00      	cmp	r3, #0
    88f4:	d006      	beq.n	8904 <fnTIMER_HAL_Disable+0x1c>
    88f6:	4b0b      	ldr	r3, [pc, #44]	; (8924 <fnTIMER_HAL_Disable+0x3c>)
    88f8:	781b      	ldrb	r3, [r3, #0]
    88fa:	b2db      	uxtb	r3, r3
    88fc:	3b01      	subs	r3, #1
    88fe:	b2da      	uxtb	r2, r3
    8900:	4b08      	ldr	r3, [pc, #32]	; (8924 <fnTIMER_HAL_Disable+0x3c>)
    8902:	701a      	strb	r2, [r3, #0]
    8904:	4b07      	ldr	r3, [pc, #28]	; (8924 <fnTIMER_HAL_Disable+0x3c>)
    8906:	781b      	ldrb	r3, [r3, #0]
    8908:	b2db      	uxtb	r3, r3
    890a:	2b00      	cmp	r3, #0
    890c:	d106      	bne.n	891c <fnTIMER_HAL_Disable+0x34>
    890e:	4b06      	ldr	r3, [pc, #24]	; (8928 <fnTIMER_HAL_Disable+0x40>)
    8910:	4798      	blx	r3
    8912:	4b06      	ldr	r3, [pc, #24]	; (892c <fnTIMER_HAL_Disable+0x44>)
    8914:	781a      	ldrb	r2, [r3, #0]
    8916:	2102      	movs	r1, #2
    8918:	438a      	bics	r2, r1
    891a:	701a      	strb	r2, [r3, #0]
    891c:	46c0      	nop			; (mov r8, r8)
    891e:	46bd      	mov	sp, r7
    8920:	bd80      	pop	{r7, pc}
    8922:	46c0      	nop			; (mov r8, r8)
    8924:	20000566 	.word	0x20000566
    8928:	0000851d 	.word	0x0000851d
    892c:	20000b6c 	.word	0x20000b6c

00008930 <fnConvert_4bitHex_To_Ascii>:
    8930:	b580      	push	{r7, lr}
    8932:	b082      	sub	sp, #8
    8934:	af00      	add	r7, sp, #0
    8936:	0002      	movs	r2, r0
    8938:	1dfb      	adds	r3, r7, #7
    893a:	701a      	strb	r2, [r3, #0]
    893c:	1dfb      	adds	r3, r7, #7
    893e:	1dfa      	adds	r2, r7, #7
    8940:	7812      	ldrb	r2, [r2, #0]
    8942:	210f      	movs	r1, #15
    8944:	400a      	ands	r2, r1
    8946:	701a      	strb	r2, [r3, #0]
    8948:	1dfb      	adds	r3, r7, #7
    894a:	781b      	ldrb	r3, [r3, #0]
    894c:	2b09      	cmp	r3, #9
    894e:	d804      	bhi.n	895a <fnConvert_4bitHex_To_Ascii+0x2a>
    8950:	1dfb      	adds	r3, r7, #7
    8952:	781b      	ldrb	r3, [r3, #0]
    8954:	3330      	adds	r3, #48	; 0x30
    8956:	b2db      	uxtb	r3, r3
    8958:	e003      	b.n	8962 <fnConvert_4bitHex_To_Ascii+0x32>
    895a:	1dfb      	adds	r3, r7, #7
    895c:	781b      	ldrb	r3, [r3, #0]
    895e:	3337      	adds	r3, #55	; 0x37
    8960:	b2db      	uxtb	r3, r3
    8962:	0018      	movs	r0, r3
    8964:	46bd      	mov	sp, r7
    8966:	b002      	add	sp, #8
    8968:	bd80      	pop	{r7, pc}

0000896a <fnConvert_Ascii_To_4bitHex>:
    896a:	b580      	push	{r7, lr}
    896c:	b082      	sub	sp, #8
    896e:	af00      	add	r7, sp, #0
    8970:	0002      	movs	r2, r0
    8972:	1dfb      	adds	r3, r7, #7
    8974:	701a      	strb	r2, [r3, #0]
    8976:	1dfb      	adds	r3, r7, #7
    8978:	1dfa      	adds	r2, r7, #7
    897a:	7812      	ldrb	r2, [r2, #0]
    897c:	3a30      	subs	r2, #48	; 0x30
    897e:	701a      	strb	r2, [r3, #0]
    8980:	1dfb      	adds	r3, r7, #7
    8982:	781b      	ldrb	r3, [r3, #0]
    8984:	2b09      	cmp	r3, #9
    8986:	d904      	bls.n	8992 <fnConvert_Ascii_To_4bitHex+0x28>
    8988:	1dfb      	adds	r3, r7, #7
    898a:	1dfa      	adds	r2, r7, #7
    898c:	7812      	ldrb	r2, [r2, #0]
    898e:	3a07      	subs	r2, #7
    8990:	701a      	strb	r2, [r3, #0]
    8992:	1dfb      	adds	r3, r7, #7
    8994:	781b      	ldrb	r3, [r3, #0]
    8996:	0018      	movs	r0, r3
    8998:	46bd      	mov	sp, r7
    899a:	b002      	add	sp, #8
    899c:	bd80      	pop	{r7, pc}
	...

000089a0 <fnConvert_HexString_To_AsciiString>:
    89a0:	b590      	push	{r4, r7, lr}
    89a2:	b085      	sub	sp, #20
    89a4:	af00      	add	r7, sp, #0
    89a6:	60f8      	str	r0, [r7, #12]
    89a8:	60b9      	str	r1, [r7, #8]
    89aa:	1dfb      	adds	r3, r7, #7
    89ac:	701a      	strb	r2, [r3, #0]
    89ae:	e017      	b.n	89e0 <fnConvert_HexString_To_AsciiString+0x40>
    89b0:	68bc      	ldr	r4, [r7, #8]
    89b2:	1c63      	adds	r3, r4, #1
    89b4:	60bb      	str	r3, [r7, #8]
    89b6:	68fb      	ldr	r3, [r7, #12]
    89b8:	781b      	ldrb	r3, [r3, #0]
    89ba:	091b      	lsrs	r3, r3, #4
    89bc:	b2db      	uxtb	r3, r3
    89be:	0018      	movs	r0, r3
    89c0:	4b0d      	ldr	r3, [pc, #52]	; (89f8 <fnConvert_HexString_To_AsciiString+0x58>)
    89c2:	4798      	blx	r3
    89c4:	0003      	movs	r3, r0
    89c6:	7023      	strb	r3, [r4, #0]
    89c8:	68bc      	ldr	r4, [r7, #8]
    89ca:	1c63      	adds	r3, r4, #1
    89cc:	60bb      	str	r3, [r7, #8]
    89ce:	68fb      	ldr	r3, [r7, #12]
    89d0:	1c5a      	adds	r2, r3, #1
    89d2:	60fa      	str	r2, [r7, #12]
    89d4:	781b      	ldrb	r3, [r3, #0]
    89d6:	0018      	movs	r0, r3
    89d8:	4b07      	ldr	r3, [pc, #28]	; (89f8 <fnConvert_HexString_To_AsciiString+0x58>)
    89da:	4798      	blx	r3
    89dc:	0003      	movs	r3, r0
    89de:	7023      	strb	r3, [r4, #0]
    89e0:	1dfb      	adds	r3, r7, #7
    89e2:	781b      	ldrb	r3, [r3, #0]
    89e4:	1dfa      	adds	r2, r7, #7
    89e6:	1e59      	subs	r1, r3, #1
    89e8:	7011      	strb	r1, [r2, #0]
    89ea:	2b00      	cmp	r3, #0
    89ec:	d1e0      	bne.n	89b0 <fnConvert_HexString_To_AsciiString+0x10>
    89ee:	46c0      	nop			; (mov r8, r8)
    89f0:	46bd      	mov	sp, r7
    89f2:	b005      	add	sp, #20
    89f4:	bd90      	pop	{r4, r7, pc}
    89f6:	46c0      	nop			; (mov r8, r8)
    89f8:	00008931 	.word	0x00008931

000089fc <fnConvert_AsciiString_To_HexString>:
    89fc:	b580      	push	{r7, lr}
    89fe:	b084      	sub	sp, #16
    8a00:	af00      	add	r7, sp, #0
    8a02:	60f8      	str	r0, [r7, #12]
    8a04:	60b9      	str	r1, [r7, #8]
    8a06:	1dfb      	adds	r3, r7, #7
    8a08:	701a      	strb	r2, [r3, #0]
    8a0a:	e01b      	b.n	8a44 <fnConvert_AsciiString_To_HexString+0x48>
    8a0c:	68fb      	ldr	r3, [r7, #12]
    8a0e:	1c5a      	adds	r2, r3, #1
    8a10:	60fa      	str	r2, [r7, #12]
    8a12:	781b      	ldrb	r3, [r3, #0]
    8a14:	0018      	movs	r0, r3
    8a16:	4b11      	ldr	r3, [pc, #68]	; (8a5c <fnConvert_AsciiString_To_HexString+0x60>)
    8a18:	4798      	blx	r3
    8a1a:	0003      	movs	r3, r0
    8a1c:	011b      	lsls	r3, r3, #4
    8a1e:	b2da      	uxtb	r2, r3
    8a20:	68bb      	ldr	r3, [r7, #8]
    8a22:	701a      	strb	r2, [r3, #0]
    8a24:	68fb      	ldr	r3, [r7, #12]
    8a26:	1c5a      	adds	r2, r3, #1
    8a28:	60fa      	str	r2, [r7, #12]
    8a2a:	781b      	ldrb	r3, [r3, #0]
    8a2c:	0018      	movs	r0, r3
    8a2e:	4b0b      	ldr	r3, [pc, #44]	; (8a5c <fnConvert_AsciiString_To_HexString+0x60>)
    8a30:	4798      	blx	r3
    8a32:	0003      	movs	r3, r0
    8a34:	0019      	movs	r1, r3
    8a36:	68bb      	ldr	r3, [r7, #8]
    8a38:	1c5a      	adds	r2, r3, #1
    8a3a:	60ba      	str	r2, [r7, #8]
    8a3c:	781a      	ldrb	r2, [r3, #0]
    8a3e:	430a      	orrs	r2, r1
    8a40:	b2d2      	uxtb	r2, r2
    8a42:	701a      	strb	r2, [r3, #0]
    8a44:	1dfb      	adds	r3, r7, #7
    8a46:	781b      	ldrb	r3, [r3, #0]
    8a48:	1dfa      	adds	r2, r7, #7
    8a4a:	1e59      	subs	r1, r3, #1
    8a4c:	7011      	strb	r1, [r2, #0]
    8a4e:	2b00      	cmp	r3, #0
    8a50:	d1dc      	bne.n	8a0c <fnConvert_AsciiString_To_HexString+0x10>
    8a52:	46c0      	nop			; (mov r8, r8)
    8a54:	46bd      	mov	sp, r7
    8a56:	b004      	add	sp, #16
    8a58:	bd80      	pop	{r7, pc}
    8a5a:	46c0      	nop			; (mov r8, r8)
    8a5c:	0000896b 	.word	0x0000896b

00008a60 <fnDEBUG_PORT_Send_String>:
    8a60:	b580      	push	{r7, lr}
    8a62:	b082      	sub	sp, #8
    8a64:	af00      	add	r7, sp, #0
    8a66:	6078      	str	r0, [r7, #4]
    8a68:	000a      	movs	r2, r1
    8a6a:	1cfb      	adds	r3, r7, #3
    8a6c:	701a      	strb	r2, [r3, #0]
    8a6e:	4b08      	ldr	r3, [pc, #32]	; (8a90 <fnDEBUG_PORT_Send_String+0x30>)
    8a70:	4798      	blx	r3
    8a72:	1e03      	subs	r3, r0, #0
    8a74:	d007      	beq.n	8a86 <fnDEBUG_PORT_Send_String+0x26>
    8a76:	1cfb      	adds	r3, r7, #3
    8a78:	781a      	ldrb	r2, [r3, #0]
    8a7a:	687b      	ldr	r3, [r7, #4]
    8a7c:	0011      	movs	r1, r2
    8a7e:	0018      	movs	r0, r3
    8a80:	4b04      	ldr	r3, [pc, #16]	; (8a94 <fnDEBUG_PORT_Send_String+0x34>)
    8a82:	4798      	blx	r3
    8a84:	46c0      	nop			; (mov r8, r8)
    8a86:	46c0      	nop			; (mov r8, r8)
    8a88:	46bd      	mov	sp, r7
    8a8a:	b002      	add	sp, #8
    8a8c:	bd80      	pop	{r7, pc}
    8a8e:	46c0      	nop			; (mov r8, r8)
    8a90:	0000ac85 	.word	0x0000ac85
    8a94:	0000a325 	.word	0x0000a325

00008a98 <fnDELAY_LOOP_PORT_us>:
    8a98:	b5f0      	push	{r4, r5, r6, r7, lr}
    8a9a:	b083      	sub	sp, #12
    8a9c:	af00      	add	r7, sp, #0
    8a9e:	1dbb      	adds	r3, r7, #6
    8aa0:	8018      	strh	r0, [r3, #0]
    8aa2:	4b1f      	ldr	r3, [pc, #124]	; (8b20 <fnDELAY_LOOP_PORT_us+0x88>)
    8aa4:	781b      	ldrb	r3, [r3, #0]
    8aa6:	2b00      	cmp	r3, #0
    8aa8:	d016      	beq.n	8ad8 <fnDELAY_LOOP_PORT_us+0x40>
    8aaa:	1dbb      	adds	r3, r7, #6
    8aac:	881b      	ldrh	r3, [r3, #0]
    8aae:	481d      	ldr	r0, [pc, #116]	; (8b24 <fnDELAY_LOOP_PORT_us+0x8c>)
    8ab0:	4343      	muls	r3, r0
    8ab2:	0019      	movs	r1, r3
    8ab4:	2300      	movs	r3, #0
    8ab6:	001a      	movs	r2, r3
    8ab8:	4b1b      	ldr	r3, [pc, #108]	; (8b28 <fnDELAY_LOOP_PORT_us+0x90>)
    8aba:	2400      	movs	r4, #0
    8abc:	18c9      	adds	r1, r1, r3
    8abe:	4162      	adcs	r2, r4
    8ac0:	0008      	movs	r0, r1
    8ac2:	0011      	movs	r1, r2
    8ac4:	4c19      	ldr	r4, [pc, #100]	; (8b2c <fnDELAY_LOOP_PORT_us+0x94>)
    8ac6:	4a1a      	ldr	r2, [pc, #104]	; (8b30 <fnDELAY_LOOP_PORT_us+0x98>)
    8ac8:	2300      	movs	r3, #0
    8aca:	47a0      	blx	r4
    8acc:	0003      	movs	r3, r0
    8ace:	000c      	movs	r4, r1
    8ad0:	0018      	movs	r0, r3
    8ad2:	4b18      	ldr	r3, [pc, #96]	; (8b34 <fnDELAY_LOOP_PORT_us+0x9c>)
    8ad4:	4798      	blx	r3
    8ad6:	e01f      	b.n	8b18 <fnDELAY_LOOP_PORT_us+0x80>
    8ad8:	1dbb      	adds	r3, r7, #6
    8ada:	881b      	ldrh	r3, [r3, #0]
    8adc:	b29b      	uxth	r3, r3
    8ade:	001d      	movs	r5, r3
    8ae0:	2300      	movs	r3, #0
    8ae2:	001e      	movs	r6, r3
    8ae4:	4c14      	ldr	r4, [pc, #80]	; (8b38 <fnDELAY_LOOP_PORT_us+0xa0>)
    8ae6:	4a15      	ldr	r2, [pc, #84]	; (8b3c <fnDELAY_LOOP_PORT_us+0xa4>)
    8ae8:	2300      	movs	r3, #0
    8aea:	0028      	movs	r0, r5
    8aec:	0031      	movs	r1, r6
    8aee:	47a0      	blx	r4
    8af0:	0003      	movs	r3, r0
    8af2:	000c      	movs	r4, r1
    8af4:	0019      	movs	r1, r3
    8af6:	0022      	movs	r2, r4
    8af8:	4b0b      	ldr	r3, [pc, #44]	; (8b28 <fnDELAY_LOOP_PORT_us+0x90>)
    8afa:	2400      	movs	r4, #0
    8afc:	18c9      	adds	r1, r1, r3
    8afe:	4162      	adcs	r2, r4
    8b00:	0008      	movs	r0, r1
    8b02:	0011      	movs	r1, r2
    8b04:	4c09      	ldr	r4, [pc, #36]	; (8b2c <fnDELAY_LOOP_PORT_us+0x94>)
    8b06:	4a0a      	ldr	r2, [pc, #40]	; (8b30 <fnDELAY_LOOP_PORT_us+0x98>)
    8b08:	2300      	movs	r3, #0
    8b0a:	47a0      	blx	r4
    8b0c:	0003      	movs	r3, r0
    8b0e:	000c      	movs	r4, r1
    8b10:	0018      	movs	r0, r3
    8b12:	4b08      	ldr	r3, [pc, #32]	; (8b34 <fnDELAY_LOOP_PORT_us+0x9c>)
    8b14:	4798      	blx	r3
    8b16:	46c0      	nop			; (mov r8, r8)
    8b18:	46bd      	mov	sp, r7
    8b1a:	b003      	add	sp, #12
    8b1c:	bdf0      	pop	{r4, r5, r6, r7, pc}
    8b1e:	46c0      	nop			; (mov r8, r8)
    8b20:	20000024 	.word	0x20000024
    8b24:	003d0900 	.word	0x003d0900
    8b28:	006acfbf 	.word	0x006acfbf
    8b2c:	00010035 	.word	0x00010035
    8b30:	006acfc0 	.word	0x006acfc0
    8b34:	20000001 	.word	0x20000001
    8b38:	00010075 	.word	0x00010075
    8b3c:	02dc6c00 	.word	0x02dc6c00

00008b40 <fnDELAY_LOOP_PORT_ms>:
    8b40:	b5f0      	push	{r4, r5, r6, r7, lr}
    8b42:	b083      	sub	sp, #12
    8b44:	af00      	add	r7, sp, #0
    8b46:	1dbb      	adds	r3, r7, #6
    8b48:	8018      	strh	r0, [r3, #0]
    8b4a:	4b1f      	ldr	r3, [pc, #124]	; (8bc8 <fnDELAY_LOOP_PORT_ms+0x88>)
    8b4c:	781b      	ldrb	r3, [r3, #0]
    8b4e:	2b00      	cmp	r3, #0
    8b50:	d016      	beq.n	8b80 <fnDELAY_LOOP_PORT_ms+0x40>
    8b52:	1dbb      	adds	r3, r7, #6
    8b54:	881b      	ldrh	r3, [r3, #0]
    8b56:	481d      	ldr	r0, [pc, #116]	; (8bcc <fnDELAY_LOOP_PORT_ms+0x8c>)
    8b58:	4343      	muls	r3, r0
    8b5a:	0019      	movs	r1, r3
    8b5c:	2300      	movs	r3, #0
    8b5e:	001a      	movs	r2, r3
    8b60:	4b1b      	ldr	r3, [pc, #108]	; (8bd0 <fnDELAY_LOOP_PORT_ms+0x90>)
    8b62:	2400      	movs	r4, #0
    8b64:	18c9      	adds	r1, r1, r3
    8b66:	4162      	adcs	r2, r4
    8b68:	0008      	movs	r0, r1
    8b6a:	0011      	movs	r1, r2
    8b6c:	4c19      	ldr	r4, [pc, #100]	; (8bd4 <fnDELAY_LOOP_PORT_ms+0x94>)
    8b6e:	4a1a      	ldr	r2, [pc, #104]	; (8bd8 <fnDELAY_LOOP_PORT_ms+0x98>)
    8b70:	2300      	movs	r3, #0
    8b72:	47a0      	blx	r4
    8b74:	0003      	movs	r3, r0
    8b76:	000c      	movs	r4, r1
    8b78:	0018      	movs	r0, r3
    8b7a:	4b18      	ldr	r3, [pc, #96]	; (8bdc <fnDELAY_LOOP_PORT_ms+0x9c>)
    8b7c:	4798      	blx	r3
    8b7e:	e01f      	b.n	8bc0 <fnDELAY_LOOP_PORT_ms+0x80>
    8b80:	1dbb      	adds	r3, r7, #6
    8b82:	881b      	ldrh	r3, [r3, #0]
    8b84:	b29b      	uxth	r3, r3
    8b86:	001d      	movs	r5, r3
    8b88:	2300      	movs	r3, #0
    8b8a:	001e      	movs	r6, r3
    8b8c:	4c14      	ldr	r4, [pc, #80]	; (8be0 <fnDELAY_LOOP_PORT_ms+0xa0>)
    8b8e:	4a15      	ldr	r2, [pc, #84]	; (8be4 <fnDELAY_LOOP_PORT_ms+0xa4>)
    8b90:	2300      	movs	r3, #0
    8b92:	0028      	movs	r0, r5
    8b94:	0031      	movs	r1, r6
    8b96:	47a0      	blx	r4
    8b98:	0003      	movs	r3, r0
    8b9a:	000c      	movs	r4, r1
    8b9c:	0019      	movs	r1, r3
    8b9e:	0022      	movs	r2, r4
    8ba0:	4b0b      	ldr	r3, [pc, #44]	; (8bd0 <fnDELAY_LOOP_PORT_ms+0x90>)
    8ba2:	2400      	movs	r4, #0
    8ba4:	18c9      	adds	r1, r1, r3
    8ba6:	4162      	adcs	r2, r4
    8ba8:	0008      	movs	r0, r1
    8baa:	0011      	movs	r1, r2
    8bac:	4c09      	ldr	r4, [pc, #36]	; (8bd4 <fnDELAY_LOOP_PORT_ms+0x94>)
    8bae:	4a0a      	ldr	r2, [pc, #40]	; (8bd8 <fnDELAY_LOOP_PORT_ms+0x98>)
    8bb0:	2300      	movs	r3, #0
    8bb2:	47a0      	blx	r4
    8bb4:	0003      	movs	r3, r0
    8bb6:	000c      	movs	r4, r1
    8bb8:	0018      	movs	r0, r3
    8bba:	4b08      	ldr	r3, [pc, #32]	; (8bdc <fnDELAY_LOOP_PORT_ms+0x9c>)
    8bbc:	4798      	blx	r3
    8bbe:	46c0      	nop			; (mov r8, r8)
    8bc0:	46bd      	mov	sp, r7
    8bc2:	b003      	add	sp, #12
    8bc4:	bdf0      	pop	{r4, r5, r6, r7, pc}
    8bc6:	46c0      	nop			; (mov r8, r8)
    8bc8:	20000024 	.word	0x20000024
    8bcc:	003d0900 	.word	0x003d0900
    8bd0:	00001b57 	.word	0x00001b57
    8bd4:	00010035 	.word	0x00010035
    8bd8:	00001b58 	.word	0x00001b58
    8bdc:	20000001 	.word	0x20000001
    8be0:	00010075 	.word	0x00010075
    8be4:	02dc6c00 	.word	0x02dc6c00

00008be8 <fnINPUT_Get_Button>:
    8be8:	b580      	push	{r7, lr}
    8bea:	af00      	add	r7, sp, #0
    8bec:	4b04      	ldr	r3, [pc, #16]	; (8c00 <fnINPUT_Get_Button+0x18>)
    8bee:	6a1b      	ldr	r3, [r3, #32]
    8bf0:	2220      	movs	r2, #32
    8bf2:	4013      	ands	r3, r2
    8bf4:	1e5a      	subs	r2, r3, #1
    8bf6:	4193      	sbcs	r3, r2
    8bf8:	b2db      	uxtb	r3, r3
    8bfa:	0018      	movs	r0, r3
    8bfc:	46bd      	mov	sp, r7
    8bfe:	bd80      	pop	{r7, pc}
    8c00:	41004400 	.word	0x41004400

00008c04 <fnINPUT_Get_4_20_mA>:
    8c04:	b580      	push	{r7, lr}
    8c06:	af00      	add	r7, sp, #0
    8c08:	4b04      	ldr	r3, [pc, #16]	; (8c1c <fnINPUT_Get_4_20_mA+0x18>)
    8c0a:	6a1b      	ldr	r3, [r3, #32]
    8c0c:	2240      	movs	r2, #64	; 0x40
    8c0e:	4013      	ands	r3, r2
    8c10:	1e5a      	subs	r2, r3, #1
    8c12:	4193      	sbcs	r3, r2
    8c14:	b2db      	uxtb	r3, r3
    8c16:	0018      	movs	r0, r3
    8c18:	46bd      	mov	sp, r7
    8c1a:	bd80      	pop	{r7, pc}
    8c1c:	41004400 	.word	0x41004400

00008c20 <fnINPUT_Get_Radio_Cpu>:
    8c20:	b580      	push	{r7, lr}
    8c22:	af00      	add	r7, sp, #0
    8c24:	4a05      	ldr	r2, [pc, #20]	; (8c3c <fnINPUT_Get_Radio_Cpu+0x1c>)
    8c26:	23a0      	movs	r3, #160	; 0xa0
    8c28:	58d2      	ldr	r2, [r2, r3]
    8c2a:	2380      	movs	r3, #128	; 0x80
    8c2c:	03db      	lsls	r3, r3, #15
    8c2e:	4013      	ands	r3, r2
    8c30:	1e5a      	subs	r2, r3, #1
    8c32:	4193      	sbcs	r3, r2
    8c34:	b2db      	uxtb	r3, r3
    8c36:	0018      	movs	r0, r3
    8c38:	46bd      	mov	sp, r7
    8c3a:	bd80      	pop	{r7, pc}
    8c3c:	41004400 	.word	0x41004400

00008c40 <system_interrupt_enable>:
    8c40:	b580      	push	{r7, lr}
    8c42:	b082      	sub	sp, #8
    8c44:	af00      	add	r7, sp, #0
    8c46:	0002      	movs	r2, r0
    8c48:	1dfb      	adds	r3, r7, #7
    8c4a:	701a      	strb	r2, [r3, #0]
    8c4c:	4b06      	ldr	r3, [pc, #24]	; (8c68 <system_interrupt_enable+0x28>)
    8c4e:	1dfa      	adds	r2, r7, #7
    8c50:	7812      	ldrb	r2, [r2, #0]
    8c52:	0011      	movs	r1, r2
    8c54:	221f      	movs	r2, #31
    8c56:	400a      	ands	r2, r1
    8c58:	2101      	movs	r1, #1
    8c5a:	4091      	lsls	r1, r2
    8c5c:	000a      	movs	r2, r1
    8c5e:	601a      	str	r2, [r3, #0]
    8c60:	46c0      	nop			; (mov r8, r8)
    8c62:	46bd      	mov	sp, r7
    8c64:	b002      	add	sp, #8
    8c66:	bd80      	pop	{r7, pc}
    8c68:	e000e100 	.word	0xe000e100

00008c6c <fnRTC_Init>:
    8c6c:	b580      	push	{r7, lr}
    8c6e:	b084      	sub	sp, #16
    8c70:	af00      	add	r7, sp, #0
    8c72:	003b      	movs	r3, r7
    8c74:	2200      	movs	r2, #0
    8c76:	801a      	strh	r2, [r3, #0]
    8c78:	003b      	movs	r3, r7
    8c7a:	2200      	movs	r2, #0
    8c7c:	709a      	strb	r2, [r3, #2]
    8c7e:	003b      	movs	r3, r7
    8c80:	2200      	movs	r2, #0
    8c82:	70da      	strb	r2, [r3, #3]
    8c84:	003b      	movs	r3, r7
    8c86:	2201      	movs	r2, #1
    8c88:	711a      	strb	r2, [r3, #4]
    8c8a:	003a      	movs	r2, r7
    8c8c:	490c      	ldr	r1, [pc, #48]	; (8cc0 <fnRTC_Init+0x54>)
    8c8e:	4b0d      	ldr	r3, [pc, #52]	; (8cc4 <fnRTC_Init+0x58>)
    8c90:	0018      	movs	r0, r3
    8c92:	4b0d      	ldr	r3, [pc, #52]	; (8cc8 <fnRTC_Init+0x5c>)
    8c94:	4798      	blx	r3
    8c96:	4b0b      	ldr	r3, [pc, #44]	; (8cc4 <fnRTC_Init+0x58>)
    8c98:	0018      	movs	r0, r3
    8c9a:	4b0c      	ldr	r3, [pc, #48]	; (8ccc <fnRTC_Init+0x60>)
    8c9c:	4798      	blx	r3
    8c9e:	23fa      	movs	r3, #250	; 0xfa
    8ca0:	009a      	lsls	r2, r3, #2
    8ca2:	4b08      	ldr	r3, [pc, #32]	; (8cc4 <fnRTC_Init+0x58>)
    8ca4:	0011      	movs	r1, r2
    8ca6:	0018      	movs	r0, r3
    8ca8:	4b09      	ldr	r3, [pc, #36]	; (8cd0 <fnRTC_Init+0x64>)
    8caa:	4798      	blx	r3
    8cac:	4b04      	ldr	r3, [pc, #16]	; (8cc0 <fnRTC_Init+0x54>)
    8cae:	2280      	movs	r2, #128	; 0x80
    8cb0:	71da      	strb	r2, [r3, #7]
    8cb2:	2003      	movs	r0, #3
    8cb4:	4b07      	ldr	r3, [pc, #28]	; (8cd4 <fnRTC_Init+0x68>)
    8cb6:	4798      	blx	r3
    8cb8:	46c0      	nop			; (mov r8, r8)
    8cba:	46bd      	mov	sp, r7
    8cbc:	b004      	add	sp, #16
    8cbe:	bd80      	pop	{r7, pc}
    8cc0:	40001400 	.word	0x40001400
    8cc4:	20000afc 	.word	0x20000afc
    8cc8:	00009dad 	.word	0x00009dad
    8ccc:	00009bbd 	.word	0x00009bbd
    8cd0:	00009f65 	.word	0x00009f65
    8cd4:	00008c41 	.word	0x00008c41

00008cd8 <fnRTC_Get_Count>:
    8cd8:	b580      	push	{r7, lr}
    8cda:	af00      	add	r7, sp, #0
    8cdc:	4b02      	ldr	r3, [pc, #8]	; (8ce8 <fnRTC_Get_Count+0x10>)
    8cde:	681b      	ldr	r3, [r3, #0]
    8ce0:	0018      	movs	r0, r3
    8ce2:	46bd      	mov	sp, r7
    8ce4:	bd80      	pop	{r7, pc}
    8ce6:	46c0      	nop			; (mov r8, r8)
    8ce8:	20000568 	.word	0x20000568

00008cec <fnRTC_Check>:
    8cec:	b580      	push	{r7, lr}
    8cee:	b082      	sub	sp, #8
    8cf0:	af00      	add	r7, sp, #0
    8cf2:	4b08      	ldr	r3, [pc, #32]	; (8d14 <fnRTC_Check+0x28>)
    8cf4:	0018      	movs	r0, r3
    8cf6:	4b08      	ldr	r3, [pc, #32]	; (8d18 <fnRTC_Check+0x2c>)
    8cf8:	4798      	blx	r3
    8cfa:	0003      	movs	r3, r0
    8cfc:	607b      	str	r3, [r7, #4]
    8cfe:	687b      	ldr	r3, [r7, #4]
    8d00:	4a06      	ldr	r2, [pc, #24]	; (8d1c <fnRTC_Check+0x30>)
    8d02:	4293      	cmp	r3, r2
    8d04:	d901      	bls.n	8d0a <fnRTC_Check+0x1e>
    8d06:	2301      	movs	r3, #1
    8d08:	e000      	b.n	8d0c <fnRTC_Check+0x20>
    8d0a:	2300      	movs	r3, #0
    8d0c:	0018      	movs	r0, r3
    8d0e:	46bd      	mov	sp, r7
    8d10:	b002      	add	sp, #8
    8d12:	bd80      	pop	{r7, pc}
    8d14:	20000afc 	.word	0x20000afc
    8d18:	00009e3d 	.word	0x00009e3d
    8d1c:	000003de 	.word	0x000003de

00008d20 <RTC_Handler>:
    8d20:	b580      	push	{r7, lr}
    8d22:	af00      	add	r7, sp, #0
    8d24:	4b06      	ldr	r3, [pc, #24]	; (8d40 <RTC_Handler+0x20>)
    8d26:	2280      	movs	r2, #128	; 0x80
    8d28:	721a      	strb	r2, [r3, #8]
    8d2a:	4b06      	ldr	r3, [pc, #24]	; (8d44 <RTC_Handler+0x24>)
    8d2c:	681b      	ldr	r3, [r3, #0]
    8d2e:	1c5a      	adds	r2, r3, #1
    8d30:	4b04      	ldr	r3, [pc, #16]	; (8d44 <RTC_Handler+0x24>)
    8d32:	601a      	str	r2, [r3, #0]
    8d34:	4b04      	ldr	r3, [pc, #16]	; (8d48 <RTC_Handler+0x28>)
    8d36:	4798      	blx	r3
    8d38:	46c0      	nop			; (mov r8, r8)
    8d3a:	46bd      	mov	sp, r7
    8d3c:	bd80      	pop	{r7, pc}
    8d3e:	46c0      	nop			; (mov r8, r8)
    8d40:	40001400 	.word	0x40001400
    8d44:	20000568 	.word	0x20000568
    8d48:	00009701 	.word	0x00009701

00008d4c <system_apb_clock_set_mask>:
    8d4c:	b580      	push	{r7, lr}
    8d4e:	b082      	sub	sp, #8
    8d50:	af00      	add	r7, sp, #0
    8d52:	0002      	movs	r2, r0
    8d54:	6039      	str	r1, [r7, #0]
    8d56:	1dfb      	adds	r3, r7, #7
    8d58:	701a      	strb	r2, [r3, #0]
    8d5a:	1dfb      	adds	r3, r7, #7
    8d5c:	781b      	ldrb	r3, [r3, #0]
    8d5e:	2b01      	cmp	r3, #1
    8d60:	d00a      	beq.n	8d78 <system_apb_clock_set_mask+0x2c>
    8d62:	2b02      	cmp	r3, #2
    8d64:	d00f      	beq.n	8d86 <system_apb_clock_set_mask+0x3a>
    8d66:	2b00      	cmp	r3, #0
    8d68:	d114      	bne.n	8d94 <system_apb_clock_set_mask+0x48>
    8d6a:	4b0e      	ldr	r3, [pc, #56]	; (8da4 <system_apb_clock_set_mask+0x58>)
    8d6c:	4a0d      	ldr	r2, [pc, #52]	; (8da4 <system_apb_clock_set_mask+0x58>)
    8d6e:	6991      	ldr	r1, [r2, #24]
    8d70:	683a      	ldr	r2, [r7, #0]
    8d72:	430a      	orrs	r2, r1
    8d74:	619a      	str	r2, [r3, #24]
    8d76:	e00f      	b.n	8d98 <system_apb_clock_set_mask+0x4c>
    8d78:	4b0a      	ldr	r3, [pc, #40]	; (8da4 <system_apb_clock_set_mask+0x58>)
    8d7a:	4a0a      	ldr	r2, [pc, #40]	; (8da4 <system_apb_clock_set_mask+0x58>)
    8d7c:	69d1      	ldr	r1, [r2, #28]
    8d7e:	683a      	ldr	r2, [r7, #0]
    8d80:	430a      	orrs	r2, r1
    8d82:	61da      	str	r2, [r3, #28]
    8d84:	e008      	b.n	8d98 <system_apb_clock_set_mask+0x4c>
    8d86:	4b07      	ldr	r3, [pc, #28]	; (8da4 <system_apb_clock_set_mask+0x58>)
    8d88:	4a06      	ldr	r2, [pc, #24]	; (8da4 <system_apb_clock_set_mask+0x58>)
    8d8a:	6a11      	ldr	r1, [r2, #32]
    8d8c:	683a      	ldr	r2, [r7, #0]
    8d8e:	430a      	orrs	r2, r1
    8d90:	621a      	str	r2, [r3, #32]
    8d92:	e001      	b.n	8d98 <system_apb_clock_set_mask+0x4c>
    8d94:	2317      	movs	r3, #23
    8d96:	e000      	b.n	8d9a <system_apb_clock_set_mask+0x4e>
    8d98:	2300      	movs	r3, #0
    8d9a:	0018      	movs	r0, r3
    8d9c:	46bd      	mov	sp, r7
    8d9e:	b002      	add	sp, #8
    8da0:	bd80      	pop	{r7, pc}
    8da2:	46c0      	nop			; (mov r8, r8)
    8da4:	40000400 	.word	0x40000400

00008da8 <system_interrupt_enter_critical_section>:
    8da8:	b580      	push	{r7, lr}
    8daa:	af00      	add	r7, sp, #0
    8dac:	4b02      	ldr	r3, [pc, #8]	; (8db8 <system_interrupt_enter_critical_section+0x10>)
    8dae:	4798      	blx	r3
    8db0:	46c0      	nop			; (mov r8, r8)
    8db2:	46bd      	mov	sp, r7
    8db4:	bd80      	pop	{r7, pc}
    8db6:	46c0      	nop			; (mov r8, r8)
    8db8:	000098a1 	.word	0x000098a1

00008dbc <system_interrupt_leave_critical_section>:
    8dbc:	b580      	push	{r7, lr}
    8dbe:	af00      	add	r7, sp, #0
    8dc0:	4b02      	ldr	r3, [pc, #8]	; (8dcc <system_interrupt_leave_critical_section+0x10>)
    8dc2:	4798      	blx	r3
    8dc4:	46c0      	nop			; (mov r8, r8)
    8dc6:	46bd      	mov	sp, r7
    8dc8:	bd80      	pop	{r7, pc}
    8dca:	46c0      	nop			; (mov r8, r8)
    8dcc:	000098f5 	.word	0x000098f5

00008dd0 <system_gclk_is_syncing>:
    8dd0:	b580      	push	{r7, lr}
    8dd2:	af00      	add	r7, sp, #0
    8dd4:	4b05      	ldr	r3, [pc, #20]	; (8dec <system_gclk_is_syncing+0x1c>)
    8dd6:	785b      	ldrb	r3, [r3, #1]
    8dd8:	b2db      	uxtb	r3, r3
    8dda:	b25b      	sxtb	r3, r3
    8ddc:	2b00      	cmp	r3, #0
    8dde:	da01      	bge.n	8de4 <system_gclk_is_syncing+0x14>
    8de0:	2301      	movs	r3, #1
    8de2:	e000      	b.n	8de6 <system_gclk_is_syncing+0x16>
    8de4:	2300      	movs	r3, #0
    8de6:	0018      	movs	r0, r3
    8de8:	46bd      	mov	sp, r7
    8dea:	bd80      	pop	{r7, pc}
    8dec:	40000c00 	.word	0x40000c00

00008df0 <system_gclk_init>:
    8df0:	b580      	push	{r7, lr}
    8df2:	af00      	add	r7, sp, #0
    8df4:	2108      	movs	r1, #8
    8df6:	2000      	movs	r0, #0
    8df8:	4b07      	ldr	r3, [pc, #28]	; (8e18 <system_gclk_init+0x28>)
    8dfa:	4798      	blx	r3
    8dfc:	4b07      	ldr	r3, [pc, #28]	; (8e1c <system_gclk_init+0x2c>)
    8dfe:	2201      	movs	r2, #1
    8e00:	701a      	strb	r2, [r3, #0]
    8e02:	46c0      	nop			; (mov r8, r8)
    8e04:	4b05      	ldr	r3, [pc, #20]	; (8e1c <system_gclk_init+0x2c>)
    8e06:	781b      	ldrb	r3, [r3, #0]
    8e08:	b2db      	uxtb	r3, r3
    8e0a:	001a      	movs	r2, r3
    8e0c:	2301      	movs	r3, #1
    8e0e:	4013      	ands	r3, r2
    8e10:	d1f8      	bne.n	8e04 <system_gclk_init+0x14>
    8e12:	46c0      	nop			; (mov r8, r8)
    8e14:	46bd      	mov	sp, r7
    8e16:	bd80      	pop	{r7, pc}
    8e18:	00008d4d 	.word	0x00008d4d
    8e1c:	40000c00 	.word	0x40000c00

00008e20 <system_gclk_gen_set_config>:
    8e20:	b580      	push	{r7, lr}
    8e22:	b086      	sub	sp, #24
    8e24:	af00      	add	r7, sp, #0
    8e26:	0002      	movs	r2, r0
    8e28:	6039      	str	r1, [r7, #0]
    8e2a:	1dfb      	adds	r3, r7, #7
    8e2c:	701a      	strb	r2, [r3, #0]
    8e2e:	1dfb      	adds	r3, r7, #7
    8e30:	781b      	ldrb	r3, [r3, #0]
    8e32:	617b      	str	r3, [r7, #20]
    8e34:	1dfb      	adds	r3, r7, #7
    8e36:	781b      	ldrb	r3, [r3, #0]
    8e38:	613b      	str	r3, [r7, #16]
    8e3a:	683b      	ldr	r3, [r7, #0]
    8e3c:	781b      	ldrb	r3, [r3, #0]
    8e3e:	021b      	lsls	r3, r3, #8
    8e40:	001a      	movs	r2, r3
    8e42:	697b      	ldr	r3, [r7, #20]
    8e44:	4313      	orrs	r3, r2
    8e46:	617b      	str	r3, [r7, #20]
    8e48:	683b      	ldr	r3, [r7, #0]
    8e4a:	785b      	ldrb	r3, [r3, #1]
    8e4c:	2b00      	cmp	r3, #0
    8e4e:	d004      	beq.n	8e5a <system_gclk_gen_set_config+0x3a>
    8e50:	697b      	ldr	r3, [r7, #20]
    8e52:	2280      	movs	r2, #128	; 0x80
    8e54:	02d2      	lsls	r2, r2, #11
    8e56:	4313      	orrs	r3, r2
    8e58:	617b      	str	r3, [r7, #20]
    8e5a:	683b      	ldr	r3, [r7, #0]
    8e5c:	7a5b      	ldrb	r3, [r3, #9]
    8e5e:	2b00      	cmp	r3, #0
    8e60:	d004      	beq.n	8e6c <system_gclk_gen_set_config+0x4c>
    8e62:	697b      	ldr	r3, [r7, #20]
    8e64:	2280      	movs	r2, #128	; 0x80
    8e66:	0312      	lsls	r2, r2, #12
    8e68:	4313      	orrs	r3, r2
    8e6a:	617b      	str	r3, [r7, #20]
    8e6c:	683b      	ldr	r3, [r7, #0]
    8e6e:	685b      	ldr	r3, [r3, #4]
    8e70:	2b01      	cmp	r3, #1
    8e72:	d92c      	bls.n	8ece <system_gclk_gen_set_config+0xae>
    8e74:	683b      	ldr	r3, [r7, #0]
    8e76:	685a      	ldr	r2, [r3, #4]
    8e78:	683b      	ldr	r3, [r7, #0]
    8e7a:	685b      	ldr	r3, [r3, #4]
    8e7c:	3b01      	subs	r3, #1
    8e7e:	4013      	ands	r3, r2
    8e80:	d11a      	bne.n	8eb8 <system_gclk_gen_set_config+0x98>
    8e82:	2300      	movs	r3, #0
    8e84:	60fb      	str	r3, [r7, #12]
    8e86:	2302      	movs	r3, #2
    8e88:	60bb      	str	r3, [r7, #8]
    8e8a:	e005      	b.n	8e98 <system_gclk_gen_set_config+0x78>
    8e8c:	68fb      	ldr	r3, [r7, #12]
    8e8e:	3301      	adds	r3, #1
    8e90:	60fb      	str	r3, [r7, #12]
    8e92:	68bb      	ldr	r3, [r7, #8]
    8e94:	005b      	lsls	r3, r3, #1
    8e96:	60bb      	str	r3, [r7, #8]
    8e98:	683b      	ldr	r3, [r7, #0]
    8e9a:	685a      	ldr	r2, [r3, #4]
    8e9c:	68bb      	ldr	r3, [r7, #8]
    8e9e:	429a      	cmp	r2, r3
    8ea0:	d8f4      	bhi.n	8e8c <system_gclk_gen_set_config+0x6c>
    8ea2:	68fb      	ldr	r3, [r7, #12]
    8ea4:	021b      	lsls	r3, r3, #8
    8ea6:	693a      	ldr	r2, [r7, #16]
    8ea8:	4313      	orrs	r3, r2
    8eaa:	613b      	str	r3, [r7, #16]
    8eac:	697b      	ldr	r3, [r7, #20]
    8eae:	2280      	movs	r2, #128	; 0x80
    8eb0:	0352      	lsls	r2, r2, #13
    8eb2:	4313      	orrs	r3, r2
    8eb4:	617b      	str	r3, [r7, #20]
    8eb6:	e00a      	b.n	8ece <system_gclk_gen_set_config+0xae>
    8eb8:	683b      	ldr	r3, [r7, #0]
    8eba:	685b      	ldr	r3, [r3, #4]
    8ebc:	021b      	lsls	r3, r3, #8
    8ebe:	693a      	ldr	r2, [r7, #16]
    8ec0:	4313      	orrs	r3, r2
    8ec2:	613b      	str	r3, [r7, #16]
    8ec4:	697b      	ldr	r3, [r7, #20]
    8ec6:	2280      	movs	r2, #128	; 0x80
    8ec8:	0292      	lsls	r2, r2, #10
    8eca:	4313      	orrs	r3, r2
    8ecc:	617b      	str	r3, [r7, #20]
    8ece:	683b      	ldr	r3, [r7, #0]
    8ed0:	7a1b      	ldrb	r3, [r3, #8]
    8ed2:	2b00      	cmp	r3, #0
    8ed4:	d004      	beq.n	8ee0 <system_gclk_gen_set_config+0xc0>
    8ed6:	697b      	ldr	r3, [r7, #20]
    8ed8:	2280      	movs	r2, #128	; 0x80
    8eda:	0392      	lsls	r2, r2, #14
    8edc:	4313      	orrs	r3, r2
    8ede:	617b      	str	r3, [r7, #20]
    8ee0:	46c0      	nop			; (mov r8, r8)
    8ee2:	4b13      	ldr	r3, [pc, #76]	; (8f30 <system_gclk_gen_set_config+0x110>)
    8ee4:	4798      	blx	r3
    8ee6:	1e03      	subs	r3, r0, #0
    8ee8:	d1fb      	bne.n	8ee2 <system_gclk_gen_set_config+0xc2>
    8eea:	4b12      	ldr	r3, [pc, #72]	; (8f34 <system_gclk_gen_set_config+0x114>)
    8eec:	4798      	blx	r3
    8eee:	4a12      	ldr	r2, [pc, #72]	; (8f38 <system_gclk_gen_set_config+0x118>)
    8ef0:	1dfb      	adds	r3, r7, #7
    8ef2:	781b      	ldrb	r3, [r3, #0]
    8ef4:	7013      	strb	r3, [r2, #0]
    8ef6:	46c0      	nop			; (mov r8, r8)
    8ef8:	4b0d      	ldr	r3, [pc, #52]	; (8f30 <system_gclk_gen_set_config+0x110>)
    8efa:	4798      	blx	r3
    8efc:	1e03      	subs	r3, r0, #0
    8efe:	d1fb      	bne.n	8ef8 <system_gclk_gen_set_config+0xd8>
    8f00:	4b0e      	ldr	r3, [pc, #56]	; (8f3c <system_gclk_gen_set_config+0x11c>)
    8f02:	693a      	ldr	r2, [r7, #16]
    8f04:	609a      	str	r2, [r3, #8]
    8f06:	46c0      	nop			; (mov r8, r8)
    8f08:	4b09      	ldr	r3, [pc, #36]	; (8f30 <system_gclk_gen_set_config+0x110>)
    8f0a:	4798      	blx	r3
    8f0c:	1e03      	subs	r3, r0, #0
    8f0e:	d1fb      	bne.n	8f08 <system_gclk_gen_set_config+0xe8>
    8f10:	4b0a      	ldr	r3, [pc, #40]	; (8f3c <system_gclk_gen_set_config+0x11c>)
    8f12:	4a0a      	ldr	r2, [pc, #40]	; (8f3c <system_gclk_gen_set_config+0x11c>)
    8f14:	6851      	ldr	r1, [r2, #4]
    8f16:	2280      	movs	r2, #128	; 0x80
    8f18:	0252      	lsls	r2, r2, #9
    8f1a:	4011      	ands	r1, r2
    8f1c:	697a      	ldr	r2, [r7, #20]
    8f1e:	430a      	orrs	r2, r1
    8f20:	605a      	str	r2, [r3, #4]
    8f22:	4b07      	ldr	r3, [pc, #28]	; (8f40 <system_gclk_gen_set_config+0x120>)
    8f24:	4798      	blx	r3
    8f26:	46c0      	nop			; (mov r8, r8)
    8f28:	46bd      	mov	sp, r7
    8f2a:	b006      	add	sp, #24
    8f2c:	bd80      	pop	{r7, pc}
    8f2e:	46c0      	nop			; (mov r8, r8)
    8f30:	00008dd1 	.word	0x00008dd1
    8f34:	00008da9 	.word	0x00008da9
    8f38:	40000c08 	.word	0x40000c08
    8f3c:	40000c00 	.word	0x40000c00
    8f40:	00008dbd 	.word	0x00008dbd

00008f44 <system_gclk_gen_enable>:
    8f44:	b580      	push	{r7, lr}
    8f46:	b082      	sub	sp, #8
    8f48:	af00      	add	r7, sp, #0
    8f4a:	0002      	movs	r2, r0
    8f4c:	1dfb      	adds	r3, r7, #7
    8f4e:	701a      	strb	r2, [r3, #0]
    8f50:	46c0      	nop			; (mov r8, r8)
    8f52:	4b0e      	ldr	r3, [pc, #56]	; (8f8c <system_gclk_gen_enable+0x48>)
    8f54:	4798      	blx	r3
    8f56:	1e03      	subs	r3, r0, #0
    8f58:	d1fb      	bne.n	8f52 <system_gclk_gen_enable+0xe>
    8f5a:	4b0d      	ldr	r3, [pc, #52]	; (8f90 <system_gclk_gen_enable+0x4c>)
    8f5c:	4798      	blx	r3
    8f5e:	4a0d      	ldr	r2, [pc, #52]	; (8f94 <system_gclk_gen_enable+0x50>)
    8f60:	1dfb      	adds	r3, r7, #7
    8f62:	781b      	ldrb	r3, [r3, #0]
    8f64:	7013      	strb	r3, [r2, #0]
    8f66:	46c0      	nop			; (mov r8, r8)
    8f68:	4b08      	ldr	r3, [pc, #32]	; (8f8c <system_gclk_gen_enable+0x48>)
    8f6a:	4798      	blx	r3
    8f6c:	1e03      	subs	r3, r0, #0
    8f6e:	d1fb      	bne.n	8f68 <system_gclk_gen_enable+0x24>
    8f70:	4b09      	ldr	r3, [pc, #36]	; (8f98 <system_gclk_gen_enable+0x54>)
    8f72:	4a09      	ldr	r2, [pc, #36]	; (8f98 <system_gclk_gen_enable+0x54>)
    8f74:	6852      	ldr	r2, [r2, #4]
    8f76:	2180      	movs	r1, #128	; 0x80
    8f78:	0249      	lsls	r1, r1, #9
    8f7a:	430a      	orrs	r2, r1
    8f7c:	605a      	str	r2, [r3, #4]
    8f7e:	4b07      	ldr	r3, [pc, #28]	; (8f9c <system_gclk_gen_enable+0x58>)
    8f80:	4798      	blx	r3
    8f82:	46c0      	nop			; (mov r8, r8)
    8f84:	46bd      	mov	sp, r7
    8f86:	b002      	add	sp, #8
    8f88:	bd80      	pop	{r7, pc}
    8f8a:	46c0      	nop			; (mov r8, r8)
    8f8c:	00008dd1 	.word	0x00008dd1
    8f90:	00008da9 	.word	0x00008da9
    8f94:	40000c04 	.word	0x40000c04
    8f98:	40000c00 	.word	0x40000c00
    8f9c:	00008dbd 	.word	0x00008dbd

00008fa0 <system_gclk_gen_get_hz>:
    8fa0:	b580      	push	{r7, lr}
    8fa2:	b086      	sub	sp, #24
    8fa4:	af00      	add	r7, sp, #0
    8fa6:	0002      	movs	r2, r0
    8fa8:	1dfb      	adds	r3, r7, #7
    8faa:	701a      	strb	r2, [r3, #0]
    8fac:	46c0      	nop			; (mov r8, r8)
    8fae:	4b2a      	ldr	r3, [pc, #168]	; (9058 <system_gclk_gen_get_hz+0xb8>)
    8fb0:	4798      	blx	r3
    8fb2:	1e03      	subs	r3, r0, #0
    8fb4:	d1fb      	bne.n	8fae <system_gclk_gen_get_hz+0xe>
    8fb6:	4b29      	ldr	r3, [pc, #164]	; (905c <system_gclk_gen_get_hz+0xbc>)
    8fb8:	4798      	blx	r3
    8fba:	4a29      	ldr	r2, [pc, #164]	; (9060 <system_gclk_gen_get_hz+0xc0>)
    8fbc:	1dfb      	adds	r3, r7, #7
    8fbe:	781b      	ldrb	r3, [r3, #0]
    8fc0:	7013      	strb	r3, [r2, #0]
    8fc2:	46c0      	nop			; (mov r8, r8)
    8fc4:	4b24      	ldr	r3, [pc, #144]	; (9058 <system_gclk_gen_get_hz+0xb8>)
    8fc6:	4798      	blx	r3
    8fc8:	1e03      	subs	r3, r0, #0
    8fca:	d1fb      	bne.n	8fc4 <system_gclk_gen_get_hz+0x24>
    8fcc:	4b25      	ldr	r3, [pc, #148]	; (9064 <system_gclk_gen_get_hz+0xc4>)
    8fce:	685b      	ldr	r3, [r3, #4]
    8fd0:	04db      	lsls	r3, r3, #19
    8fd2:	0edb      	lsrs	r3, r3, #27
    8fd4:	b2db      	uxtb	r3, r3
    8fd6:	0018      	movs	r0, r3
    8fd8:	4b23      	ldr	r3, [pc, #140]	; (9068 <system_gclk_gen_get_hz+0xc8>)
    8fda:	4798      	blx	r3
    8fdc:	0003      	movs	r3, r0
    8fde:	617b      	str	r3, [r7, #20]
    8fe0:	4a1f      	ldr	r2, [pc, #124]	; (9060 <system_gclk_gen_get_hz+0xc0>)
    8fe2:	1dfb      	adds	r3, r7, #7
    8fe4:	781b      	ldrb	r3, [r3, #0]
    8fe6:	7013      	strb	r3, [r2, #0]
    8fe8:	4b1e      	ldr	r3, [pc, #120]	; (9064 <system_gclk_gen_get_hz+0xc4>)
    8fea:	685b      	ldr	r3, [r3, #4]
    8fec:	02db      	lsls	r3, r3, #11
    8fee:	0fdb      	lsrs	r3, r3, #31
    8ff0:	b2da      	uxtb	r2, r3
    8ff2:	2313      	movs	r3, #19
    8ff4:	18fb      	adds	r3, r7, r3
    8ff6:	701a      	strb	r2, [r3, #0]
    8ff8:	4a1c      	ldr	r2, [pc, #112]	; (906c <system_gclk_gen_get_hz+0xcc>)
    8ffa:	1dfb      	adds	r3, r7, #7
    8ffc:	781b      	ldrb	r3, [r3, #0]
    8ffe:	7013      	strb	r3, [r2, #0]
    9000:	46c0      	nop			; (mov r8, r8)
    9002:	4b15      	ldr	r3, [pc, #84]	; (9058 <system_gclk_gen_get_hz+0xb8>)
    9004:	4798      	blx	r3
    9006:	1e03      	subs	r3, r0, #0
    9008:	d1fb      	bne.n	9002 <system_gclk_gen_get_hz+0x62>
    900a:	4b16      	ldr	r3, [pc, #88]	; (9064 <system_gclk_gen_get_hz+0xc4>)
    900c:	689b      	ldr	r3, [r3, #8]
    900e:	021b      	lsls	r3, r3, #8
    9010:	0c1b      	lsrs	r3, r3, #16
    9012:	b29b      	uxth	r3, r3
    9014:	60fb      	str	r3, [r7, #12]
    9016:	4b16      	ldr	r3, [pc, #88]	; (9070 <system_gclk_gen_get_hz+0xd0>)
    9018:	4798      	blx	r3
    901a:	2313      	movs	r3, #19
    901c:	18fb      	adds	r3, r7, r3
    901e:	781b      	ldrb	r3, [r3, #0]
    9020:	2b00      	cmp	r3, #0
    9022:	d109      	bne.n	9038 <system_gclk_gen_get_hz+0x98>
    9024:	68fb      	ldr	r3, [r7, #12]
    9026:	2b01      	cmp	r3, #1
    9028:	d906      	bls.n	9038 <system_gclk_gen_get_hz+0x98>
    902a:	4b12      	ldr	r3, [pc, #72]	; (9074 <system_gclk_gen_get_hz+0xd4>)
    902c:	68f9      	ldr	r1, [r7, #12]
    902e:	6978      	ldr	r0, [r7, #20]
    9030:	4798      	blx	r3
    9032:	0003      	movs	r3, r0
    9034:	617b      	str	r3, [r7, #20]
    9036:	e00a      	b.n	904e <system_gclk_gen_get_hz+0xae>
    9038:	2313      	movs	r3, #19
    903a:	18fb      	adds	r3, r7, r3
    903c:	781b      	ldrb	r3, [r3, #0]
    903e:	2b00      	cmp	r3, #0
    9040:	d005      	beq.n	904e <system_gclk_gen_get_hz+0xae>
    9042:	68fb      	ldr	r3, [r7, #12]
    9044:	3301      	adds	r3, #1
    9046:	697a      	ldr	r2, [r7, #20]
    9048:	40da      	lsrs	r2, r3
    904a:	0013      	movs	r3, r2
    904c:	617b      	str	r3, [r7, #20]
    904e:	697b      	ldr	r3, [r7, #20]
    9050:	0018      	movs	r0, r3
    9052:	46bd      	mov	sp, r7
    9054:	b006      	add	sp, #24
    9056:	bd80      	pop	{r7, pc}
    9058:	00008dd1 	.word	0x00008dd1
    905c:	00008da9 	.word	0x00008da9
    9060:	40000c04 	.word	0x40000c04
    9064:	40000c00 	.word	0x40000c00
    9068:	0000bd99 	.word	0x0000bd99
    906c:	40000c08 	.word	0x40000c08
    9070:	00008dbd 	.word	0x00008dbd
    9074:	0000fea1 	.word	0x0000fea1

00009078 <system_gclk_chan_set_config>:
    9078:	b580      	push	{r7, lr}
    907a:	b084      	sub	sp, #16
    907c:	af00      	add	r7, sp, #0
    907e:	0002      	movs	r2, r0
    9080:	6039      	str	r1, [r7, #0]
    9082:	1dfb      	adds	r3, r7, #7
    9084:	701a      	strb	r2, [r3, #0]
    9086:	1dfb      	adds	r3, r7, #7
    9088:	781b      	ldrb	r3, [r3, #0]
    908a:	60fb      	str	r3, [r7, #12]
    908c:	683b      	ldr	r3, [r7, #0]
    908e:	781b      	ldrb	r3, [r3, #0]
    9090:	021b      	lsls	r3, r3, #8
    9092:	001a      	movs	r2, r3
    9094:	68fb      	ldr	r3, [r7, #12]
    9096:	4313      	orrs	r3, r2
    9098:	60fb      	str	r3, [r7, #12]
    909a:	1dfb      	adds	r3, r7, #7
    909c:	781b      	ldrb	r3, [r3, #0]
    909e:	0018      	movs	r0, r3
    90a0:	4b04      	ldr	r3, [pc, #16]	; (90b4 <system_gclk_chan_set_config+0x3c>)
    90a2:	4798      	blx	r3
    90a4:	4b04      	ldr	r3, [pc, #16]	; (90b8 <system_gclk_chan_set_config+0x40>)
    90a6:	68fa      	ldr	r2, [r7, #12]
    90a8:	b292      	uxth	r2, r2
    90aa:	805a      	strh	r2, [r3, #2]
    90ac:	46c0      	nop			; (mov r8, r8)
    90ae:	46bd      	mov	sp, r7
    90b0:	b004      	add	sp, #16
    90b2:	bd80      	pop	{r7, pc}
    90b4:	00009105 	.word	0x00009105
    90b8:	40000c00 	.word	0x40000c00

000090bc <system_gclk_chan_enable>:
    90bc:	b580      	push	{r7, lr}
    90be:	b082      	sub	sp, #8
    90c0:	af00      	add	r7, sp, #0
    90c2:	0002      	movs	r2, r0
    90c4:	1dfb      	adds	r3, r7, #7
    90c6:	701a      	strb	r2, [r3, #0]
    90c8:	4b0a      	ldr	r3, [pc, #40]	; (90f4 <system_gclk_chan_enable+0x38>)
    90ca:	4798      	blx	r3
    90cc:	4a0a      	ldr	r2, [pc, #40]	; (90f8 <system_gclk_chan_enable+0x3c>)
    90ce:	1dfb      	adds	r3, r7, #7
    90d0:	781b      	ldrb	r3, [r3, #0]
    90d2:	7013      	strb	r3, [r2, #0]
    90d4:	4909      	ldr	r1, [pc, #36]	; (90fc <system_gclk_chan_enable+0x40>)
    90d6:	4b09      	ldr	r3, [pc, #36]	; (90fc <system_gclk_chan_enable+0x40>)
    90d8:	885b      	ldrh	r3, [r3, #2]
    90da:	b29b      	uxth	r3, r3
    90dc:	2280      	movs	r2, #128	; 0x80
    90de:	01d2      	lsls	r2, r2, #7
    90e0:	4313      	orrs	r3, r2
    90e2:	b29b      	uxth	r3, r3
    90e4:	804b      	strh	r3, [r1, #2]
    90e6:	4b06      	ldr	r3, [pc, #24]	; (9100 <system_gclk_chan_enable+0x44>)
    90e8:	4798      	blx	r3
    90ea:	46c0      	nop			; (mov r8, r8)
    90ec:	46bd      	mov	sp, r7
    90ee:	b002      	add	sp, #8
    90f0:	bd80      	pop	{r7, pc}
    90f2:	46c0      	nop			; (mov r8, r8)
    90f4:	00008da9 	.word	0x00008da9
    90f8:	40000c02 	.word	0x40000c02
    90fc:	40000c00 	.word	0x40000c00
    9100:	00008dbd 	.word	0x00008dbd

00009104 <system_gclk_chan_disable>:
    9104:	b580      	push	{r7, lr}
    9106:	b084      	sub	sp, #16
    9108:	af00      	add	r7, sp, #0
    910a:	0002      	movs	r2, r0
    910c:	1dfb      	adds	r3, r7, #7
    910e:	701a      	strb	r2, [r3, #0]
    9110:	4b1c      	ldr	r3, [pc, #112]	; (9184 <system_gclk_chan_disable+0x80>)
    9112:	4798      	blx	r3
    9114:	4a1c      	ldr	r2, [pc, #112]	; (9188 <system_gclk_chan_disable+0x84>)
    9116:	1dfb      	adds	r3, r7, #7
    9118:	781b      	ldrb	r3, [r3, #0]
    911a:	7013      	strb	r3, [r2, #0]
    911c:	4b1b      	ldr	r3, [pc, #108]	; (918c <system_gclk_chan_disable+0x88>)
    911e:	885b      	ldrh	r3, [r3, #2]
    9120:	051b      	lsls	r3, r3, #20
    9122:	0f1b      	lsrs	r3, r3, #28
    9124:	b2db      	uxtb	r3, r3
    9126:	60fb      	str	r3, [r7, #12]
    9128:	4a18      	ldr	r2, [pc, #96]	; (918c <system_gclk_chan_disable+0x88>)
    912a:	8853      	ldrh	r3, [r2, #2]
    912c:	4918      	ldr	r1, [pc, #96]	; (9190 <system_gclk_chan_disable+0x8c>)
    912e:	400b      	ands	r3, r1
    9130:	8053      	strh	r3, [r2, #2]
    9132:	4a16      	ldr	r2, [pc, #88]	; (918c <system_gclk_chan_disable+0x88>)
    9134:	4b15      	ldr	r3, [pc, #84]	; (918c <system_gclk_chan_disable+0x88>)
    9136:	885b      	ldrh	r3, [r3, #2]
    9138:	b29b      	uxth	r3, r3
    913a:	4916      	ldr	r1, [pc, #88]	; (9194 <system_gclk_chan_disable+0x90>)
    913c:	400b      	ands	r3, r1
    913e:	b29b      	uxth	r3, r3
    9140:	8053      	strh	r3, [r2, #2]
    9142:	46c0      	nop			; (mov r8, r8)
    9144:	4b11      	ldr	r3, [pc, #68]	; (918c <system_gclk_chan_disable+0x88>)
    9146:	885b      	ldrh	r3, [r3, #2]
    9148:	b29b      	uxth	r3, r3
    914a:	001a      	movs	r2, r3
    914c:	2380      	movs	r3, #128	; 0x80
    914e:	01db      	lsls	r3, r3, #7
    9150:	4013      	ands	r3, r2
    9152:	d1f7      	bne.n	9144 <system_gclk_chan_disable+0x40>
    9154:	4a0d      	ldr	r2, [pc, #52]	; (918c <system_gclk_chan_disable+0x88>)
    9156:	68fb      	ldr	r3, [r7, #12]
    9158:	b2db      	uxtb	r3, r3
    915a:	1c19      	adds	r1, r3, #0
    915c:	230f      	movs	r3, #15
    915e:	400b      	ands	r3, r1
    9160:	b2d9      	uxtb	r1, r3
    9162:	8853      	ldrh	r3, [r2, #2]
    9164:	1c08      	adds	r0, r1, #0
    9166:	210f      	movs	r1, #15
    9168:	4001      	ands	r1, r0
    916a:	0208      	lsls	r0, r1, #8
    916c:	4908      	ldr	r1, [pc, #32]	; (9190 <system_gclk_chan_disable+0x8c>)
    916e:	400b      	ands	r3, r1
    9170:	1c19      	adds	r1, r3, #0
    9172:	1c03      	adds	r3, r0, #0
    9174:	430b      	orrs	r3, r1
    9176:	8053      	strh	r3, [r2, #2]
    9178:	4b07      	ldr	r3, [pc, #28]	; (9198 <system_gclk_chan_disable+0x94>)
    917a:	4798      	blx	r3
    917c:	46c0      	nop			; (mov r8, r8)
    917e:	46bd      	mov	sp, r7
    9180:	b004      	add	sp, #16
    9182:	bd80      	pop	{r7, pc}
    9184:	00008da9 	.word	0x00008da9
    9188:	40000c02 	.word	0x40000c02
    918c:	40000c00 	.word	0x40000c00
    9190:	fffff0ff 	.word	0xfffff0ff
    9194:	ffffbfff 	.word	0xffffbfff
    9198:	00008dbd 	.word	0x00008dbd

0000919c <system_gclk_chan_lock>:
    919c:	b580      	push	{r7, lr}
    919e:	b082      	sub	sp, #8
    91a0:	af00      	add	r7, sp, #0
    91a2:	0002      	movs	r2, r0
    91a4:	1dfb      	adds	r3, r7, #7
    91a6:	701a      	strb	r2, [r3, #0]
    91a8:	4b09      	ldr	r3, [pc, #36]	; (91d0 <system_gclk_chan_lock+0x34>)
    91aa:	4798      	blx	r3
    91ac:	4a09      	ldr	r2, [pc, #36]	; (91d4 <system_gclk_chan_lock+0x38>)
    91ae:	1dfb      	adds	r3, r7, #7
    91b0:	781b      	ldrb	r3, [r3, #0]
    91b2:	7013      	strb	r3, [r2, #0]
    91b4:	4a08      	ldr	r2, [pc, #32]	; (91d8 <system_gclk_chan_lock+0x3c>)
    91b6:	4b08      	ldr	r3, [pc, #32]	; (91d8 <system_gclk_chan_lock+0x3c>)
    91b8:	885b      	ldrh	r3, [r3, #2]
    91ba:	b29b      	uxth	r3, r3
    91bc:	4907      	ldr	r1, [pc, #28]	; (91dc <system_gclk_chan_lock+0x40>)
    91be:	430b      	orrs	r3, r1
    91c0:	b29b      	uxth	r3, r3
    91c2:	8053      	strh	r3, [r2, #2]
    91c4:	4b06      	ldr	r3, [pc, #24]	; (91e0 <system_gclk_chan_lock+0x44>)
    91c6:	4798      	blx	r3
    91c8:	46c0      	nop			; (mov r8, r8)
    91ca:	46bd      	mov	sp, r7
    91cc:	b002      	add	sp, #8
    91ce:	bd80      	pop	{r7, pc}
    91d0:	00008da9 	.word	0x00008da9
    91d4:	40000c02 	.word	0x40000c02
    91d8:	40000c00 	.word	0x40000c00
    91dc:	ffffc000 	.word	0xffffc000
    91e0:	00008dbd 	.word	0x00008dbd

000091e4 <system_gclk_chan_get_hz>:
    91e4:	b580      	push	{r7, lr}
    91e6:	b084      	sub	sp, #16
    91e8:	af00      	add	r7, sp, #0
    91ea:	0002      	movs	r2, r0
    91ec:	1dfb      	adds	r3, r7, #7
    91ee:	701a      	strb	r2, [r3, #0]
    91f0:	4b0d      	ldr	r3, [pc, #52]	; (9228 <system_gclk_chan_get_hz+0x44>)
    91f2:	4798      	blx	r3
    91f4:	4a0d      	ldr	r2, [pc, #52]	; (922c <system_gclk_chan_get_hz+0x48>)
    91f6:	1dfb      	adds	r3, r7, #7
    91f8:	781b      	ldrb	r3, [r3, #0]
    91fa:	7013      	strb	r3, [r2, #0]
    91fc:	4b0c      	ldr	r3, [pc, #48]	; (9230 <system_gclk_chan_get_hz+0x4c>)
    91fe:	885b      	ldrh	r3, [r3, #2]
    9200:	051b      	lsls	r3, r3, #20
    9202:	0f1b      	lsrs	r3, r3, #28
    9204:	b2da      	uxtb	r2, r3
    9206:	230f      	movs	r3, #15
    9208:	18fb      	adds	r3, r7, r3
    920a:	701a      	strb	r2, [r3, #0]
    920c:	4b09      	ldr	r3, [pc, #36]	; (9234 <system_gclk_chan_get_hz+0x50>)
    920e:	4798      	blx	r3
    9210:	230f      	movs	r3, #15
    9212:	18fb      	adds	r3, r7, r3
    9214:	781b      	ldrb	r3, [r3, #0]
    9216:	0018      	movs	r0, r3
    9218:	4b07      	ldr	r3, [pc, #28]	; (9238 <system_gclk_chan_get_hz+0x54>)
    921a:	4798      	blx	r3
    921c:	0003      	movs	r3, r0
    921e:	0018      	movs	r0, r3
    9220:	46bd      	mov	sp, r7
    9222:	b004      	add	sp, #16
    9224:	bd80      	pop	{r7, pc}
    9226:	46c0      	nop			; (mov r8, r8)
    9228:	00008da9 	.word	0x00008da9
    922c:	40000c02 	.word	0x40000c02
    9230:	40000c00 	.word	0x40000c00
    9234:	00008dbd 	.word	0x00008dbd
    9238:	00008fa1 	.word	0x00008fa1

0000923c <system_pinmux_get_group_from_gpio_pin>:
    923c:	b580      	push	{r7, lr}
    923e:	b084      	sub	sp, #16
    9240:	af00      	add	r7, sp, #0
    9242:	0002      	movs	r2, r0
    9244:	1dfb      	adds	r3, r7, #7
    9246:	701a      	strb	r2, [r3, #0]
    9248:	230f      	movs	r3, #15
    924a:	18fb      	adds	r3, r7, r3
    924c:	1dfa      	adds	r2, r7, #7
    924e:	7812      	ldrb	r2, [r2, #0]
    9250:	09d2      	lsrs	r2, r2, #7
    9252:	701a      	strb	r2, [r3, #0]
    9254:	230e      	movs	r3, #14
    9256:	18fb      	adds	r3, r7, r3
    9258:	1dfa      	adds	r2, r7, #7
    925a:	7812      	ldrb	r2, [r2, #0]
    925c:	0952      	lsrs	r2, r2, #5
    925e:	701a      	strb	r2, [r3, #0]
    9260:	4b0d      	ldr	r3, [pc, #52]	; (9298 <system_pinmux_get_group_from_gpio_pin+0x5c>)
    9262:	60bb      	str	r3, [r7, #8]
    9264:	230f      	movs	r3, #15
    9266:	18fb      	adds	r3, r7, r3
    9268:	781b      	ldrb	r3, [r3, #0]
    926a:	2b00      	cmp	r3, #0
    926c:	d10f      	bne.n	928e <system_pinmux_get_group_from_gpio_pin+0x52>
    926e:	230f      	movs	r3, #15
    9270:	18fb      	adds	r3, r7, r3
    9272:	781b      	ldrb	r3, [r3, #0]
    9274:	009b      	lsls	r3, r3, #2
    9276:	2210      	movs	r2, #16
    9278:	4694      	mov	ip, r2
    927a:	44bc      	add	ip, r7
    927c:	4463      	add	r3, ip
    927e:	3b08      	subs	r3, #8
    9280:	681a      	ldr	r2, [r3, #0]
    9282:	230e      	movs	r3, #14
    9284:	18fb      	adds	r3, r7, r3
    9286:	781b      	ldrb	r3, [r3, #0]
    9288:	01db      	lsls	r3, r3, #7
    928a:	18d3      	adds	r3, r2, r3
    928c:	e000      	b.n	9290 <system_pinmux_get_group_from_gpio_pin+0x54>
    928e:	2300      	movs	r3, #0
    9290:	0018      	movs	r0, r3
    9292:	46bd      	mov	sp, r7
    9294:	b004      	add	sp, #16
    9296:	bd80      	pop	{r7, pc}
    9298:	41004400 	.word	0x41004400

0000929c <_system_pinmux_config>:
    929c:	b580      	push	{r7, lr}
    929e:	b088      	sub	sp, #32
    92a0:	af00      	add	r7, sp, #0
    92a2:	60f8      	str	r0, [r7, #12]
    92a4:	60b9      	str	r1, [r7, #8]
    92a6:	607a      	str	r2, [r7, #4]
    92a8:	2300      	movs	r3, #0
    92aa:	61fb      	str	r3, [r7, #28]
    92ac:	687b      	ldr	r3, [r7, #4]
    92ae:	78db      	ldrb	r3, [r3, #3]
    92b0:	2201      	movs	r2, #1
    92b2:	4053      	eors	r3, r2
    92b4:	b2db      	uxtb	r3, r3
    92b6:	2b00      	cmp	r3, #0
    92b8:	d035      	beq.n	9326 <_system_pinmux_config+0x8a>
    92ba:	687b      	ldr	r3, [r7, #4]
    92bc:	781b      	ldrb	r3, [r3, #0]
    92be:	2b80      	cmp	r3, #128	; 0x80
    92c0:	d00b      	beq.n	92da <_system_pinmux_config+0x3e>
    92c2:	69fb      	ldr	r3, [r7, #28]
    92c4:	2280      	movs	r2, #128	; 0x80
    92c6:	0252      	lsls	r2, r2, #9
    92c8:	4313      	orrs	r3, r2
    92ca:	61fb      	str	r3, [r7, #28]
    92cc:	687b      	ldr	r3, [r7, #4]
    92ce:	781b      	ldrb	r3, [r3, #0]
    92d0:	061b      	lsls	r3, r3, #24
    92d2:	001a      	movs	r2, r3
    92d4:	69fb      	ldr	r3, [r7, #28]
    92d6:	4313      	orrs	r3, r2
    92d8:	61fb      	str	r3, [r7, #28]
    92da:	687b      	ldr	r3, [r7, #4]
    92dc:	785b      	ldrb	r3, [r3, #1]
    92de:	2b00      	cmp	r3, #0
    92e0:	d003      	beq.n	92ea <_system_pinmux_config+0x4e>
    92e2:	687b      	ldr	r3, [r7, #4]
    92e4:	785b      	ldrb	r3, [r3, #1]
    92e6:	2b02      	cmp	r3, #2
    92e8:	d110      	bne.n	930c <_system_pinmux_config+0x70>
    92ea:	69fb      	ldr	r3, [r7, #28]
    92ec:	2280      	movs	r2, #128	; 0x80
    92ee:	0292      	lsls	r2, r2, #10
    92f0:	4313      	orrs	r3, r2
    92f2:	61fb      	str	r3, [r7, #28]
    92f4:	687b      	ldr	r3, [r7, #4]
    92f6:	789b      	ldrb	r3, [r3, #2]
    92f8:	2b00      	cmp	r3, #0
    92fa:	d004      	beq.n	9306 <_system_pinmux_config+0x6a>
    92fc:	69fb      	ldr	r3, [r7, #28]
    92fe:	2280      	movs	r2, #128	; 0x80
    9300:	02d2      	lsls	r2, r2, #11
    9302:	4313      	orrs	r3, r2
    9304:	61fb      	str	r3, [r7, #28]
    9306:	68fb      	ldr	r3, [r7, #12]
    9308:	68ba      	ldr	r2, [r7, #8]
    930a:	605a      	str	r2, [r3, #4]
    930c:	687b      	ldr	r3, [r7, #4]
    930e:	785b      	ldrb	r3, [r3, #1]
    9310:	2b01      	cmp	r3, #1
    9312:	d003      	beq.n	931c <_system_pinmux_config+0x80>
    9314:	687b      	ldr	r3, [r7, #4]
    9316:	785b      	ldrb	r3, [r3, #1]
    9318:	2b02      	cmp	r3, #2
    931a:	d107      	bne.n	932c <_system_pinmux_config+0x90>
    931c:	69fb      	ldr	r3, [r7, #28]
    931e:	4a22      	ldr	r2, [pc, #136]	; (93a8 <_system_pinmux_config+0x10c>)
    9320:	4013      	ands	r3, r2
    9322:	61fb      	str	r3, [r7, #28]
    9324:	e002      	b.n	932c <_system_pinmux_config+0x90>
    9326:	68fb      	ldr	r3, [r7, #12]
    9328:	68ba      	ldr	r2, [r7, #8]
    932a:	605a      	str	r2, [r3, #4]
    932c:	68bb      	ldr	r3, [r7, #8]
    932e:	041b      	lsls	r3, r3, #16
    9330:	0c1b      	lsrs	r3, r3, #16
    9332:	61bb      	str	r3, [r7, #24]
    9334:	68bb      	ldr	r3, [r7, #8]
    9336:	0c1b      	lsrs	r3, r3, #16
    9338:	617b      	str	r3, [r7, #20]
    933a:	69ba      	ldr	r2, [r7, #24]
    933c:	69fb      	ldr	r3, [r7, #28]
    933e:	4313      	orrs	r3, r2
    9340:	22a0      	movs	r2, #160	; 0xa0
    9342:	05d2      	lsls	r2, r2, #23
    9344:	431a      	orrs	r2, r3
    9346:	68fb      	ldr	r3, [r7, #12]
    9348:	629a      	str	r2, [r3, #40]	; 0x28
    934a:	697a      	ldr	r2, [r7, #20]
    934c:	69fb      	ldr	r3, [r7, #28]
    934e:	4313      	orrs	r3, r2
    9350:	22d0      	movs	r2, #208	; 0xd0
    9352:	0612      	lsls	r2, r2, #24
    9354:	431a      	orrs	r2, r3
    9356:	68fb      	ldr	r3, [r7, #12]
    9358:	629a      	str	r2, [r3, #40]	; 0x28
    935a:	687b      	ldr	r3, [r7, #4]
    935c:	78db      	ldrb	r3, [r3, #3]
    935e:	2201      	movs	r2, #1
    9360:	4053      	eors	r3, r2
    9362:	b2db      	uxtb	r3, r3
    9364:	2b00      	cmp	r3, #0
    9366:	d01a      	beq.n	939e <_system_pinmux_config+0x102>
    9368:	69fa      	ldr	r2, [r7, #28]
    936a:	2380      	movs	r3, #128	; 0x80
    936c:	02db      	lsls	r3, r3, #11
    936e:	4013      	ands	r3, r2
    9370:	d00a      	beq.n	9388 <_system_pinmux_config+0xec>
    9372:	687b      	ldr	r3, [r7, #4]
    9374:	789b      	ldrb	r3, [r3, #2]
    9376:	2b01      	cmp	r3, #1
    9378:	d103      	bne.n	9382 <_system_pinmux_config+0xe6>
    937a:	68fb      	ldr	r3, [r7, #12]
    937c:	68ba      	ldr	r2, [r7, #8]
    937e:	619a      	str	r2, [r3, #24]
    9380:	e002      	b.n	9388 <_system_pinmux_config+0xec>
    9382:	68fb      	ldr	r3, [r7, #12]
    9384:	68ba      	ldr	r2, [r7, #8]
    9386:	615a      	str	r2, [r3, #20]
    9388:	687b      	ldr	r3, [r7, #4]
    938a:	785b      	ldrb	r3, [r3, #1]
    938c:	2b01      	cmp	r3, #1
    938e:	d003      	beq.n	9398 <_system_pinmux_config+0xfc>
    9390:	687b      	ldr	r3, [r7, #4]
    9392:	785b      	ldrb	r3, [r3, #1]
    9394:	2b02      	cmp	r3, #2
    9396:	d102      	bne.n	939e <_system_pinmux_config+0x102>
    9398:	68fb      	ldr	r3, [r7, #12]
    939a:	68ba      	ldr	r2, [r7, #8]
    939c:	609a      	str	r2, [r3, #8]
    939e:	46c0      	nop			; (mov r8, r8)
    93a0:	46bd      	mov	sp, r7
    93a2:	b008      	add	sp, #32
    93a4:	bd80      	pop	{r7, pc}
    93a6:	46c0      	nop			; (mov r8, r8)
    93a8:	fffbffff 	.word	0xfffbffff

000093ac <system_pinmux_pin_set_config>:
    93ac:	b580      	push	{r7, lr}
    93ae:	b084      	sub	sp, #16
    93b0:	af00      	add	r7, sp, #0
    93b2:	0002      	movs	r2, r0
    93b4:	6039      	str	r1, [r7, #0]
    93b6:	1dfb      	adds	r3, r7, #7
    93b8:	701a      	strb	r2, [r3, #0]
    93ba:	1dfb      	adds	r3, r7, #7
    93bc:	781b      	ldrb	r3, [r3, #0]
    93be:	0018      	movs	r0, r3
    93c0:	4b0a      	ldr	r3, [pc, #40]	; (93ec <system_pinmux_pin_set_config+0x40>)
    93c2:	4798      	blx	r3
    93c4:	0003      	movs	r3, r0
    93c6:	60fb      	str	r3, [r7, #12]
    93c8:	1dfb      	adds	r3, r7, #7
    93ca:	781b      	ldrb	r3, [r3, #0]
    93cc:	221f      	movs	r2, #31
    93ce:	4013      	ands	r3, r2
    93d0:	2201      	movs	r2, #1
    93d2:	409a      	lsls	r2, r3
    93d4:	0013      	movs	r3, r2
    93d6:	60bb      	str	r3, [r7, #8]
    93d8:	683a      	ldr	r2, [r7, #0]
    93da:	68b9      	ldr	r1, [r7, #8]
    93dc:	68fb      	ldr	r3, [r7, #12]
    93de:	0018      	movs	r0, r3
    93e0:	4b03      	ldr	r3, [pc, #12]	; (93f0 <system_pinmux_pin_set_config+0x44>)
    93e2:	4798      	blx	r3
    93e4:	46c0      	nop			; (mov r8, r8)
    93e6:	46bd      	mov	sp, r7
    93e8:	b004      	add	sp, #16
    93ea:	bd80      	pop	{r7, pc}
    93ec:	0000923d 	.word	0x0000923d
    93f0:	0000929d 	.word	0x0000929d

000093f4 <main>:
    93f4:	b580      	push	{r7, lr}
    93f6:	af00      	add	r7, sp, #0
    93f8:	4b0b      	ldr	r3, [pc, #44]	; (9428 <main+0x34>)
    93fa:	4798      	blx	r3
    93fc:	4b0b      	ldr	r3, [pc, #44]	; (942c <main+0x38>)
    93fe:	4798      	blx	r3
    9400:	4b0b      	ldr	r3, [pc, #44]	; (9430 <main+0x3c>)
    9402:	4798      	blx	r3
    9404:	4b0b      	ldr	r3, [pc, #44]	; (9434 <main+0x40>)
    9406:	4798      	blx	r3
    9408:	e003      	b.n	9412 <main+0x1e>
    940a:	4b0b      	ldr	r3, [pc, #44]	; (9438 <main+0x44>)
    940c:	4798      	blx	r3
    940e:	4b09      	ldr	r3, [pc, #36]	; (9434 <main+0x40>)
    9410:	4798      	blx	r3
    9412:	4b0a      	ldr	r3, [pc, #40]	; (943c <main+0x48>)
    9414:	881b      	ldrh	r3, [r3, #0]
    9416:	b29b      	uxth	r3, r3
    9418:	2b00      	cmp	r3, #0
    941a:	d1f6      	bne.n	940a <main+0x16>
    941c:	4b08      	ldr	r3, [pc, #32]	; (9440 <main+0x4c>)
    941e:	4798      	blx	r3
    9420:	4b08      	ldr	r3, [pc, #32]	; (9444 <main+0x50>)
    9422:	4798      	blx	r3
    9424:	e7ee      	b.n	9404 <main+0x10>
    9426:	46c0      	nop			; (mov r8, r8)
    9428:	0000aa79 	.word	0x0000aa79
    942c:	0000aa65 	.word	0x0000aa65
    9430:	00006299 	.word	0x00006299
    9434:	00009671 	.word	0x00009671
    9438:	00009545 	.word	0x00009545
    943c:	20000b68 	.word	0x20000b68
    9440:	000062a5 	.word	0x000062a5
    9444:	00009685 	.word	0x00009685

00009448 <system_set_sleepmode>:
    9448:	b580      	push	{r7, lr}
    944a:	b084      	sub	sp, #16
    944c:	af00      	add	r7, sp, #0
    944e:	0002      	movs	r2, r0
    9450:	1dfb      	adds	r3, r7, #7
    9452:	701a      	strb	r2, [r3, #0]
    9454:	4b1a      	ldr	r3, [pc, #104]	; (94c0 <system_set_sleepmode+0x78>)
    9456:	699b      	ldr	r3, [r3, #24]
    9458:	60fb      	str	r3, [r7, #12]
    945a:	68fa      	ldr	r2, [r7, #12]
    945c:	23f0      	movs	r3, #240	; 0xf0
    945e:	011b      	lsls	r3, r3, #4
    9460:	4013      	ands	r3, r2
    9462:	60fb      	str	r3, [r7, #12]
    9464:	68fb      	ldr	r3, [r7, #12]
    9466:	0a1b      	lsrs	r3, r3, #8
    9468:	60fb      	str	r3, [r7, #12]
    946a:	68fb      	ldr	r3, [r7, #12]
    946c:	2b02      	cmp	r3, #2
    946e:	d805      	bhi.n	947c <system_set_sleepmode+0x34>
    9470:	4a14      	ldr	r2, [pc, #80]	; (94c4 <system_set_sleepmode+0x7c>)
    9472:	6853      	ldr	r3, [r2, #4]
    9474:	21c0      	movs	r1, #192	; 0xc0
    9476:	0089      	lsls	r1, r1, #2
    9478:	430b      	orrs	r3, r1
    947a:	6053      	str	r3, [r2, #4]
    947c:	1dfb      	adds	r3, r7, #7
    947e:	781b      	ldrb	r3, [r3, #0]
    9480:	2b00      	cmp	r3, #0
    9482:	db16      	blt.n	94b2 <system_set_sleepmode+0x6a>
    9484:	2b02      	cmp	r3, #2
    9486:	dd02      	ble.n	948e <system_set_sleepmode+0x46>
    9488:	2b03      	cmp	r3, #3
    948a:	d00b      	beq.n	94a4 <system_set_sleepmode+0x5c>
    948c:	e011      	b.n	94b2 <system_set_sleepmode+0x6a>
    948e:	4b0e      	ldr	r3, [pc, #56]	; (94c8 <system_set_sleepmode+0x80>)
    9490:	4a0d      	ldr	r2, [pc, #52]	; (94c8 <system_set_sleepmode+0x80>)
    9492:	6912      	ldr	r2, [r2, #16]
    9494:	2104      	movs	r1, #4
    9496:	438a      	bics	r2, r1
    9498:	611a      	str	r2, [r3, #16]
    949a:	4a0c      	ldr	r2, [pc, #48]	; (94cc <system_set_sleepmode+0x84>)
    949c:	1dfb      	adds	r3, r7, #7
    949e:	781b      	ldrb	r3, [r3, #0]
    94a0:	7053      	strb	r3, [r2, #1]
    94a2:	e008      	b.n	94b6 <system_set_sleepmode+0x6e>
    94a4:	4b08      	ldr	r3, [pc, #32]	; (94c8 <system_set_sleepmode+0x80>)
    94a6:	4a08      	ldr	r2, [pc, #32]	; (94c8 <system_set_sleepmode+0x80>)
    94a8:	6912      	ldr	r2, [r2, #16]
    94aa:	2104      	movs	r1, #4
    94ac:	430a      	orrs	r2, r1
    94ae:	611a      	str	r2, [r3, #16]
    94b0:	e001      	b.n	94b6 <system_set_sleepmode+0x6e>
    94b2:	2317      	movs	r3, #23
    94b4:	e000      	b.n	94b8 <system_set_sleepmode+0x70>
    94b6:	2300      	movs	r3, #0
    94b8:	0018      	movs	r0, r3
    94ba:	46bd      	mov	sp, r7
    94bc:	b004      	add	sp, #16
    94be:	bd80      	pop	{r7, pc}
    94c0:	41002000 	.word	0x41002000
    94c4:	41004000 	.word	0x41004000
    94c8:	e000ed00 	.word	0xe000ed00
    94cc:	40000400 	.word	0x40000400

000094d0 <system_sleep>:
    94d0:	b580      	push	{r7, lr}
    94d2:	af00      	add	r7, sp, #0
    94d4:	f3bf 8f4f 	dsb	sy
    94d8:	bf30      	wfi
    94da:	46c0      	nop			; (mov r8, r8)
    94dc:	46bd      	mov	sp, r7
    94de:	bd80      	pop	{r7, pc}

000094e0 <fnAPP_Init>:
    94e0:	b580      	push	{r7, lr}
    94e2:	af00      	add	r7, sp, #0
    94e4:	4b0d      	ldr	r3, [pc, #52]	; (951c <fnAPP_Init+0x3c>)
    94e6:	4798      	blx	r3
    94e8:	4b0d      	ldr	r3, [pc, #52]	; (9520 <fnAPP_Init+0x40>)
    94ea:	4798      	blx	r3
    94ec:	4b0d      	ldr	r3, [pc, #52]	; (9524 <fnAPP_Init+0x44>)
    94ee:	4798      	blx	r3
    94f0:	2001      	movs	r0, #1
    94f2:	4b0d      	ldr	r3, [pc, #52]	; (9528 <fnAPP_Init+0x48>)
    94f4:	4798      	blx	r3
    94f6:	4b0d      	ldr	r3, [pc, #52]	; (952c <fnAPP_Init+0x4c>)
    94f8:	4798      	blx	r3
    94fa:	4b0d      	ldr	r3, [pc, #52]	; (9530 <fnAPP_Init+0x50>)
    94fc:	4798      	blx	r3
    94fe:	4b0d      	ldr	r3, [pc, #52]	; (9534 <fnAPP_Init+0x54>)
    9500:	4798      	blx	r3
    9502:	4b0d      	ldr	r3, [pc, #52]	; (9538 <fnAPP_Init+0x58>)
    9504:	4798      	blx	r3
    9506:	23c8      	movs	r3, #200	; 0xc8
    9508:	005b      	lsls	r3, r3, #1
    950a:	2100      	movs	r1, #0
    950c:	0018      	movs	r0, r3
    950e:	4b0b      	ldr	r3, [pc, #44]	; (953c <fnAPP_Init+0x5c>)
    9510:	4798      	blx	r3
    9512:	4b0b      	ldr	r3, [pc, #44]	; (9540 <fnAPP_Init+0x60>)
    9514:	4798      	blx	r3
    9516:	46c0      	nop			; (mov r8, r8)
    9518:	46bd      	mov	sp, r7
    951a:	bd80      	pop	{r7, pc}
    951c:	0000ba8d 	.word	0x0000ba8d
    9520:	00009769 	.word	0x00009769
    9524:	00009949 	.word	0x00009949
    9528:	00009965 	.word	0x00009965
    952c:	00008c6d 	.word	0x00008c6d
    9530:	00008549 	.word	0x00008549
    9534:	0000b4d5 	.word	0x0000b4d5
    9538:	0000b8d9 	.word	0x0000b8d9
    953c:	0000b019 	.word	0x0000b019
    9540:	00009a85 	.word	0x00009a85

00009544 <fnAPP_Process_Events>:
    9544:	b580      	push	{r7, lr}
    9546:	af00      	add	r7, sp, #0
    9548:	4a3f      	ldr	r2, [pc, #252]	; (9648 <fnAPP_Process_Events+0x104>)
    954a:	8813      	ldrh	r3, [r2, #0]
    954c:	05db      	lsls	r3, r3, #23
    954e:	0ddb      	lsrs	r3, r3, #23
    9550:	8013      	strh	r3, [r2, #0]
    9552:	4b3d      	ldr	r3, [pc, #244]	; (9648 <fnAPP_Process_Events+0x104>)
    9554:	881b      	ldrh	r3, [r3, #0]
    9556:	07db      	lsls	r3, r3, #31
    9558:	0fdb      	lsrs	r3, r3, #31
    955a:	b2db      	uxtb	r3, r3
    955c:	2b01      	cmp	r3, #1
    955e:	d104      	bne.n	956a <fnAPP_Process_Events+0x26>
    9560:	4a39      	ldr	r2, [pc, #228]	; (9648 <fnAPP_Process_Events+0x104>)
    9562:	8813      	ldrh	r3, [r2, #0]
    9564:	2101      	movs	r1, #1
    9566:	438b      	bics	r3, r1
    9568:	8013      	strh	r3, [r2, #0]
    956a:	4b37      	ldr	r3, [pc, #220]	; (9648 <fnAPP_Process_Events+0x104>)
    956c:	881b      	ldrh	r3, [r3, #0]
    956e:	079b      	lsls	r3, r3, #30
    9570:	0fdb      	lsrs	r3, r3, #31
    9572:	b2db      	uxtb	r3, r3
    9574:	2b01      	cmp	r3, #1
    9576:	d104      	bne.n	9582 <fnAPP_Process_Events+0x3e>
    9578:	4a33      	ldr	r2, [pc, #204]	; (9648 <fnAPP_Process_Events+0x104>)
    957a:	8813      	ldrh	r3, [r2, #0]
    957c:	2102      	movs	r1, #2
    957e:	438b      	bics	r3, r1
    9580:	8013      	strh	r3, [r2, #0]
    9582:	4b31      	ldr	r3, [pc, #196]	; (9648 <fnAPP_Process_Events+0x104>)
    9584:	881b      	ldrh	r3, [r3, #0]
    9586:	075b      	lsls	r3, r3, #29
    9588:	0fdb      	lsrs	r3, r3, #31
    958a:	b2db      	uxtb	r3, r3
    958c:	2b01      	cmp	r3, #1
    958e:	d104      	bne.n	959a <fnAPP_Process_Events+0x56>
    9590:	4a2d      	ldr	r2, [pc, #180]	; (9648 <fnAPP_Process_Events+0x104>)
    9592:	8813      	ldrh	r3, [r2, #0]
    9594:	2104      	movs	r1, #4
    9596:	438b      	bics	r3, r1
    9598:	8013      	strh	r3, [r2, #0]
    959a:	4b2b      	ldr	r3, [pc, #172]	; (9648 <fnAPP_Process_Events+0x104>)
    959c:	881b      	ldrh	r3, [r3, #0]
    959e:	06db      	lsls	r3, r3, #27
    95a0:	0fdb      	lsrs	r3, r3, #31
    95a2:	b2db      	uxtb	r3, r3
    95a4:	2b01      	cmp	r3, #1
    95a6:	d106      	bne.n	95b6 <fnAPP_Process_Events+0x72>
    95a8:	4a27      	ldr	r2, [pc, #156]	; (9648 <fnAPP_Process_Events+0x104>)
    95aa:	8813      	ldrh	r3, [r2, #0]
    95ac:	2110      	movs	r1, #16
    95ae:	438b      	bics	r3, r1
    95b0:	8013      	strh	r3, [r2, #0]
    95b2:	4b26      	ldr	r3, [pc, #152]	; (964c <fnAPP_Process_Events+0x108>)
    95b4:	4798      	blx	r3
    95b6:	4b24      	ldr	r3, [pc, #144]	; (9648 <fnAPP_Process_Events+0x104>)
    95b8:	881b      	ldrh	r3, [r3, #0]
    95ba:	069b      	lsls	r3, r3, #26
    95bc:	0fdb      	lsrs	r3, r3, #31
    95be:	b2db      	uxtb	r3, r3
    95c0:	2b01      	cmp	r3, #1
    95c2:	d106      	bne.n	95d2 <fnAPP_Process_Events+0x8e>
    95c4:	4a20      	ldr	r2, [pc, #128]	; (9648 <fnAPP_Process_Events+0x104>)
    95c6:	8813      	ldrh	r3, [r2, #0]
    95c8:	2120      	movs	r1, #32
    95ca:	438b      	bics	r3, r1
    95cc:	8013      	strh	r3, [r2, #0]
    95ce:	4b20      	ldr	r3, [pc, #128]	; (9650 <fnAPP_Process_Events+0x10c>)
    95d0:	4798      	blx	r3
    95d2:	4b1d      	ldr	r3, [pc, #116]	; (9648 <fnAPP_Process_Events+0x104>)
    95d4:	881b      	ldrh	r3, [r3, #0]
    95d6:	071b      	lsls	r3, r3, #28
    95d8:	0fdb      	lsrs	r3, r3, #31
    95da:	b2db      	uxtb	r3, r3
    95dc:	2b01      	cmp	r3, #1
    95de:	d106      	bne.n	95ee <fnAPP_Process_Events+0xaa>
    95e0:	4a19      	ldr	r2, [pc, #100]	; (9648 <fnAPP_Process_Events+0x104>)
    95e2:	8813      	ldrh	r3, [r2, #0]
    95e4:	2108      	movs	r1, #8
    95e6:	438b      	bics	r3, r1
    95e8:	8013      	strh	r3, [r2, #0]
    95ea:	4b1a      	ldr	r3, [pc, #104]	; (9654 <fnAPP_Process_Events+0x110>)
    95ec:	4798      	blx	r3
    95ee:	4b16      	ldr	r3, [pc, #88]	; (9648 <fnAPP_Process_Events+0x104>)
    95f0:	881b      	ldrh	r3, [r3, #0]
    95f2:	065b      	lsls	r3, r3, #25
    95f4:	0fdb      	lsrs	r3, r3, #31
    95f6:	b2db      	uxtb	r3, r3
    95f8:	2b01      	cmp	r3, #1
    95fa:	d106      	bne.n	960a <fnAPP_Process_Events+0xc6>
    95fc:	4a12      	ldr	r2, [pc, #72]	; (9648 <fnAPP_Process_Events+0x104>)
    95fe:	8813      	ldrh	r3, [r2, #0]
    9600:	2140      	movs	r1, #64	; 0x40
    9602:	438b      	bics	r3, r1
    9604:	8013      	strh	r3, [r2, #0]
    9606:	4b14      	ldr	r3, [pc, #80]	; (9658 <fnAPP_Process_Events+0x114>)
    9608:	4798      	blx	r3
    960a:	4b0f      	ldr	r3, [pc, #60]	; (9648 <fnAPP_Process_Events+0x104>)
    960c:	881b      	ldrh	r3, [r3, #0]
    960e:	061b      	lsls	r3, r3, #24
    9610:	0fdb      	lsrs	r3, r3, #31
    9612:	b2db      	uxtb	r3, r3
    9614:	2b01      	cmp	r3, #1
    9616:	d104      	bne.n	9622 <fnAPP_Process_Events+0xde>
    9618:	4a0b      	ldr	r2, [pc, #44]	; (9648 <fnAPP_Process_Events+0x104>)
    961a:	8813      	ldrh	r3, [r2, #0]
    961c:	2180      	movs	r1, #128	; 0x80
    961e:	438b      	bics	r3, r1
    9620:	8013      	strh	r3, [r2, #0]
    9622:	4b09      	ldr	r3, [pc, #36]	; (9648 <fnAPP_Process_Events+0x104>)
    9624:	881b      	ldrh	r3, [r3, #0]
    9626:	05db      	lsls	r3, r3, #23
    9628:	0fdb      	lsrs	r3, r3, #31
    962a:	b2db      	uxtb	r3, r3
    962c:	2b01      	cmp	r3, #1
    962e:	d107      	bne.n	9640 <fnAPP_Process_Events+0xfc>
    9630:	4a05      	ldr	r2, [pc, #20]	; (9648 <fnAPP_Process_Events+0x104>)
    9632:	8813      	ldrh	r3, [r2, #0]
    9634:	4909      	ldr	r1, [pc, #36]	; (965c <fnAPP_Process_Events+0x118>)
    9636:	400b      	ands	r3, r1
    9638:	8013      	strh	r3, [r2, #0]
    963a:	4b09      	ldr	r3, [pc, #36]	; (9660 <fnAPP_Process_Events+0x11c>)
    963c:	4798      	blx	r3
    963e:	46c0      	nop			; (mov r8, r8)
    9640:	46c0      	nop			; (mov r8, r8)
    9642:	46bd      	mov	sp, r7
    9644:	bd80      	pop	{r7, pc}
    9646:	46c0      	nop			; (mov r8, r8)
    9648:	20000b68 	.word	0x20000b68
    964c:	000069f9 	.word	0x000069f9
    9650:	00006aed 	.word	0x00006aed
    9654:	00009fa9 	.word	0x00009fa9
    9658:	0000aca5 	.word	0x0000aca5
    965c:	fffffeff 	.word	0xfffffeff
    9660:	00009665 	.word	0x00009665

00009664 <fnAPP_TEST_VW>:
    9664:	b580      	push	{r7, lr}
    9666:	af00      	add	r7, sp, #0
    9668:	46c0      	nop			; (mov r8, r8)
    966a:	46bd      	mov	sp, r7
    966c:	bd80      	pop	{r7, pc}
	...

00009670 <fnAPP_Check_Events>:
    9670:	b580      	push	{r7, lr}
    9672:	af00      	add	r7, sp, #0
    9674:	4b02      	ldr	r3, [pc, #8]	; (9680 <fnAPP_Check_Events+0x10>)
    9676:	4798      	blx	r3
    9678:	46c0      	nop			; (mov r8, r8)
    967a:	46bd      	mov	sp, r7
    967c:	bd80      	pop	{r7, pc}
    967e:	46c0      	nop			; (mov r8, r8)
    9680:	00009991 	.word	0x00009991

00009684 <fnAPP_Enter_Low_Power>:
    9684:	b580      	push	{r7, lr}
    9686:	af00      	add	r7, sp, #0
    9688:	b672      	cpsid	i
    968a:	f3bf 8f5f 	dmb	sy
    968e:	4b17      	ldr	r3, [pc, #92]	; (96ec <fnAPP_Enter_Low_Power+0x68>)
    9690:	2200      	movs	r2, #0
    9692:	701a      	strb	r2, [r3, #0]
    9694:	4b16      	ldr	r3, [pc, #88]	; (96f0 <fnAPP_Enter_Low_Power+0x6c>)
    9696:	881b      	ldrh	r3, [r3, #0]
    9698:	b29b      	uxth	r3, r3
    969a:	2b00      	cmp	r3, #0
    969c:	d10c      	bne.n	96b8 <fnAPP_Enter_Low_Power+0x34>
    969e:	4b15      	ldr	r3, [pc, #84]	; (96f4 <fnAPP_Enter_Low_Power+0x70>)
    96a0:	4798      	blx	r3
    96a2:	0003      	movs	r3, r0
    96a4:	001a      	movs	r2, r3
    96a6:	2301      	movs	r3, #1
    96a8:	4053      	eors	r3, r2
    96aa:	b2db      	uxtb	r3, r3
    96ac:	2b00      	cmp	r3, #0
    96ae:	d003      	beq.n	96b8 <fnAPP_Enter_Low_Power+0x34>
    96b0:	2003      	movs	r0, #3
    96b2:	4b11      	ldr	r3, [pc, #68]	; (96f8 <fnAPP_Enter_Low_Power+0x74>)
    96b4:	4798      	blx	r3
    96b6:	e00d      	b.n	96d4 <fnAPP_Enter_Low_Power+0x50>
    96b8:	4b0d      	ldr	r3, [pc, #52]	; (96f0 <fnAPP_Enter_Low_Power+0x6c>)
    96ba:	881b      	ldrh	r3, [r3, #0]
    96bc:	07db      	lsls	r3, r3, #31
    96be:	0fdb      	lsrs	r3, r3, #31
    96c0:	b2db      	uxtb	r3, r3
    96c2:	2b00      	cmp	r3, #0
    96c4:	d003      	beq.n	96ce <fnAPP_Enter_Low_Power+0x4a>
    96c6:	2000      	movs	r0, #0
    96c8:	4b0b      	ldr	r3, [pc, #44]	; (96f8 <fnAPP_Enter_Low_Power+0x74>)
    96ca:	4798      	blx	r3
    96cc:	e002      	b.n	96d4 <fnAPP_Enter_Low_Power+0x50>
    96ce:	2002      	movs	r0, #2
    96d0:	4b09      	ldr	r3, [pc, #36]	; (96f8 <fnAPP_Enter_Low_Power+0x74>)
    96d2:	4798      	blx	r3
    96d4:	4b05      	ldr	r3, [pc, #20]	; (96ec <fnAPP_Enter_Low_Power+0x68>)
    96d6:	2201      	movs	r2, #1
    96d8:	701a      	strb	r2, [r3, #0]
    96da:	f3bf 8f5f 	dmb	sy
    96de:	b662      	cpsie	i
    96e0:	4b06      	ldr	r3, [pc, #24]	; (96fc <fnAPP_Enter_Low_Power+0x78>)
    96e2:	4798      	blx	r3
    96e4:	46c0      	nop			; (mov r8, r8)
    96e6:	46bd      	mov	sp, r7
    96e8:	bd80      	pop	{r7, pc}
    96ea:	46c0      	nop			; (mov r8, r8)
    96ec:	20000038 	.word	0x20000038
    96f0:	20000b6c 	.word	0x20000b6c
    96f4:	00008ced 	.word	0x00008ced
    96f8:	00009449 	.word	0x00009449
    96fc:	000094d1 	.word	0x000094d1

00009700 <fnRTC_INT_Event_Callback>:
    9700:	b580      	push	{r7, lr}
    9702:	af00      	add	r7, sp, #0
    9704:	4b03      	ldr	r3, [pc, #12]	; (9714 <fnRTC_INT_Event_Callback+0x14>)
    9706:	4798      	blx	r3
    9708:	2002      	movs	r0, #2
    970a:	4b03      	ldr	r3, [pc, #12]	; (9718 <fnRTC_INT_Event_Callback+0x18>)
    970c:	4798      	blx	r3
    970e:	46c0      	nop			; (mov r8, r8)
    9710:	46bd      	mov	sp, r7
    9712:	bd80      	pop	{r7, pc}
    9714:	0000b4c1 	.word	0x0000b4c1
    9718:	00009965 	.word	0x00009965

0000971c <fnSYSTEM_TICK_INT_Event_Callback>:
    971c:	b580      	push	{r7, lr}
    971e:	af00      	add	r7, sp, #0
    9720:	4b02      	ldr	r3, [pc, #8]	; (972c <fnSYSTEM_TICK_INT_Event_Callback+0x10>)
    9722:	4798      	blx	r3
    9724:	46c0      	nop			; (mov r8, r8)
    9726:	46bd      	mov	sp, r7
    9728:	bd80      	pop	{r7, pc}
    972a:	46c0      	nop			; (mov r8, r8)
    972c:	00008589 	.word	0x00008589

00009730 <fnINPUT_INT_Event_Callback>:
    9730:	b580      	push	{r7, lr}
    9732:	b082      	sub	sp, #8
    9734:	af00      	add	r7, sp, #0
    9736:	0002      	movs	r2, r0
    9738:	1dfb      	adds	r3, r7, #7
    973a:	701a      	strb	r2, [r3, #0]
    973c:	1dbb      	adds	r3, r7, #6
    973e:	1c0a      	adds	r2, r1, #0
    9740:	701a      	strb	r2, [r3, #0]
    9742:	1dfb      	adds	r3, r7, #7
    9744:	781b      	ldrb	r3, [r3, #0]
    9746:	009b      	lsls	r3, r3, #2
    9748:	b2da      	uxtb	r2, r3
    974a:	1dbb      	adds	r3, r7, #6
    974c:	781b      	ldrb	r3, [r3, #0]
    974e:	18d3      	adds	r3, r2, r3
    9750:	b2db      	uxtb	r3, r3
    9752:	3303      	adds	r3, #3
    9754:	b2db      	uxtb	r3, r3
    9756:	0018      	movs	r0, r3
    9758:	4b02      	ldr	r3, [pc, #8]	; (9764 <fnINPUT_INT_Event_Callback+0x34>)
    975a:	4798      	blx	r3
    975c:	46c0      	nop			; (mov r8, r8)
    975e:	46bd      	mov	sp, r7
    9760:	b002      	add	sp, #8
    9762:	bd80      	pop	{r7, pc}
    9764:	00009965 	.word	0x00009965

00009768 <fnSECURITY_Init>:
    9768:	b580      	push	{r7, lr}
    976a:	af00      	add	r7, sp, #0
    976c:	4b0d      	ldr	r3, [pc, #52]	; (97a4 <fnSECURITY_Init+0x3c>)
    976e:	2200      	movs	r2, #0
    9770:	701a      	strb	r2, [r3, #0]
    9772:	4b0d      	ldr	r3, [pc, #52]	; (97a8 <fnSECURITY_Init+0x40>)
    9774:	4798      	blx	r3
    9776:	4b0d      	ldr	r3, [pc, #52]	; (97ac <fnSECURITY_Init+0x44>)
    9778:	4798      	blx	r3
    977a:	4a0d      	ldr	r2, [pc, #52]	; (97b0 <fnSECURITY_Init+0x48>)
    977c:	4b0d      	ldr	r3, [pc, #52]	; (97b4 <fnSECURITY_Init+0x4c>)
    977e:	0011      	movs	r1, r2
    9780:	0018      	movs	r0, r3
    9782:	4b0d      	ldr	r3, [pc, #52]	; (97b8 <fnSECURITY_Init+0x50>)
    9784:	4798      	blx	r3
    9786:	490d      	ldr	r1, [pc, #52]	; (97bc <fnSECURITY_Init+0x54>)
    9788:	4b0a      	ldr	r3, [pc, #40]	; (97b4 <fnSECURITY_Init+0x4c>)
    978a:	2210      	movs	r2, #16
    978c:	0018      	movs	r0, r3
    978e:	4b0c      	ldr	r3, [pc, #48]	; (97c0 <fnSECURITY_Init+0x58>)
    9790:	4798      	blx	r3
    9792:	1e03      	subs	r3, r0, #0
    9794:	d103      	bne.n	979e <fnSECURITY_Init+0x36>
    9796:	4b03      	ldr	r3, [pc, #12]	; (97a4 <fnSECURITY_Init+0x3c>)
    9798:	2201      	movs	r2, #1
    979a:	701a      	strb	r2, [r3, #0]
    979c:	46c0      	nop			; (mov r8, r8)
    979e:	46c0      	nop			; (mov r8, r8)
    97a0:	46bd      	mov	sp, r7
    97a2:	bd80      	pop	{r7, pc}
    97a4:	2000058c 	.word	0x2000058c
    97a8:	000097f1 	.word	0x000097f1
    97ac:	0000984d 	.word	0x0000984d
    97b0:	000120b4 	.word	0x000120b4
    97b4:	2000057c 	.word	0x2000057c
    97b8:	0000d9e1 	.word	0x0000d9e1
    97bc:	2000056c 	.word	0x2000056c
    97c0:	00011b6d 	.word	0x00011b6d

000097c4 <fnSECURITY_Is_Module_Licensed>:
    97c4:	b580      	push	{r7, lr}
    97c6:	af00      	add	r7, sp, #0
    97c8:	4906      	ldr	r1, [pc, #24]	; (97e4 <fnSECURITY_Is_Module_Licensed+0x20>)
    97ca:	4b07      	ldr	r3, [pc, #28]	; (97e8 <fnSECURITY_Is_Module_Licensed+0x24>)
    97cc:	2210      	movs	r2, #16
    97ce:	0018      	movs	r0, r3
    97d0:	4b06      	ldr	r3, [pc, #24]	; (97ec <fnSECURITY_Is_Module_Licensed+0x28>)
    97d2:	4798      	blx	r3
    97d4:	0003      	movs	r3, r0
    97d6:	425a      	negs	r2, r3
    97d8:	4153      	adcs	r3, r2
    97da:	b2db      	uxtb	r3, r3
    97dc:	0018      	movs	r0, r3
    97de:	46bd      	mov	sp, r7
    97e0:	bd80      	pop	{r7, pc}
    97e2:	46c0      	nop			; (mov r8, r8)
    97e4:	2000056c 	.word	0x2000056c
    97e8:	2000057c 	.word	0x2000057c
    97ec:	00011b6d 	.word	0x00011b6d

000097f0 <fnSECURITY_Update_Serial_Number>:
    97f0:	b580      	push	{r7, lr}
    97f2:	b082      	sub	sp, #8
    97f4:	af00      	add	r7, sp, #0
    97f6:	4b0f      	ldr	r3, [pc, #60]	; (9834 <fnSECURITY_Update_Serial_Number+0x44>)
    97f8:	607b      	str	r3, [r7, #4]
    97fa:	4b0f      	ldr	r3, [pc, #60]	; (9838 <fnSECURITY_Update_Serial_Number+0x48>)
    97fc:	603b      	str	r3, [r7, #0]
    97fe:	4b0f      	ldr	r3, [pc, #60]	; (983c <fnSECURITY_Update_Serial_Number+0x4c>)
    9800:	687a      	ldr	r2, [r7, #4]
    9802:	6812      	ldr	r2, [r2, #0]
    9804:	601a      	str	r2, [r3, #0]
    9806:	4a0e      	ldr	r2, [pc, #56]	; (9840 <fnSECURITY_Update_Serial_Number+0x50>)
    9808:	683b      	ldr	r3, [r7, #0]
    980a:	1d19      	adds	r1, r3, #4
    980c:	6039      	str	r1, [r7, #0]
    980e:	681b      	ldr	r3, [r3, #0]
    9810:	6013      	str	r3, [r2, #0]
    9812:	4a0c      	ldr	r2, [pc, #48]	; (9844 <fnSECURITY_Update_Serial_Number+0x54>)
    9814:	683b      	ldr	r3, [r7, #0]
    9816:	1d19      	adds	r1, r3, #4
    9818:	6039      	str	r1, [r7, #0]
    981a:	681b      	ldr	r3, [r3, #0]
    981c:	6013      	str	r3, [r2, #0]
    981e:	4a0a      	ldr	r2, [pc, #40]	; (9848 <fnSECURITY_Update_Serial_Number+0x58>)
    9820:	683b      	ldr	r3, [r7, #0]
    9822:	1d19      	adds	r1, r3, #4
    9824:	6039      	str	r1, [r7, #0]
    9826:	681b      	ldr	r3, [r3, #0]
    9828:	6013      	str	r3, [r2, #0]
    982a:	46c0      	nop			; (mov r8, r8)
    982c:	46bd      	mov	sp, r7
    982e:	b002      	add	sp, #8
    9830:	bd80      	pop	{r7, pc}
    9832:	46c0      	nop			; (mov r8, r8)
    9834:	0080a00c 	.word	0x0080a00c
    9838:	0080a040 	.word	0x0080a040
    983c:	2000056c 	.word	0x2000056c
    9840:	20000570 	.word	0x20000570
    9844:	20000574 	.word	0x20000574
    9848:	20000578 	.word	0x20000578

0000984c <fnSECURITY_Update_Flash_Key>:
    984c:	b580      	push	{r7, lr}
    984e:	b082      	sub	sp, #8
    9850:	af00      	add	r7, sp, #0
    9852:	2380      	movs	r3, #128	; 0x80
    9854:	01db      	lsls	r3, r3, #7
    9856:	607b      	str	r3, [r7, #4]
    9858:	4a0d      	ldr	r2, [pc, #52]	; (9890 <fnSECURITY_Update_Flash_Key+0x44>)
    985a:	687b      	ldr	r3, [r7, #4]
    985c:	1d19      	adds	r1, r3, #4
    985e:	6079      	str	r1, [r7, #4]
    9860:	681b      	ldr	r3, [r3, #0]
    9862:	6013      	str	r3, [r2, #0]
    9864:	4a0b      	ldr	r2, [pc, #44]	; (9894 <fnSECURITY_Update_Flash_Key+0x48>)
    9866:	687b      	ldr	r3, [r7, #4]
    9868:	1d19      	adds	r1, r3, #4
    986a:	6079      	str	r1, [r7, #4]
    986c:	681b      	ldr	r3, [r3, #0]
    986e:	6013      	str	r3, [r2, #0]
    9870:	4a09      	ldr	r2, [pc, #36]	; (9898 <fnSECURITY_Update_Flash_Key+0x4c>)
    9872:	687b      	ldr	r3, [r7, #4]
    9874:	1d19      	adds	r1, r3, #4
    9876:	6079      	str	r1, [r7, #4]
    9878:	681b      	ldr	r3, [r3, #0]
    987a:	6013      	str	r3, [r2, #0]
    987c:	4a07      	ldr	r2, [pc, #28]	; (989c <fnSECURITY_Update_Flash_Key+0x50>)
    987e:	687b      	ldr	r3, [r7, #4]
    9880:	1d19      	adds	r1, r3, #4
    9882:	6079      	str	r1, [r7, #4]
    9884:	681b      	ldr	r3, [r3, #0]
    9886:	6013      	str	r3, [r2, #0]
    9888:	46c0      	nop			; (mov r8, r8)
    988a:	46bd      	mov	sp, r7
    988c:	b002      	add	sp, #8
    988e:	bd80      	pop	{r7, pc}
    9890:	2000057c 	.word	0x2000057c
    9894:	20000580 	.word	0x20000580
    9898:	20000584 	.word	0x20000584
    989c:	20000588 	.word	0x20000588

000098a0 <cpu_irq_enter_critical>:
    98a0:	b580      	push	{r7, lr}
    98a2:	b082      	sub	sp, #8
    98a4:	af00      	add	r7, sp, #0
    98a6:	4b10      	ldr	r3, [pc, #64]	; (98e8 <cpu_irq_enter_critical+0x48>)
    98a8:	681b      	ldr	r3, [r3, #0]
    98aa:	2b00      	cmp	r3, #0
    98ac:	d112      	bne.n	98d4 <cpu_irq_enter_critical+0x34>
    98ae:	f3ef 8310 	mrs	r3, PRIMASK
    98b2:	607b      	str	r3, [r7, #4]
    98b4:	687b      	ldr	r3, [r7, #4]
    98b6:	2b00      	cmp	r3, #0
    98b8:	d109      	bne.n	98ce <cpu_irq_enter_critical+0x2e>
    98ba:	b672      	cpsid	i
    98bc:	f3bf 8f5f 	dmb	sy
    98c0:	4b0a      	ldr	r3, [pc, #40]	; (98ec <cpu_irq_enter_critical+0x4c>)
    98c2:	2200      	movs	r2, #0
    98c4:	701a      	strb	r2, [r3, #0]
    98c6:	4b0a      	ldr	r3, [pc, #40]	; (98f0 <cpu_irq_enter_critical+0x50>)
    98c8:	2201      	movs	r2, #1
    98ca:	701a      	strb	r2, [r3, #0]
    98cc:	e002      	b.n	98d4 <cpu_irq_enter_critical+0x34>
    98ce:	4b08      	ldr	r3, [pc, #32]	; (98f0 <cpu_irq_enter_critical+0x50>)
    98d0:	2200      	movs	r2, #0
    98d2:	701a      	strb	r2, [r3, #0]
    98d4:	4b04      	ldr	r3, [pc, #16]	; (98e8 <cpu_irq_enter_critical+0x48>)
    98d6:	681b      	ldr	r3, [r3, #0]
    98d8:	1c5a      	adds	r2, r3, #1
    98da:	4b03      	ldr	r3, [pc, #12]	; (98e8 <cpu_irq_enter_critical+0x48>)
    98dc:	601a      	str	r2, [r3, #0]
    98de:	46c0      	nop			; (mov r8, r8)
    98e0:	46bd      	mov	sp, r7
    98e2:	b002      	add	sp, #8
    98e4:	bd80      	pop	{r7, pc}
    98e6:	46c0      	nop			; (mov r8, r8)
    98e8:	20000590 	.word	0x20000590
    98ec:	20000038 	.word	0x20000038
    98f0:	20000594 	.word	0x20000594

000098f4 <cpu_irq_leave_critical>:
    98f4:	b580      	push	{r7, lr}
    98f6:	af00      	add	r7, sp, #0
    98f8:	4b0b      	ldr	r3, [pc, #44]	; (9928 <cpu_irq_leave_critical+0x34>)
    98fa:	681b      	ldr	r3, [r3, #0]
    98fc:	1e5a      	subs	r2, r3, #1
    98fe:	4b0a      	ldr	r3, [pc, #40]	; (9928 <cpu_irq_leave_critical+0x34>)
    9900:	601a      	str	r2, [r3, #0]
    9902:	4b09      	ldr	r3, [pc, #36]	; (9928 <cpu_irq_leave_critical+0x34>)
    9904:	681b      	ldr	r3, [r3, #0]
    9906:	2b00      	cmp	r3, #0
    9908:	d10a      	bne.n	9920 <cpu_irq_leave_critical+0x2c>
    990a:	4b08      	ldr	r3, [pc, #32]	; (992c <cpu_irq_leave_critical+0x38>)
    990c:	781b      	ldrb	r3, [r3, #0]
    990e:	b2db      	uxtb	r3, r3
    9910:	2b00      	cmp	r3, #0
    9912:	d005      	beq.n	9920 <cpu_irq_leave_critical+0x2c>
    9914:	4b06      	ldr	r3, [pc, #24]	; (9930 <cpu_irq_leave_critical+0x3c>)
    9916:	2201      	movs	r2, #1
    9918:	701a      	strb	r2, [r3, #0]
    991a:	f3bf 8f5f 	dmb	sy
    991e:	b662      	cpsie	i
    9920:	46c0      	nop			; (mov r8, r8)
    9922:	46bd      	mov	sp, r7
    9924:	bd80      	pop	{r7, pc}
    9926:	46c0      	nop			; (mov r8, r8)
    9928:	20000590 	.word	0x20000590
    992c:	20000594 	.word	0x20000594
    9930:	20000038 	.word	0x20000038

00009934 <fnEVENT_Callback>:
    9934:	b580      	push	{r7, lr}
    9936:	b082      	sub	sp, #8
    9938:	af00      	add	r7, sp, #0
    993a:	0002      	movs	r2, r0
    993c:	1dfb      	adds	r3, r7, #7
    993e:	701a      	strb	r2, [r3, #0]
    9940:	46c0      	nop			; (mov r8, r8)
    9942:	46bd      	mov	sp, r7
    9944:	b002      	add	sp, #8
    9946:	bd80      	pop	{r7, pc}

00009948 <fnEVENT_Init>:
    9948:	b580      	push	{r7, lr}
    994a:	af00      	add	r7, sp, #0
    994c:	4b03      	ldr	r3, [pc, #12]	; (995c <fnEVENT_Init+0x14>)
    994e:	0018      	movs	r0, r3
    9950:	4b03      	ldr	r3, [pc, #12]	; (9960 <fnEVENT_Init+0x18>)
    9952:	4798      	blx	r3
    9954:	46c0      	nop			; (mov r8, r8)
    9956:	46bd      	mov	sp, r7
    9958:	bd80      	pop	{r7, pc}
    995a:	46c0      	nop			; (mov r8, r8)
    995c:	20000598 	.word	0x20000598
    9960:	000082d1 	.word	0x000082d1

00009964 <fnEVENT_Insert>:
    9964:	b580      	push	{r7, lr}
    9966:	b082      	sub	sp, #8
    9968:	af00      	add	r7, sp, #0
    996a:	0002      	movs	r2, r0
    996c:	1dfb      	adds	r3, r7, #7
    996e:	701a      	strb	r2, [r3, #0]
    9970:	1dfb      	adds	r3, r7, #7
    9972:	781a      	ldrb	r2, [r3, #0]
    9974:	4b04      	ldr	r3, [pc, #16]	; (9988 <fnEVENT_Insert+0x24>)
    9976:	0011      	movs	r1, r2
    9978:	0018      	movs	r0, r3
    997a:	4b04      	ldr	r3, [pc, #16]	; (998c <fnEVENT_Insert+0x28>)
    997c:	4798      	blx	r3
    997e:	46c0      	nop			; (mov r8, r8)
    9980:	46bd      	mov	sp, r7
    9982:	b002      	add	sp, #8
    9984:	bd80      	pop	{r7, pc}
    9986:	46c0      	nop			; (mov r8, r8)
    9988:	20000598 	.word	0x20000598
    998c:	000082f1 	.word	0x000082f1

00009990 <fnEVENT_Process>:
    9990:	b580      	push	{r7, lr}
    9992:	af00      	add	r7, sp, #0
    9994:	e007      	b.n	99a6 <fnEVENT_Process+0x16>
    9996:	4b08      	ldr	r3, [pc, #32]	; (99b8 <fnEVENT_Process+0x28>)
    9998:	0018      	movs	r0, r3
    999a:	4b08      	ldr	r3, [pc, #32]	; (99bc <fnEVENT_Process+0x2c>)
    999c:	4798      	blx	r3
    999e:	0003      	movs	r3, r0
    99a0:	0018      	movs	r0, r3
    99a2:	4b07      	ldr	r3, [pc, #28]	; (99c0 <fnEVENT_Process+0x30>)
    99a4:	4798      	blx	r3
    99a6:	4b04      	ldr	r3, [pc, #16]	; (99b8 <fnEVENT_Process+0x28>)
    99a8:	0018      	movs	r0, r3
    99aa:	4b06      	ldr	r3, [pc, #24]	; (99c4 <fnEVENT_Process+0x34>)
    99ac:	4798      	blx	r3
    99ae:	1e03      	subs	r3, r0, #0
    99b0:	d1f1      	bne.n	9996 <fnEVENT_Process+0x6>
    99b2:	46c0      	nop			; (mov r8, r8)
    99b4:	46bd      	mov	sp, r7
    99b6:	bd80      	pop	{r7, pc}
    99b8:	20000598 	.word	0x20000598
    99bc:	00008359 	.word	0x00008359
    99c0:	000099c9 	.word	0x000099c9
    99c4:	00008397 	.word	0x00008397

000099c8 <fnEVENT_Send>:
    99c8:	b590      	push	{r4, r7, lr}
    99ca:	b085      	sub	sp, #20
    99cc:	af00      	add	r7, sp, #0
    99ce:	0002      	movs	r2, r0
    99d0:	1dfb      	adds	r3, r7, #7
    99d2:	701a      	strb	r2, [r3, #0]
    99d4:	230f      	movs	r3, #15
    99d6:	18fc      	adds	r4, r7, r3
    99d8:	1dfb      	adds	r3, r7, #7
    99da:	781b      	ldrb	r3, [r3, #0]
    99dc:	0018      	movs	r0, r3
    99de:	4b10      	ldr	r3, [pc, #64]	; (9a20 <fnEVENT_Send+0x58>)
    99e0:	4798      	blx	r3
    99e2:	0003      	movs	r3, r0
    99e4:	7023      	strb	r3, [r4, #0]
    99e6:	230f      	movs	r3, #15
    99e8:	18fb      	adds	r3, r7, r3
    99ea:	781b      	ldrb	r3, [r3, #0]
    99ec:	4a0d      	ldr	r2, [pc, #52]	; (9a24 <fnEVENT_Send+0x5c>)
    99ee:	00db      	lsls	r3, r3, #3
    99f0:	18d3      	adds	r3, r2, r3
    99f2:	3304      	adds	r3, #4
    99f4:	681b      	ldr	r3, [r3, #0]
    99f6:	2b00      	cmp	r3, #0
    99f8:	d009      	beq.n	9a0e <fnEVENT_Send+0x46>
    99fa:	230f      	movs	r3, #15
    99fc:	18fb      	adds	r3, r7, r3
    99fe:	781b      	ldrb	r3, [r3, #0]
    9a00:	4a08      	ldr	r2, [pc, #32]	; (9a24 <fnEVENT_Send+0x5c>)
    9a02:	00db      	lsls	r3, r3, #3
    9a04:	18d3      	adds	r3, r2, r3
    9a06:	3304      	adds	r3, #4
    9a08:	681b      	ldr	r3, [r3, #0]
    9a0a:	4798      	blx	r3
    9a0c:	e005      	b.n	9a1a <fnEVENT_Send+0x52>
    9a0e:	1dfb      	adds	r3, r7, #7
    9a10:	781b      	ldrb	r3, [r3, #0]
    9a12:	0018      	movs	r0, r3
    9a14:	4b04      	ldr	r3, [pc, #16]	; (9a28 <fnEVENT_Send+0x60>)
    9a16:	4798      	blx	r3
    9a18:	46c0      	nop			; (mov r8, r8)
    9a1a:	46bd      	mov	sp, r7
    9a1c:	b005      	add	sp, #20
    9a1e:	bd90      	pop	{r4, r7, pc}
    9a20:	00009a2d 	.word	0x00009a2d
    9a24:	2000003c 	.word	0x2000003c
    9a28:	00009935 	.word	0x00009935

00009a2c <fnEVENT_Get_Index>:
    9a2c:	b580      	push	{r7, lr}
    9a2e:	b084      	sub	sp, #16
    9a30:	af00      	add	r7, sp, #0
    9a32:	0002      	movs	r2, r0
    9a34:	1dfb      	adds	r3, r7, #7
    9a36:	701a      	strb	r2, [r3, #0]
    9a38:	230f      	movs	r3, #15
    9a3a:	18fb      	adds	r3, r7, r3
    9a3c:	2200      	movs	r2, #0
    9a3e:	701a      	strb	r2, [r3, #0]
    9a40:	e014      	b.n	9a6c <fnEVENT_Get_Index+0x40>
    9a42:	230f      	movs	r3, #15
    9a44:	18fb      	adds	r3, r7, r3
    9a46:	781a      	ldrb	r2, [r3, #0]
    9a48:	4b0d      	ldr	r3, [pc, #52]	; (9a80 <fnEVENT_Get_Index+0x54>)
    9a4a:	00d2      	lsls	r2, r2, #3
    9a4c:	5cd3      	ldrb	r3, [r2, r3]
    9a4e:	1dfa      	adds	r2, r7, #7
    9a50:	7812      	ldrb	r2, [r2, #0]
    9a52:	429a      	cmp	r2, r3
    9a54:	d103      	bne.n	9a5e <fnEVENT_Get_Index+0x32>
    9a56:	230f      	movs	r3, #15
    9a58:	18fb      	adds	r3, r7, r3
    9a5a:	781b      	ldrb	r3, [r3, #0]
    9a5c:	e00c      	b.n	9a78 <fnEVENT_Get_Index+0x4c>
    9a5e:	230f      	movs	r3, #15
    9a60:	18fb      	adds	r3, r7, r3
    9a62:	781a      	ldrb	r2, [r3, #0]
    9a64:	230f      	movs	r3, #15
    9a66:	18fb      	adds	r3, r7, r3
    9a68:	3201      	adds	r2, #1
    9a6a:	701a      	strb	r2, [r3, #0]
    9a6c:	230f      	movs	r3, #15
    9a6e:	18fb      	adds	r3, r7, r3
    9a70:	781b      	ldrb	r3, [r3, #0]
    9a72:	2b09      	cmp	r3, #9
    9a74:	d9e5      	bls.n	9a42 <fnEVENT_Get_Index+0x16>
    9a76:	23ff      	movs	r3, #255	; 0xff
    9a78:	0018      	movs	r0, r3
    9a7a:	46bd      	mov	sp, r7
    9a7c:	b004      	add	sp, #16
    9a7e:	bd80      	pop	{r7, pc}
    9a80:	2000003c 	.word	0x2000003c

00009a84 <fnONE_WIRE_Init>:
    9a84:	b580      	push	{r7, lr}
    9a86:	af00      	add	r7, sp, #0
    9a88:	4b03      	ldr	r3, [pc, #12]	; (9a98 <fnONE_WIRE_Init+0x14>)
    9a8a:	4798      	blx	r3
    9a8c:	4b03      	ldr	r3, [pc, #12]	; (9a9c <fnONE_WIRE_Init+0x18>)
    9a8e:	4798      	blx	r3
    9a90:	46c0      	nop			; (mov r8, r8)
    9a92:	46bd      	mov	sp, r7
    9a94:	bd80      	pop	{r7, pc}
    9a96:	46c0      	nop			; (mov r8, r8)
    9a98:	00009af1 	.word	0x00009af1
    9a9c:	00009aa1 	.word	0x00009aa1

00009aa0 <fnONE_WIRE_Reset_Search>:
    9aa0:	b580      	push	{r7, lr}
    9aa2:	b082      	sub	sp, #8
    9aa4:	af00      	add	r7, sp, #0
    9aa6:	4b0e      	ldr	r3, [pc, #56]	; (9ae0 <fnONE_WIRE_Reset_Search+0x40>)
    9aa8:	2200      	movs	r2, #0
    9aaa:	701a      	strb	r2, [r3, #0]
    9aac:	4b0d      	ldr	r3, [pc, #52]	; (9ae4 <fnONE_WIRE_Reset_Search+0x44>)
    9aae:	2200      	movs	r2, #0
    9ab0:	701a      	strb	r2, [r3, #0]
    9ab2:	4b0d      	ldr	r3, [pc, #52]	; (9ae8 <fnONE_WIRE_Reset_Search+0x48>)
    9ab4:	2200      	movs	r2, #0
    9ab6:	701a      	strb	r2, [r3, #0]
    9ab8:	2307      	movs	r3, #7
    9aba:	607b      	str	r3, [r7, #4]
    9abc:	4a0b      	ldr	r2, [pc, #44]	; (9aec <fnONE_WIRE_Reset_Search+0x4c>)
    9abe:	687b      	ldr	r3, [r7, #4]
    9ac0:	18d3      	adds	r3, r2, r3
    9ac2:	2200      	movs	r2, #0
    9ac4:	701a      	strb	r2, [r3, #0]
    9ac6:	687b      	ldr	r3, [r7, #4]
    9ac8:	2b00      	cmp	r3, #0
    9aca:	d003      	beq.n	9ad4 <fnONE_WIRE_Reset_Search+0x34>
    9acc:	687b      	ldr	r3, [r7, #4]
    9ace:	3b01      	subs	r3, #1
    9ad0:	607b      	str	r3, [r7, #4]
    9ad2:	e7f3      	b.n	9abc <fnONE_WIRE_Reset_Search+0x1c>
    9ad4:	46c0      	nop			; (mov r8, r8)
    9ad6:	46c0      	nop			; (mov r8, r8)
    9ad8:	46bd      	mov	sp, r7
    9ada:	b002      	add	sp, #8
    9adc:	bd80      	pop	{r7, pc}
    9ade:	46c0      	nop			; (mov r8, r8)
    9ae0:	20000b7a 	.word	0x20000b7a
    9ae4:	20000b79 	.word	0x20000b79
    9ae8:	20000b78 	.word	0x20000b78
    9aec:	20000b70 	.word	0x20000b70

00009af0 <fnONE_WIRE_PORT_Config_Pin>:
    9af0:	b580      	push	{r7, lr}
    9af2:	af00      	add	r7, sp, #0
    9af4:	4b02      	ldr	r3, [pc, #8]	; (9b00 <fnONE_WIRE_PORT_Config_Pin+0x10>)
    9af6:	4798      	blx	r3
    9af8:	46c0      	nop			; (mov r8, r8)
    9afa:	46bd      	mov	sp, r7
    9afc:	bd80      	pop	{r7, pc}
    9afe:	46c0      	nop			; (mov r8, r8)
    9b00:	00009b05 	.word	0x00009b05

00009b04 <fnONE_WIRE_PORT_Config_Pin_As_Input>:
    9b04:	b580      	push	{r7, lr}
    9b06:	af00      	add	r7, sp, #0
    9b08:	4b04      	ldr	r3, [pc, #16]	; (9b1c <fnONE_WIRE_PORT_Config_Pin_As_Input+0x18>)
    9b0a:	2240      	movs	r2, #64	; 0x40
    9b0c:	619a      	str	r2, [r3, #24]
    9b0e:	4b03      	ldr	r3, [pc, #12]	; (9b1c <fnONE_WIRE_PORT_Config_Pin_As_Input+0x18>)
    9b10:	2240      	movs	r2, #64	; 0x40
    9b12:	605a      	str	r2, [r3, #4]
    9b14:	46c0      	nop			; (mov r8, r8)
    9b16:	46bd      	mov	sp, r7
    9b18:	bd80      	pop	{r7, pc}
    9b1a:	46c0      	nop			; (mov r8, r8)
    9b1c:	41004400 	.word	0x41004400

00009b20 <system_gclk_chan_get_config_defaults>:
    9b20:	b580      	push	{r7, lr}
    9b22:	b082      	sub	sp, #8
    9b24:	af00      	add	r7, sp, #0
    9b26:	6078      	str	r0, [r7, #4]
    9b28:	687b      	ldr	r3, [r7, #4]
    9b2a:	2200      	movs	r2, #0
    9b2c:	701a      	strb	r2, [r3, #0]
    9b2e:	46c0      	nop			; (mov r8, r8)
    9b30:	46bd      	mov	sp, r7
    9b32:	b002      	add	sp, #8
    9b34:	bd80      	pop	{r7, pc}
	...

00009b38 <system_apb_clock_set_mask>:
    9b38:	b580      	push	{r7, lr}
    9b3a:	b082      	sub	sp, #8
    9b3c:	af00      	add	r7, sp, #0
    9b3e:	0002      	movs	r2, r0
    9b40:	6039      	str	r1, [r7, #0]
    9b42:	1dfb      	adds	r3, r7, #7
    9b44:	701a      	strb	r2, [r3, #0]
    9b46:	1dfb      	adds	r3, r7, #7
    9b48:	781b      	ldrb	r3, [r3, #0]
    9b4a:	2b01      	cmp	r3, #1
    9b4c:	d00a      	beq.n	9b64 <system_apb_clock_set_mask+0x2c>
    9b4e:	2b02      	cmp	r3, #2
    9b50:	d00f      	beq.n	9b72 <system_apb_clock_set_mask+0x3a>
    9b52:	2b00      	cmp	r3, #0
    9b54:	d114      	bne.n	9b80 <system_apb_clock_set_mask+0x48>
    9b56:	4b0e      	ldr	r3, [pc, #56]	; (9b90 <system_apb_clock_set_mask+0x58>)
    9b58:	4a0d      	ldr	r2, [pc, #52]	; (9b90 <system_apb_clock_set_mask+0x58>)
    9b5a:	6991      	ldr	r1, [r2, #24]
    9b5c:	683a      	ldr	r2, [r7, #0]
    9b5e:	430a      	orrs	r2, r1
    9b60:	619a      	str	r2, [r3, #24]
    9b62:	e00f      	b.n	9b84 <system_apb_clock_set_mask+0x4c>
    9b64:	4b0a      	ldr	r3, [pc, #40]	; (9b90 <system_apb_clock_set_mask+0x58>)
    9b66:	4a0a      	ldr	r2, [pc, #40]	; (9b90 <system_apb_clock_set_mask+0x58>)
    9b68:	69d1      	ldr	r1, [r2, #28]
    9b6a:	683a      	ldr	r2, [r7, #0]
    9b6c:	430a      	orrs	r2, r1
    9b6e:	61da      	str	r2, [r3, #28]
    9b70:	e008      	b.n	9b84 <system_apb_clock_set_mask+0x4c>
    9b72:	4b07      	ldr	r3, [pc, #28]	; (9b90 <system_apb_clock_set_mask+0x58>)
    9b74:	4a06      	ldr	r2, [pc, #24]	; (9b90 <system_apb_clock_set_mask+0x58>)
    9b76:	6a11      	ldr	r1, [r2, #32]
    9b78:	683a      	ldr	r2, [r7, #0]
    9b7a:	430a      	orrs	r2, r1
    9b7c:	621a      	str	r2, [r3, #32]
    9b7e:	e001      	b.n	9b84 <system_apb_clock_set_mask+0x4c>
    9b80:	2317      	movs	r3, #23
    9b82:	e000      	b.n	9b86 <system_apb_clock_set_mask+0x4e>
    9b84:	2300      	movs	r3, #0
    9b86:	0018      	movs	r0, r3
    9b88:	46bd      	mov	sp, r7
    9b8a:	b002      	add	sp, #8
    9b8c:	bd80      	pop	{r7, pc}
    9b8e:	46c0      	nop			; (mov r8, r8)
    9b90:	40000400 	.word	0x40000400

00009b94 <rtc_count_is_syncing>:
    9b94:	b580      	push	{r7, lr}
    9b96:	b084      	sub	sp, #16
    9b98:	af00      	add	r7, sp, #0
    9b9a:	6078      	str	r0, [r7, #4]
    9b9c:	687b      	ldr	r3, [r7, #4]
    9b9e:	681b      	ldr	r3, [r3, #0]
    9ba0:	60fb      	str	r3, [r7, #12]
    9ba2:	68fb      	ldr	r3, [r7, #12]
    9ba4:	7a9b      	ldrb	r3, [r3, #10]
    9ba6:	b2db      	uxtb	r3, r3
    9ba8:	b25b      	sxtb	r3, r3
    9baa:	2b00      	cmp	r3, #0
    9bac:	da01      	bge.n	9bb2 <rtc_count_is_syncing+0x1e>
    9bae:	2301      	movs	r3, #1
    9bb0:	e000      	b.n	9bb4 <rtc_count_is_syncing+0x20>
    9bb2:	2300      	movs	r3, #0
    9bb4:	0018      	movs	r0, r3
    9bb6:	46bd      	mov	sp, r7
    9bb8:	b004      	add	sp, #16
    9bba:	bd80      	pop	{r7, pc}

00009bbc <rtc_count_enable>:
    9bbc:	b580      	push	{r7, lr}
    9bbe:	b084      	sub	sp, #16
    9bc0:	af00      	add	r7, sp, #0
    9bc2:	6078      	str	r0, [r7, #4]
    9bc4:	687b      	ldr	r3, [r7, #4]
    9bc6:	681b      	ldr	r3, [r3, #0]
    9bc8:	60fb      	str	r3, [r7, #12]
    9bca:	46c0      	nop			; (mov r8, r8)
    9bcc:	687b      	ldr	r3, [r7, #4]
    9bce:	0018      	movs	r0, r3
    9bd0:	4b07      	ldr	r3, [pc, #28]	; (9bf0 <rtc_count_enable+0x34>)
    9bd2:	4798      	blx	r3
    9bd4:	1e03      	subs	r3, r0, #0
    9bd6:	d1f9      	bne.n	9bcc <rtc_count_enable+0x10>
    9bd8:	68fb      	ldr	r3, [r7, #12]
    9bda:	881b      	ldrh	r3, [r3, #0]
    9bdc:	b29b      	uxth	r3, r3
    9bde:	2202      	movs	r2, #2
    9be0:	4313      	orrs	r3, r2
    9be2:	b29a      	uxth	r2, r3
    9be4:	68fb      	ldr	r3, [r7, #12]
    9be6:	801a      	strh	r2, [r3, #0]
    9be8:	46c0      	nop			; (mov r8, r8)
    9bea:	46bd      	mov	sp, r7
    9bec:	b004      	add	sp, #16
    9bee:	bd80      	pop	{r7, pc}
    9bf0:	00009b95 	.word	0x00009b95

00009bf4 <rtc_count_disable>:
    9bf4:	b580      	push	{r7, lr}
    9bf6:	b084      	sub	sp, #16
    9bf8:	af00      	add	r7, sp, #0
    9bfa:	6078      	str	r0, [r7, #4]
    9bfc:	687b      	ldr	r3, [r7, #4]
    9bfe:	681b      	ldr	r3, [r3, #0]
    9c00:	60fb      	str	r3, [r7, #12]
    9c02:	46c0      	nop			; (mov r8, r8)
    9c04:	687b      	ldr	r3, [r7, #4]
    9c06:	0018      	movs	r0, r3
    9c08:	4b0a      	ldr	r3, [pc, #40]	; (9c34 <rtc_count_disable+0x40>)
    9c0a:	4798      	blx	r3
    9c0c:	1e03      	subs	r3, r0, #0
    9c0e:	d1f9      	bne.n	9c04 <rtc_count_disable+0x10>
    9c10:	68fb      	ldr	r3, [r7, #12]
    9c12:	22c1      	movs	r2, #193	; 0xc1
    9c14:	719a      	strb	r2, [r3, #6]
    9c16:	68fb      	ldr	r3, [r7, #12]
    9c18:	22c1      	movs	r2, #193	; 0xc1
    9c1a:	721a      	strb	r2, [r3, #8]
    9c1c:	68fb      	ldr	r3, [r7, #12]
    9c1e:	881b      	ldrh	r3, [r3, #0]
    9c20:	b29b      	uxth	r3, r3
    9c22:	2202      	movs	r2, #2
    9c24:	4393      	bics	r3, r2
    9c26:	b29a      	uxth	r2, r3
    9c28:	68fb      	ldr	r3, [r7, #12]
    9c2a:	801a      	strh	r2, [r3, #0]
    9c2c:	46c0      	nop			; (mov r8, r8)
    9c2e:	46bd      	mov	sp, r7
    9c30:	b004      	add	sp, #16
    9c32:	bd80      	pop	{r7, pc}
    9c34:	00009b95 	.word	0x00009b95

00009c38 <rtc_count_reset>:
    9c38:	b580      	push	{r7, lr}
    9c3a:	b084      	sub	sp, #16
    9c3c:	af00      	add	r7, sp, #0
    9c3e:	6078      	str	r0, [r7, #4]
    9c40:	687b      	ldr	r3, [r7, #4]
    9c42:	681b      	ldr	r3, [r3, #0]
    9c44:	60fb      	str	r3, [r7, #12]
    9c46:	687b      	ldr	r3, [r7, #4]
    9c48:	0018      	movs	r0, r3
    9c4a:	4b0a      	ldr	r3, [pc, #40]	; (9c74 <rtc_count_reset+0x3c>)
    9c4c:	4798      	blx	r3
    9c4e:	46c0      	nop			; (mov r8, r8)
    9c50:	687b      	ldr	r3, [r7, #4]
    9c52:	0018      	movs	r0, r3
    9c54:	4b08      	ldr	r3, [pc, #32]	; (9c78 <rtc_count_reset+0x40>)
    9c56:	4798      	blx	r3
    9c58:	1e03      	subs	r3, r0, #0
    9c5a:	d1f9      	bne.n	9c50 <rtc_count_reset+0x18>
    9c5c:	68fb      	ldr	r3, [r7, #12]
    9c5e:	881b      	ldrh	r3, [r3, #0]
    9c60:	b29b      	uxth	r3, r3
    9c62:	2201      	movs	r2, #1
    9c64:	4313      	orrs	r3, r2
    9c66:	b29a      	uxth	r2, r3
    9c68:	68fb      	ldr	r3, [r7, #12]
    9c6a:	801a      	strh	r2, [r3, #0]
    9c6c:	46c0      	nop			; (mov r8, r8)
    9c6e:	46bd      	mov	sp, r7
    9c70:	b004      	add	sp, #16
    9c72:	bd80      	pop	{r7, pc}
    9c74:	00009bf5 	.word	0x00009bf5
    9c78:	00009b95 	.word	0x00009b95

00009c7c <_rtc_count_set_config>:
    9c7c:	b580      	push	{r7, lr}
    9c7e:	b084      	sub	sp, #16
    9c80:	af00      	add	r7, sp, #0
    9c82:	6078      	str	r0, [r7, #4]
    9c84:	6039      	str	r1, [r7, #0]
    9c86:	687b      	ldr	r3, [r7, #4]
    9c88:	681b      	ldr	r3, [r3, #0]
    9c8a:	60bb      	str	r3, [r7, #8]
    9c8c:	683b      	ldr	r3, [r7, #0]
    9c8e:	881a      	ldrh	r2, [r3, #0]
    9c90:	68bb      	ldr	r3, [r7, #8]
    9c92:	801a      	strh	r2, [r3, #0]
    9c94:	683b      	ldr	r3, [r7, #0]
    9c96:	789b      	ldrb	r3, [r3, #2]
    9c98:	2b00      	cmp	r3, #0
    9c9a:	d03a      	beq.n	9d12 <_rtc_count_set_config+0x96>
    9c9c:	2b01      	cmp	r3, #1
    9c9e:	d000      	beq.n	9ca2 <_rtc_count_set_config+0x26>
    9ca0:	e06c      	b.n	9d7c <_rtc_count_set_config+0x100>
    9ca2:	68bb      	ldr	r3, [r7, #8]
    9ca4:	881b      	ldrh	r3, [r3, #0]
    9ca6:	b29a      	uxth	r2, r3
    9ca8:	68bb      	ldr	r3, [r7, #8]
    9caa:	801a      	strh	r2, [r3, #0]
    9cac:	683b      	ldr	r3, [r7, #0]
    9cae:	78db      	ldrb	r3, [r3, #3]
    9cb0:	2b00      	cmp	r3, #0
    9cb2:	d007      	beq.n	9cc4 <_rtc_count_set_config+0x48>
    9cb4:	68bb      	ldr	r3, [r7, #8]
    9cb6:	881b      	ldrh	r3, [r3, #0]
    9cb8:	b29b      	uxth	r3, r3
    9cba:	2280      	movs	r2, #128	; 0x80
    9cbc:	4313      	orrs	r3, r2
    9cbe:	b29a      	uxth	r2, r3
    9cc0:	68bb      	ldr	r3, [r7, #8]
    9cc2:	801a      	strh	r2, [r3, #0]
    9cc4:	230f      	movs	r3, #15
    9cc6:	18fb      	adds	r3, r7, r3
    9cc8:	2200      	movs	r2, #0
    9cca:	701a      	strb	r2, [r3, #0]
    9ccc:	e01b      	b.n	9d06 <_rtc_count_set_config+0x8a>
    9cce:	46c0      	nop			; (mov r8, r8)
    9cd0:	687b      	ldr	r3, [r7, #4]
    9cd2:	0018      	movs	r0, r3
    9cd4:	4b33      	ldr	r3, [pc, #204]	; (9da4 <_rtc_count_set_config+0x128>)
    9cd6:	4798      	blx	r3
    9cd8:	1e03      	subs	r3, r0, #0
    9cda:	d1f9      	bne.n	9cd0 <_rtc_count_set_config+0x54>
    9cdc:	230f      	movs	r3, #15
    9cde:	18fb      	adds	r3, r7, r3
    9ce0:	781a      	ldrb	r2, [r3, #0]
    9ce2:	683b      	ldr	r3, [r7, #0]
    9ce4:	3202      	adds	r2, #2
    9ce6:	0092      	lsls	r2, r2, #2
    9ce8:	58d1      	ldr	r1, [r2, r3]
    9cea:	230f      	movs	r3, #15
    9cec:	18fb      	adds	r3, r7, r3
    9cee:	781a      	ldrb	r2, [r3, #0]
    9cf0:	687b      	ldr	r3, [r7, #4]
    9cf2:	0018      	movs	r0, r3
    9cf4:	4b2c      	ldr	r3, [pc, #176]	; (9da8 <_rtc_count_set_config+0x12c>)
    9cf6:	4798      	blx	r3
    9cf8:	230f      	movs	r3, #15
    9cfa:	18fb      	adds	r3, r7, r3
    9cfc:	781a      	ldrb	r2, [r3, #0]
    9cfe:	230f      	movs	r3, #15
    9d00:	18fb      	adds	r3, r7, r3
    9d02:	3201      	adds	r2, #1
    9d04:	701a      	strb	r2, [r3, #0]
    9d06:	230f      	movs	r3, #15
    9d08:	18fb      	adds	r3, r7, r3
    9d0a:	781b      	ldrb	r3, [r3, #0]
    9d0c:	2b00      	cmp	r3, #0
    9d0e:	d0de      	beq.n	9cce <_rtc_count_set_config+0x52>
    9d10:	e036      	b.n	9d80 <_rtc_count_set_config+0x104>
    9d12:	68bb      	ldr	r3, [r7, #8]
    9d14:	881b      	ldrh	r3, [r3, #0]
    9d16:	b29b      	uxth	r3, r3
    9d18:	2204      	movs	r2, #4
    9d1a:	4313      	orrs	r3, r2
    9d1c:	b29a      	uxth	r2, r3
    9d1e:	68bb      	ldr	r3, [r7, #8]
    9d20:	801a      	strh	r2, [r3, #0]
    9d22:	683b      	ldr	r3, [r7, #0]
    9d24:	78db      	ldrb	r3, [r3, #3]
    9d26:	2b00      	cmp	r3, #0
    9d28:	d001      	beq.n	9d2e <_rtc_count_set_config+0xb2>
    9d2a:	2317      	movs	r3, #23
    9d2c:	e036      	b.n	9d9c <_rtc_count_set_config+0x120>
    9d2e:	230e      	movs	r3, #14
    9d30:	18fb      	adds	r3, r7, r3
    9d32:	2200      	movs	r2, #0
    9d34:	701a      	strb	r2, [r3, #0]
    9d36:	e01b      	b.n	9d70 <_rtc_count_set_config+0xf4>
    9d38:	46c0      	nop			; (mov r8, r8)
    9d3a:	687b      	ldr	r3, [r7, #4]
    9d3c:	0018      	movs	r0, r3
    9d3e:	4b19      	ldr	r3, [pc, #100]	; (9da4 <_rtc_count_set_config+0x128>)
    9d40:	4798      	blx	r3
    9d42:	1e03      	subs	r3, r0, #0
    9d44:	d1f9      	bne.n	9d3a <_rtc_count_set_config+0xbe>
    9d46:	230e      	movs	r3, #14
    9d48:	18fb      	adds	r3, r7, r3
    9d4a:	781a      	ldrb	r2, [r3, #0]
    9d4c:	683b      	ldr	r3, [r7, #0]
    9d4e:	3202      	adds	r2, #2
    9d50:	0092      	lsls	r2, r2, #2
    9d52:	58d1      	ldr	r1, [r2, r3]
    9d54:	230e      	movs	r3, #14
    9d56:	18fb      	adds	r3, r7, r3
    9d58:	781a      	ldrb	r2, [r3, #0]
    9d5a:	687b      	ldr	r3, [r7, #4]
    9d5c:	0018      	movs	r0, r3
    9d5e:	4b12      	ldr	r3, [pc, #72]	; (9da8 <_rtc_count_set_config+0x12c>)
    9d60:	4798      	blx	r3
    9d62:	230e      	movs	r3, #14
    9d64:	18fb      	adds	r3, r7, r3
    9d66:	781a      	ldrb	r2, [r3, #0]
    9d68:	230e      	movs	r3, #14
    9d6a:	18fb      	adds	r3, r7, r3
    9d6c:	3201      	adds	r2, #1
    9d6e:	701a      	strb	r2, [r3, #0]
    9d70:	230e      	movs	r3, #14
    9d72:	18fb      	adds	r3, r7, r3
    9d74:	781b      	ldrb	r3, [r3, #0]
    9d76:	2b01      	cmp	r3, #1
    9d78:	d9de      	bls.n	9d38 <_rtc_count_set_config+0xbc>
    9d7a:	e001      	b.n	9d80 <_rtc_count_set_config+0x104>
    9d7c:	2317      	movs	r3, #23
    9d7e:	e00d      	b.n	9d9c <_rtc_count_set_config+0x120>
    9d80:	683b      	ldr	r3, [r7, #0]
    9d82:	791b      	ldrb	r3, [r3, #4]
    9d84:	2b00      	cmp	r3, #0
    9d86:	d008      	beq.n	9d9a <_rtc_count_set_config+0x11e>
    9d88:	68bb      	ldr	r3, [r7, #8]
    9d8a:	885b      	ldrh	r3, [r3, #2]
    9d8c:	b29b      	uxth	r3, r3
    9d8e:	2280      	movs	r2, #128	; 0x80
    9d90:	01d2      	lsls	r2, r2, #7
    9d92:	4313      	orrs	r3, r2
    9d94:	b29a      	uxth	r2, r3
    9d96:	68bb      	ldr	r3, [r7, #8]
    9d98:	805a      	strh	r2, [r3, #2]
    9d9a:	2300      	movs	r3, #0
    9d9c:	0018      	movs	r0, r3
    9d9e:	46bd      	mov	sp, r7
    9da0:	b004      	add	sp, #16
    9da2:	bd80      	pop	{r7, pc}
    9da4:	00009b95 	.word	0x00009b95
    9da8:	00009ed9 	.word	0x00009ed9

00009dac <rtc_count_init>:
    9dac:	b580      	push	{r7, lr}
    9dae:	b086      	sub	sp, #24
    9db0:	af00      	add	r7, sp, #0
    9db2:	60f8      	str	r0, [r7, #12]
    9db4:	60b9      	str	r1, [r7, #8]
    9db6:	607a      	str	r2, [r7, #4]
    9db8:	68fb      	ldr	r3, [r7, #12]
    9dba:	68ba      	ldr	r2, [r7, #8]
    9dbc:	601a      	str	r2, [r3, #0]
    9dbe:	2120      	movs	r1, #32
    9dc0:	2000      	movs	r0, #0
    9dc2:	4b17      	ldr	r3, [pc, #92]	; (9e20 <rtc_count_init+0x74>)
    9dc4:	4798      	blx	r3
    9dc6:	2314      	movs	r3, #20
    9dc8:	18fb      	adds	r3, r7, r3
    9dca:	0018      	movs	r0, r3
    9dcc:	4b15      	ldr	r3, [pc, #84]	; (9e24 <rtc_count_init+0x78>)
    9dce:	4798      	blx	r3
    9dd0:	2314      	movs	r3, #20
    9dd2:	18fb      	adds	r3, r7, r3
    9dd4:	2202      	movs	r2, #2
    9dd6:	701a      	strb	r2, [r3, #0]
    9dd8:	2314      	movs	r3, #20
    9dda:	18fb      	adds	r3, r7, r3
    9ddc:	0019      	movs	r1, r3
    9dde:	2004      	movs	r0, #4
    9de0:	4b11      	ldr	r3, [pc, #68]	; (9e28 <rtc_count_init+0x7c>)
    9de2:	4798      	blx	r3
    9de4:	2004      	movs	r0, #4
    9de6:	4b11      	ldr	r3, [pc, #68]	; (9e2c <rtc_count_init+0x80>)
    9de8:	4798      	blx	r3
    9dea:	68fb      	ldr	r3, [r7, #12]
    9dec:	0018      	movs	r0, r3
    9dee:	4b10      	ldr	r3, [pc, #64]	; (9e30 <rtc_count_init+0x84>)
    9df0:	4798      	blx	r3
    9df2:	687b      	ldr	r3, [r7, #4]
    9df4:	789a      	ldrb	r2, [r3, #2]
    9df6:	68fb      	ldr	r3, [r7, #12]
    9df8:	711a      	strb	r2, [r3, #4]
    9dfa:	687b      	ldr	r3, [r7, #4]
    9dfc:	791a      	ldrb	r2, [r3, #4]
    9dfe:	68fb      	ldr	r3, [r7, #12]
    9e00:	715a      	strb	r2, [r3, #5]
    9e02:	4b0c      	ldr	r3, [pc, #48]	; (9e34 <rtc_count_init+0x88>)
    9e04:	68fa      	ldr	r2, [r7, #12]
    9e06:	601a      	str	r2, [r3, #0]
    9e08:	687a      	ldr	r2, [r7, #4]
    9e0a:	68fb      	ldr	r3, [r7, #12]
    9e0c:	0011      	movs	r1, r2
    9e0e:	0018      	movs	r0, r3
    9e10:	4b09      	ldr	r3, [pc, #36]	; (9e38 <rtc_count_init+0x8c>)
    9e12:	4798      	blx	r3
    9e14:	0003      	movs	r3, r0
    9e16:	0018      	movs	r0, r3
    9e18:	46bd      	mov	sp, r7
    9e1a:	b006      	add	sp, #24
    9e1c:	bd80      	pop	{r7, pc}
    9e1e:	46c0      	nop			; (mov r8, r8)
    9e20:	00009b39 	.word	0x00009b39
    9e24:	00009b21 	.word	0x00009b21
    9e28:	00009079 	.word	0x00009079
    9e2c:	000090bd 	.word	0x000090bd
    9e30:	00009c39 	.word	0x00009c39
    9e34:	20000b7c 	.word	0x20000b7c
    9e38:	00009c7d 	.word	0x00009c7d

00009e3c <rtc_count_get_count>:
    9e3c:	b580      	push	{r7, lr}
    9e3e:	b084      	sub	sp, #16
    9e40:	af00      	add	r7, sp, #0
    9e42:	6078      	str	r0, [r7, #4]
    9e44:	687b      	ldr	r3, [r7, #4]
    9e46:	681b      	ldr	r3, [r3, #0]
    9e48:	60bb      	str	r3, [r7, #8]
    9e4a:	687b      	ldr	r3, [r7, #4]
    9e4c:	795b      	ldrb	r3, [r3, #5]
    9e4e:	2201      	movs	r2, #1
    9e50:	4053      	eors	r3, r2
    9e52:	b2db      	uxtb	r3, r3
    9e54:	2b00      	cmp	r3, #0
    9e56:	d00a      	beq.n	9e6e <rtc_count_get_count+0x32>
    9e58:	68bb      	ldr	r3, [r7, #8]
    9e5a:	4a1c      	ldr	r2, [pc, #112]	; (9ecc <rtc_count_get_count+0x90>)
    9e5c:	805a      	strh	r2, [r3, #2]
    9e5e:	46c0      	nop			; (mov r8, r8)
    9e60:	687b      	ldr	r3, [r7, #4]
    9e62:	0018      	movs	r0, r3
    9e64:	4b1a      	ldr	r3, [pc, #104]	; (9ed0 <rtc_count_get_count+0x94>)
    9e66:	4798      	blx	r3
    9e68:	1e03      	subs	r3, r0, #0
    9e6a:	d1f9      	bne.n	9e60 <rtc_count_get_count+0x24>
    9e6c:	e016      	b.n	9e9c <rtc_count_get_count+0x60>
    9e6e:	68bb      	ldr	r3, [r7, #8]
    9e70:	885b      	ldrh	r3, [r3, #2]
    9e72:	b29b      	uxth	r3, r3
    9e74:	001a      	movs	r2, r3
    9e76:	2380      	movs	r3, #128	; 0x80
    9e78:	01db      	lsls	r3, r3, #7
    9e7a:	4013      	ands	r3, r2
    9e7c:	d10e      	bne.n	9e9c <rtc_count_get_count+0x60>
    9e7e:	68bb      	ldr	r3, [r7, #8]
    9e80:	885b      	ldrh	r3, [r3, #2]
    9e82:	b29b      	uxth	r3, r3
    9e84:	4a13      	ldr	r2, [pc, #76]	; (9ed4 <rtc_count_get_count+0x98>)
    9e86:	4313      	orrs	r3, r2
    9e88:	b29a      	uxth	r2, r3
    9e8a:	68bb      	ldr	r3, [r7, #8]
    9e8c:	805a      	strh	r2, [r3, #2]
    9e8e:	46c0      	nop			; (mov r8, r8)
    9e90:	687b      	ldr	r3, [r7, #4]
    9e92:	0018      	movs	r0, r3
    9e94:	4b0e      	ldr	r3, [pc, #56]	; (9ed0 <rtc_count_get_count+0x94>)
    9e96:	4798      	blx	r3
    9e98:	1e03      	subs	r3, r0, #0
    9e9a:	d1f9      	bne.n	9e90 <rtc_count_get_count+0x54>
    9e9c:	687b      	ldr	r3, [r7, #4]
    9e9e:	791b      	ldrb	r3, [r3, #4]
    9ea0:	2b00      	cmp	r3, #0
    9ea2:	d005      	beq.n	9eb0 <rtc_count_get_count+0x74>
    9ea4:	2b01      	cmp	r3, #1
    9ea6:	d108      	bne.n	9eba <rtc_count_get_count+0x7e>
    9ea8:	68bb      	ldr	r3, [r7, #8]
    9eaa:	691b      	ldr	r3, [r3, #16]
    9eac:	60fb      	str	r3, [r7, #12]
    9eae:	e007      	b.n	9ec0 <rtc_count_get_count+0x84>
    9eb0:	68bb      	ldr	r3, [r7, #8]
    9eb2:	8a1b      	ldrh	r3, [r3, #16]
    9eb4:	b29b      	uxth	r3, r3
    9eb6:	60fb      	str	r3, [r7, #12]
    9eb8:	e002      	b.n	9ec0 <rtc_count_get_count+0x84>
    9eba:	2300      	movs	r3, #0
    9ebc:	60fb      	str	r3, [r7, #12]
    9ebe:	46c0      	nop			; (mov r8, r8)
    9ec0:	68fb      	ldr	r3, [r7, #12]
    9ec2:	0018      	movs	r0, r3
    9ec4:	46bd      	mov	sp, r7
    9ec6:	b004      	add	sp, #16
    9ec8:	bd80      	pop	{r7, pc}
    9eca:	46c0      	nop			; (mov r8, r8)
    9ecc:	ffff8000 	.word	0xffff8000
    9ed0:	00009b95 	.word	0x00009b95
    9ed4:	ffffc000 	.word	0xffffc000

00009ed8 <rtc_count_set_compare>:
    9ed8:	b580      	push	{r7, lr}
    9eda:	b086      	sub	sp, #24
    9edc:	af00      	add	r7, sp, #0
    9ede:	60f8      	str	r0, [r7, #12]
    9ee0:	60b9      	str	r1, [r7, #8]
    9ee2:	1dfb      	adds	r3, r7, #7
    9ee4:	701a      	strb	r2, [r3, #0]
    9ee6:	68fb      	ldr	r3, [r7, #12]
    9ee8:	681b      	ldr	r3, [r3, #0]
    9eea:	617b      	str	r3, [r7, #20]
    9eec:	46c0      	nop			; (mov r8, r8)
    9eee:	68fb      	ldr	r3, [r7, #12]
    9ef0:	0018      	movs	r0, r3
    9ef2:	4b1a      	ldr	r3, [pc, #104]	; (9f5c <rtc_count_set_compare+0x84>)
    9ef4:	4798      	blx	r3
    9ef6:	1e03      	subs	r3, r0, #0
    9ef8:	d1f9      	bne.n	9eee <rtc_count_set_compare+0x16>
    9efa:	68fb      	ldr	r3, [r7, #12]
    9efc:	791b      	ldrb	r3, [r3, #4]
    9efe:	2b00      	cmp	r3, #0
    9f00:	d00f      	beq.n	9f22 <rtc_count_set_compare+0x4a>
    9f02:	2b01      	cmp	r3, #1
    9f04:	d122      	bne.n	9f4c <rtc_count_set_compare+0x74>
    9f06:	1dfb      	adds	r3, r7, #7
    9f08:	781b      	ldrb	r3, [r3, #0]
    9f0a:	2b01      	cmp	r3, #1
    9f0c:	d901      	bls.n	9f12 <rtc_count_set_compare+0x3a>
    9f0e:	2317      	movs	r3, #23
    9f10:	e01f      	b.n	9f52 <rtc_count_set_compare+0x7a>
    9f12:	1dfb      	adds	r3, r7, #7
    9f14:	781a      	ldrb	r2, [r3, #0]
    9f16:	697b      	ldr	r3, [r7, #20]
    9f18:	3206      	adds	r2, #6
    9f1a:	0092      	lsls	r2, r2, #2
    9f1c:	68b9      	ldr	r1, [r7, #8]
    9f1e:	50d1      	str	r1, [r2, r3]
    9f20:	e016      	b.n	9f50 <rtc_count_set_compare+0x78>
    9f22:	1dfb      	adds	r3, r7, #7
    9f24:	781b      	ldrb	r3, [r3, #0]
    9f26:	2b02      	cmp	r3, #2
    9f28:	d901      	bls.n	9f2e <rtc_count_set_compare+0x56>
    9f2a:	2317      	movs	r3, #23
    9f2c:	e011      	b.n	9f52 <rtc_count_set_compare+0x7a>
    9f2e:	68bb      	ldr	r3, [r7, #8]
    9f30:	4a0b      	ldr	r2, [pc, #44]	; (9f60 <rtc_count_set_compare+0x88>)
    9f32:	4293      	cmp	r3, r2
    9f34:	d901      	bls.n	9f3a <rtc_count_set_compare+0x62>
    9f36:	2317      	movs	r3, #23
    9f38:	e00b      	b.n	9f52 <rtc_count_set_compare+0x7a>
    9f3a:	1dfb      	adds	r3, r7, #7
    9f3c:	781a      	ldrb	r2, [r3, #0]
    9f3e:	68bb      	ldr	r3, [r7, #8]
    9f40:	b299      	uxth	r1, r3
    9f42:	697b      	ldr	r3, [r7, #20]
    9f44:	320c      	adds	r2, #12
    9f46:	0052      	lsls	r2, r2, #1
    9f48:	52d1      	strh	r1, [r2, r3]
    9f4a:	e001      	b.n	9f50 <rtc_count_set_compare+0x78>
    9f4c:	231a      	movs	r3, #26
    9f4e:	e000      	b.n	9f52 <rtc_count_set_compare+0x7a>
    9f50:	2300      	movs	r3, #0
    9f52:	0018      	movs	r0, r3
    9f54:	46bd      	mov	sp, r7
    9f56:	b006      	add	sp, #24
    9f58:	bd80      	pop	{r7, pc}
    9f5a:	46c0      	nop			; (mov r8, r8)
    9f5c:	00009b95 	.word	0x00009b95
    9f60:	0000ffff 	.word	0x0000ffff

00009f64 <rtc_count_set_period>:
    9f64:	b580      	push	{r7, lr}
    9f66:	b084      	sub	sp, #16
    9f68:	af00      	add	r7, sp, #0
    9f6a:	6078      	str	r0, [r7, #4]
    9f6c:	000a      	movs	r2, r1
    9f6e:	1cbb      	adds	r3, r7, #2
    9f70:	801a      	strh	r2, [r3, #0]
    9f72:	687b      	ldr	r3, [r7, #4]
    9f74:	681b      	ldr	r3, [r3, #0]
    9f76:	60fb      	str	r3, [r7, #12]
    9f78:	687b      	ldr	r3, [r7, #4]
    9f7a:	791b      	ldrb	r3, [r3, #4]
    9f7c:	2b00      	cmp	r3, #0
    9f7e:	d001      	beq.n	9f84 <rtc_count_set_period+0x20>
    9f80:	2315      	movs	r3, #21
    9f82:	e00b      	b.n	9f9c <rtc_count_set_period+0x38>
    9f84:	46c0      	nop			; (mov r8, r8)
    9f86:	687b      	ldr	r3, [r7, #4]
    9f88:	0018      	movs	r0, r3
    9f8a:	4b06      	ldr	r3, [pc, #24]	; (9fa4 <rtc_count_set_period+0x40>)
    9f8c:	4798      	blx	r3
    9f8e:	1e03      	subs	r3, r0, #0
    9f90:	d1f9      	bne.n	9f86 <rtc_count_set_period+0x22>
    9f92:	68fb      	ldr	r3, [r7, #12]
    9f94:	1cba      	adds	r2, r7, #2
    9f96:	8812      	ldrh	r2, [r2, #0]
    9f98:	829a      	strh	r2, [r3, #20]
    9f9a:	2300      	movs	r3, #0
    9f9c:	0018      	movs	r0, r3
    9f9e:	46bd      	mov	sp, r7
    9fa0:	b004      	add	sp, #16
    9fa2:	bd80      	pop	{r7, pc}
    9fa4:	00009b95 	.word	0x00009b95

00009fa8 <fnCOMM_Process_Packet_Received>:
    9fa8:	b580      	push	{r7, lr}
    9faa:	af00      	add	r7, sp, #0
    9fac:	4b1f      	ldr	r3, [pc, #124]	; (a02c <fnCOMM_Process_Packet_Received+0x84>)
    9fae:	781b      	ldrb	r3, [r3, #0]
    9fb0:	b2db      	uxtb	r3, r3
    9fb2:	2b02      	cmp	r3, #2
    9fb4:	d10c      	bne.n	9fd0 <fnCOMM_Process_Packet_Received+0x28>
    9fb6:	491e      	ldr	r1, [pc, #120]	; (a030 <fnCOMM_Process_Packet_Received+0x88>)
    9fb8:	4b1e      	ldr	r3, [pc, #120]	; (a034 <fnCOMM_Process_Packet_Received+0x8c>)
    9fba:	2202      	movs	r2, #2
    9fbc:	0018      	movs	r0, r3
    9fbe:	4b1e      	ldr	r3, [pc, #120]	; (a038 <fnCOMM_Process_Packet_Received+0x90>)
    9fc0:	4798      	blx	r3
    9fc2:	1e03      	subs	r3, r0, #0
    9fc4:	d12e      	bne.n	a024 <fnCOMM_Process_Packet_Received+0x7c>
    9fc6:	4b1d      	ldr	r3, [pc, #116]	; (a03c <fnCOMM_Process_Packet_Received+0x94>)
    9fc8:	0018      	movs	r0, r3
    9fca:	4b1d      	ldr	r3, [pc, #116]	; (a040 <fnCOMM_Process_Packet_Received+0x98>)
    9fcc:	4798      	blx	r3
    9fce:	e029      	b.n	a024 <fnCOMM_Process_Packet_Received+0x7c>
    9fd0:	4b16      	ldr	r3, [pc, #88]	; (a02c <fnCOMM_Process_Packet_Received+0x84>)
    9fd2:	781b      	ldrb	r3, [r3, #0]
    9fd4:	b2db      	uxtb	r3, r3
    9fd6:	2b07      	cmp	r3, #7
    9fd8:	d121      	bne.n	a01e <fnCOMM_Process_Packet_Received+0x76>
    9fda:	4915      	ldr	r1, [pc, #84]	; (a030 <fnCOMM_Process_Packet_Received+0x88>)
    9fdc:	4b19      	ldr	r3, [pc, #100]	; (a044 <fnCOMM_Process_Packet_Received+0x9c>)
    9fde:	2207      	movs	r2, #7
    9fe0:	0018      	movs	r0, r3
    9fe2:	4b15      	ldr	r3, [pc, #84]	; (a038 <fnCOMM_Process_Packet_Received+0x90>)
    9fe4:	4798      	blx	r3
    9fe6:	1e03      	subs	r3, r0, #0
    9fe8:	d103      	bne.n	9ff2 <fnCOMM_Process_Packet_Received+0x4a>
    9fea:	4b17      	ldr	r3, [pc, #92]	; (a048 <fnCOMM_Process_Packet_Received+0xa0>)
    9fec:	0018      	movs	r0, r3
    9fee:	4b14      	ldr	r3, [pc, #80]	; (a040 <fnCOMM_Process_Packet_Received+0x98>)
    9ff0:	4798      	blx	r3
    9ff2:	490f      	ldr	r1, [pc, #60]	; (a030 <fnCOMM_Process_Packet_Received+0x88>)
    9ff4:	4b15      	ldr	r3, [pc, #84]	; (a04c <fnCOMM_Process_Packet_Received+0xa4>)
    9ff6:	2207      	movs	r2, #7
    9ff8:	0018      	movs	r0, r3
    9ffa:	4b0f      	ldr	r3, [pc, #60]	; (a038 <fnCOMM_Process_Packet_Received+0x90>)
    9ffc:	4798      	blx	r3
    9ffe:	1e03      	subs	r3, r0, #0
    a000:	d110      	bne.n	a024 <fnCOMM_Process_Packet_Received+0x7c>
    a002:	4b13      	ldr	r3, [pc, #76]	; (a050 <fnCOMM_Process_Packet_Received+0xa8>)
    a004:	4798      	blx	r3
    a006:	1e03      	subs	r3, r0, #0
    a008:	d004      	beq.n	a014 <fnCOMM_Process_Packet_Received+0x6c>
    a00a:	4b12      	ldr	r3, [pc, #72]	; (a054 <fnCOMM_Process_Packet_Received+0xac>)
    a00c:	0018      	movs	r0, r3
    a00e:	4b0c      	ldr	r3, [pc, #48]	; (a040 <fnCOMM_Process_Packet_Received+0x98>)
    a010:	4798      	blx	r3
    a012:	e007      	b.n	a024 <fnCOMM_Process_Packet_Received+0x7c>
    a014:	4b10      	ldr	r3, [pc, #64]	; (a058 <fnCOMM_Process_Packet_Received+0xb0>)
    a016:	0018      	movs	r0, r3
    a018:	4b09      	ldr	r3, [pc, #36]	; (a040 <fnCOMM_Process_Packet_Received+0x98>)
    a01a:	4798      	blx	r3
    a01c:	e002      	b.n	a024 <fnCOMM_Process_Packet_Received+0x7c>
    a01e:	4b03      	ldr	r3, [pc, #12]	; (a02c <fnCOMM_Process_Packet_Received+0x84>)
    a020:	781b      	ldrb	r3, [r3, #0]
    a022:	46c0      	nop			; (mov r8, r8)
    a024:	46c0      	nop			; (mov r8, r8)
    a026:	46bd      	mov	sp, r7
    a028:	bd80      	pop	{r7, pc}
    a02a:	46c0      	nop			; (mov r8, r8)
    a02c:	20000c04 	.word	0x20000c04
    a030:	20000b84 	.word	0x20000b84
    a034:	000120c4 	.word	0x000120c4
    a038:	00011b6d 	.word	0x00011b6d
    a03c:	000120c8 	.word	0x000120c8
    a040:	000083c1 	.word	0x000083c1
    a044:	000120d0 	.word	0x000120d0
    a048:	000120d8 	.word	0x000120d8
    a04c:	000120e8 	.word	0x000120e8
    a050:	000097c5 	.word	0x000097c5
    a054:	000120f0 	.word	0x000120f0
    a058:	00012100 	.word	0x00012100

0000a05c <delay_init>:
    a05c:	b580      	push	{r7, lr}
    a05e:	af00      	add	r7, sp, #0
    a060:	46c0      	nop			; (mov r8, r8)
    a062:	46bd      	mov	sp, r7
    a064:	bd80      	pop	{r7, pc}
	...

0000a068 <cpu_irq_save>:
    a068:	b580      	push	{r7, lr}
    a06a:	b082      	sub	sp, #8
    a06c:	af00      	add	r7, sp, #0
    a06e:	f3ef 8310 	mrs	r3, PRIMASK
    a072:	607b      	str	r3, [r7, #4]
    a074:	687b      	ldr	r3, [r7, #4]
    a076:	425a      	negs	r2, r3
    a078:	4153      	adcs	r3, r2
    a07a:	b2db      	uxtb	r3, r3
    a07c:	603b      	str	r3, [r7, #0]
    a07e:	b672      	cpsid	i
    a080:	f3bf 8f5f 	dmb	sy
    a084:	4b03      	ldr	r3, [pc, #12]	; (a094 <cpu_irq_save+0x2c>)
    a086:	2200      	movs	r2, #0
    a088:	701a      	strb	r2, [r3, #0]
    a08a:	683b      	ldr	r3, [r7, #0]
    a08c:	0018      	movs	r0, r3
    a08e:	46bd      	mov	sp, r7
    a090:	b002      	add	sp, #8
    a092:	bd80      	pop	{r7, pc}
    a094:	20000038 	.word	0x20000038

0000a098 <cpu_irq_is_enabled_flags>:
    a098:	b580      	push	{r7, lr}
    a09a:	b082      	sub	sp, #8
    a09c:	af00      	add	r7, sp, #0
    a09e:	6078      	str	r0, [r7, #4]
    a0a0:	687b      	ldr	r3, [r7, #4]
    a0a2:	1e5a      	subs	r2, r3, #1
    a0a4:	4193      	sbcs	r3, r2
    a0a6:	b2db      	uxtb	r3, r3
    a0a8:	0018      	movs	r0, r3
    a0aa:	46bd      	mov	sp, r7
    a0ac:	b002      	add	sp, #8
    a0ae:	bd80      	pop	{r7, pc}

0000a0b0 <cpu_irq_restore>:
    a0b0:	b580      	push	{r7, lr}
    a0b2:	b082      	sub	sp, #8
    a0b4:	af00      	add	r7, sp, #0
    a0b6:	6078      	str	r0, [r7, #4]
    a0b8:	687b      	ldr	r3, [r7, #4]
    a0ba:	0018      	movs	r0, r3
    a0bc:	4b06      	ldr	r3, [pc, #24]	; (a0d8 <cpu_irq_restore+0x28>)
    a0be:	4798      	blx	r3
    a0c0:	1e03      	subs	r3, r0, #0
    a0c2:	d005      	beq.n	a0d0 <cpu_irq_restore+0x20>
    a0c4:	4b05      	ldr	r3, [pc, #20]	; (a0dc <cpu_irq_restore+0x2c>)
    a0c6:	2201      	movs	r2, #1
    a0c8:	701a      	strb	r2, [r3, #0]
    a0ca:	f3bf 8f5f 	dmb	sy
    a0ce:	b662      	cpsie	i
    a0d0:	46c0      	nop			; (mov r8, r8)
    a0d2:	46bd      	mov	sp, r7
    a0d4:	b002      	add	sp, #8
    a0d6:	bd80      	pop	{r7, pc}
    a0d8:	0000a099 	.word	0x0000a099
    a0dc:	20000038 	.word	0x20000038

0000a0e0 <udi_cdc_multi_get_free_tx_buffer>:
    a0e0:	b580      	push	{r7, lr}
    a0e2:	b086      	sub	sp, #24
    a0e4:	af00      	add	r7, sp, #0
    a0e6:	0002      	movs	r2, r0
    a0e8:	1dfb      	adds	r3, r7, #7
    a0ea:	701a      	strb	r2, [r3, #0]
    a0ec:	1dfb      	adds	r3, r7, #7
    a0ee:	2200      	movs	r2, #0
    a0f0:	701a      	strb	r2, [r3, #0]
    a0f2:	4b26      	ldr	r3, [pc, #152]	; (a18c <udi_cdc_multi_get_free_tx_buffer+0xac>)
    a0f4:	4798      	blx	r3
    a0f6:	0003      	movs	r3, r0
    a0f8:	613b      	str	r3, [r7, #16]
    a0fa:	1dfb      	adds	r3, r7, #7
    a0fc:	781a      	ldrb	r2, [r3, #0]
    a0fe:	230f      	movs	r3, #15
    a100:	18fb      	adds	r3, r7, r3
    a102:	4923      	ldr	r1, [pc, #140]	; (a190 <udi_cdc_multi_get_free_tx_buffer+0xb0>)
    a104:	5c8a      	ldrb	r2, [r1, r2]
    a106:	701a      	strb	r2, [r3, #0]
    a108:	1dfb      	adds	r3, r7, #7
    a10a:	7819      	ldrb	r1, [r3, #0]
    a10c:	230f      	movs	r3, #15
    a10e:	18fb      	adds	r3, r7, r3
    a110:	781a      	ldrb	r2, [r3, #0]
    a112:	4b20      	ldr	r3, [pc, #128]	; (a194 <udi_cdc_multi_get_free_tx_buffer+0xb4>)
    a114:	0049      	lsls	r1, r1, #1
    a116:	188a      	adds	r2, r1, r2
    a118:	0052      	lsls	r2, r2, #1
    a11a:	5ad3      	ldrh	r3, [r2, r3]
    a11c:	617b      	str	r3, [r7, #20]
    a11e:	697b      	ldr	r3, [r7, #20]
    a120:	2b40      	cmp	r3, #64	; 0x40
    a122:	d125      	bne.n	a170 <udi_cdc_multi_get_free_tx_buffer+0x90>
    a124:	1dfb      	adds	r3, r7, #7
    a126:	781b      	ldrb	r3, [r3, #0]
    a128:	4a1b      	ldr	r2, [pc, #108]	; (a198 <udi_cdc_multi_get_free_tx_buffer+0xb8>)
    a12a:	5cd3      	ldrb	r3, [r2, r3]
    a12c:	b2db      	uxtb	r3, r3
    a12e:	2201      	movs	r2, #1
    a130:	4053      	eors	r3, r2
    a132:	b2db      	uxtb	r3, r3
    a134:	2b00      	cmp	r3, #0
    a136:	d01b      	beq.n	a170 <udi_cdc_multi_get_free_tx_buffer+0x90>
    a138:	1dfb      	adds	r3, r7, #7
    a13a:	781b      	ldrb	r3, [r3, #0]
    a13c:	4a17      	ldr	r2, [pc, #92]	; (a19c <udi_cdc_multi_get_free_tx_buffer+0xbc>)
    a13e:	5cd3      	ldrb	r3, [r2, r3]
    a140:	b2db      	uxtb	r3, r3
    a142:	2201      	movs	r2, #1
    a144:	4053      	eors	r3, r2
    a146:	b2db      	uxtb	r3, r3
    a148:	2b00      	cmp	r3, #0
    a14a:	d011      	beq.n	a170 <udi_cdc_multi_get_free_tx_buffer+0x90>
    a14c:	1dfb      	adds	r3, r7, #7
    a14e:	781b      	ldrb	r3, [r3, #0]
    a150:	4a12      	ldr	r2, [pc, #72]	; (a19c <udi_cdc_multi_get_free_tx_buffer+0xbc>)
    a152:	2101      	movs	r1, #1
    a154:	54d1      	strb	r1, [r2, r3]
    a156:	1dfb      	adds	r3, r7, #7
    a158:	781b      	ldrb	r3, [r3, #0]
    a15a:	220f      	movs	r2, #15
    a15c:	18ba      	adds	r2, r7, r2
    a15e:	7812      	ldrb	r2, [r2, #0]
    a160:	4251      	negs	r1, r2
    a162:	414a      	adcs	r2, r1
    a164:	b2d2      	uxtb	r2, r2
    a166:	0011      	movs	r1, r2
    a168:	4a09      	ldr	r2, [pc, #36]	; (a190 <udi_cdc_multi_get_free_tx_buffer+0xb0>)
    a16a:	54d1      	strb	r1, [r2, r3]
    a16c:	2300      	movs	r3, #0
    a16e:	617b      	str	r3, [r7, #20]
    a170:	697b      	ldr	r3, [r7, #20]
    a172:	2240      	movs	r2, #64	; 0x40
    a174:	1ad3      	subs	r3, r2, r3
    a176:	60bb      	str	r3, [r7, #8]
    a178:	693b      	ldr	r3, [r7, #16]
    a17a:	0018      	movs	r0, r3
    a17c:	4b08      	ldr	r3, [pc, #32]	; (a1a0 <udi_cdc_multi_get_free_tx_buffer+0xc0>)
    a17e:	4798      	blx	r3
    a180:	68bb      	ldr	r3, [r7, #8]
    a182:	0018      	movs	r0, r3
    a184:	46bd      	mov	sp, r7
    a186:	b006      	add	sp, #24
    a188:	bd80      	pop	{r7, pc}
    a18a:	46c0      	nop			; (mov r8, r8)
    a18c:	0000a069 	.word	0x0000a069
    a190:	200006a8 	.word	0x200006a8
    a194:	200006a4 	.word	0x200006a4
    a198:	200006ac 	.word	0x200006ac
    a19c:	200006b0 	.word	0x200006b0
    a1a0:	0000a0b1 	.word	0x0000a0b1

0000a1a4 <udi_cdc_multi_is_tx_ready>:
    a1a4:	b580      	push	{r7, lr}
    a1a6:	b082      	sub	sp, #8
    a1a8:	af00      	add	r7, sp, #0
    a1aa:	0002      	movs	r2, r0
    a1ac:	1dfb      	adds	r3, r7, #7
    a1ae:	701a      	strb	r2, [r3, #0]
    a1b0:	1dfb      	adds	r3, r7, #7
    a1b2:	781b      	ldrb	r3, [r3, #0]
    a1b4:	0018      	movs	r0, r3
    a1b6:	4b05      	ldr	r3, [pc, #20]	; (a1cc <udi_cdc_multi_is_tx_ready+0x28>)
    a1b8:	4798      	blx	r3
    a1ba:	0003      	movs	r3, r0
    a1bc:	1e5a      	subs	r2, r3, #1
    a1be:	4193      	sbcs	r3, r2
    a1c0:	b2db      	uxtb	r3, r3
    a1c2:	0018      	movs	r0, r3
    a1c4:	46bd      	mov	sp, r7
    a1c6:	b002      	add	sp, #8
    a1c8:	bd80      	pop	{r7, pc}
    a1ca:	46c0      	nop			; (mov r8, r8)
    a1cc:	0000a0e1 	.word	0x0000a0e1

0000a1d0 <udi_cdc_multi_write_buf>:
    a1d0:	b580      	push	{r7, lr}
    a1d2:	b088      	sub	sp, #32
    a1d4:	af00      	add	r7, sp, #0
    a1d6:	60b9      	str	r1, [r7, #8]
    a1d8:	607a      	str	r2, [r7, #4]
    a1da:	230f      	movs	r3, #15
    a1dc:	18fb      	adds	r3, r7, r3
    a1de:	1c02      	adds	r2, r0, #0
    a1e0:	701a      	strb	r2, [r3, #0]
    a1e2:	68bb      	ldr	r3, [r7, #8]
    a1e4:	61bb      	str	r3, [r7, #24]
    a1e6:	230f      	movs	r3, #15
    a1e8:	18fb      	adds	r3, r7, r3
    a1ea:	2200      	movs	r2, #0
    a1ec:	701a      	strb	r2, [r3, #0]
    a1ee:	230f      	movs	r3, #15
    a1f0:	18fb      	adds	r3, r7, r3
    a1f2:	781a      	ldrb	r2, [r3, #0]
    a1f4:	4942      	ldr	r1, [pc, #264]	; (a300 <udi_cdc_multi_write_buf+0x130>)
    a1f6:	0013      	movs	r3, r2
    a1f8:	00db      	lsls	r3, r3, #3
    a1fa:	1a9b      	subs	r3, r3, r2
    a1fc:	18cb      	adds	r3, r1, r3
    a1fe:	3306      	adds	r3, #6
    a200:	781b      	ldrb	r3, [r3, #0]
    a202:	2b09      	cmp	r3, #9
    a204:	d102      	bne.n	a20c <udi_cdc_multi_write_buf+0x3c>
    a206:	687b      	ldr	r3, [r7, #4]
    a208:	005b      	lsls	r3, r3, #1
    a20a:	607b      	str	r3, [r7, #4]
    a20c:	230f      	movs	r3, #15
    a20e:	18fb      	adds	r3, r7, r3
    a210:	781b      	ldrb	r3, [r3, #0]
    a212:	0018      	movs	r0, r3
    a214:	4b3b      	ldr	r3, [pc, #236]	; (a304 <udi_cdc_multi_write_buf+0x134>)
    a216:	4798      	blx	r3
    a218:	0003      	movs	r3, r0
    a21a:	001a      	movs	r2, r3
    a21c:	2301      	movs	r3, #1
    a21e:	4053      	eors	r3, r2
    a220:	b2db      	uxtb	r3, r3
    a222:	2b00      	cmp	r3, #0
    a224:	d009      	beq.n	a23a <udi_cdc_multi_write_buf+0x6a>
    a226:	4b38      	ldr	r3, [pc, #224]	; (a308 <udi_cdc_multi_write_buf+0x138>)
    a228:	781b      	ldrb	r3, [r3, #0]
    a22a:	b2db      	uxtb	r3, r3
    a22c:	2201      	movs	r2, #1
    a22e:	4053      	eors	r3, r2
    a230:	b2db      	uxtb	r3, r3
    a232:	2b00      	cmp	r3, #0
    a234:	d0ea      	beq.n	a20c <udi_cdc_multi_write_buf+0x3c>
    a236:	687b      	ldr	r3, [r7, #4]
    a238:	e05d      	b.n	a2f6 <udi_cdc_multi_write_buf+0x126>
    a23a:	4b34      	ldr	r3, [pc, #208]	; (a30c <udi_cdc_multi_write_buf+0x13c>)
    a23c:	4798      	blx	r3
    a23e:	0003      	movs	r3, r0
    a240:	617b      	str	r3, [r7, #20]
    a242:	230f      	movs	r3, #15
    a244:	18fb      	adds	r3, r7, r3
    a246:	781a      	ldrb	r2, [r3, #0]
    a248:	2313      	movs	r3, #19
    a24a:	18fb      	adds	r3, r7, r3
    a24c:	4930      	ldr	r1, [pc, #192]	; (a310 <udi_cdc_multi_write_buf+0x140>)
    a24e:	5c8a      	ldrb	r2, [r1, r2]
    a250:	701a      	strb	r2, [r3, #0]
    a252:	230f      	movs	r3, #15
    a254:	18fb      	adds	r3, r7, r3
    a256:	7818      	ldrb	r0, [r3, #0]
    a258:	2313      	movs	r3, #19
    a25a:	18fb      	adds	r3, r7, r3
    a25c:	7819      	ldrb	r1, [r3, #0]
    a25e:	2310      	movs	r3, #16
    a260:	18fb      	adds	r3, r7, r3
    a262:	4a2c      	ldr	r2, [pc, #176]	; (a314 <udi_cdc_multi_write_buf+0x144>)
    a264:	0040      	lsls	r0, r0, #1
    a266:	1841      	adds	r1, r0, r1
    a268:	0049      	lsls	r1, r1, #1
    a26a:	5a8a      	ldrh	r2, [r1, r2]
    a26c:	801a      	strh	r2, [r3, #0]
    a26e:	2310      	movs	r3, #16
    a270:	18fb      	adds	r3, r7, r3
    a272:	881b      	ldrh	r3, [r3, #0]
    a274:	2240      	movs	r2, #64	; 0x40
    a276:	1ad3      	subs	r3, r2, r3
    a278:	61fb      	str	r3, [r7, #28]
    a27a:	69fa      	ldr	r2, [r7, #28]
    a27c:	687b      	ldr	r3, [r7, #4]
    a27e:	429a      	cmp	r2, r3
    a280:	d901      	bls.n	a286 <udi_cdc_multi_write_buf+0xb6>
    a282:	687b      	ldr	r3, [r7, #4]
    a284:	61fb      	str	r3, [r7, #28]
    a286:	230f      	movs	r3, #15
    a288:	18fb      	adds	r3, r7, r3
    a28a:	7819      	ldrb	r1, [r3, #0]
    a28c:	2313      	movs	r3, #19
    a28e:	18fb      	adds	r3, r7, r3
    a290:	781a      	ldrb	r2, [r3, #0]
    a292:	2310      	movs	r3, #16
    a294:	18fb      	adds	r3, r7, r3
    a296:	881b      	ldrh	r3, [r3, #0]
    a298:	0049      	lsls	r1, r1, #1
    a29a:	188a      	adds	r2, r1, r2
    a29c:	0192      	lsls	r2, r2, #6
    a29e:	18d2      	adds	r2, r2, r3
    a2a0:	4b1d      	ldr	r3, [pc, #116]	; (a318 <udi_cdc_multi_write_buf+0x148>)
    a2a2:	18d3      	adds	r3, r2, r3
    a2a4:	69fa      	ldr	r2, [r7, #28]
    a2a6:	69b9      	ldr	r1, [r7, #24]
    a2a8:	0018      	movs	r0, r3
    a2aa:	4b1c      	ldr	r3, [pc, #112]	; (a31c <udi_cdc_multi_write_buf+0x14c>)
    a2ac:	4798      	blx	r3
    a2ae:	230f      	movs	r3, #15
    a2b0:	18fb      	adds	r3, r7, r3
    a2b2:	7819      	ldrb	r1, [r3, #0]
    a2b4:	2313      	movs	r3, #19
    a2b6:	18fb      	adds	r3, r7, r3
    a2b8:	781a      	ldrb	r2, [r3, #0]
    a2ba:	69fb      	ldr	r3, [r7, #28]
    a2bc:	b298      	uxth	r0, r3
    a2be:	2310      	movs	r3, #16
    a2c0:	18fb      	adds	r3, r7, r3
    a2c2:	881b      	ldrh	r3, [r3, #0]
    a2c4:	18c3      	adds	r3, r0, r3
    a2c6:	b298      	uxth	r0, r3
    a2c8:	4b12      	ldr	r3, [pc, #72]	; (a314 <udi_cdc_multi_write_buf+0x144>)
    a2ca:	0049      	lsls	r1, r1, #1
    a2cc:	188a      	adds	r2, r1, r2
    a2ce:	0052      	lsls	r2, r2, #1
    a2d0:	1c01      	adds	r1, r0, #0
    a2d2:	52d1      	strh	r1, [r2, r3]
    a2d4:	697b      	ldr	r3, [r7, #20]
    a2d6:	0018      	movs	r0, r3
    a2d8:	4b11      	ldr	r3, [pc, #68]	; (a320 <udi_cdc_multi_write_buf+0x150>)
    a2da:	4798      	blx	r3
    a2dc:	69ba      	ldr	r2, [r7, #24]
    a2de:	69fb      	ldr	r3, [r7, #28]
    a2e0:	18d3      	adds	r3, r2, r3
    a2e2:	61bb      	str	r3, [r7, #24]
    a2e4:	687a      	ldr	r2, [r7, #4]
    a2e6:	69fb      	ldr	r3, [r7, #28]
    a2e8:	1ad3      	subs	r3, r2, r3
    a2ea:	607b      	str	r3, [r7, #4]
    a2ec:	687b      	ldr	r3, [r7, #4]
    a2ee:	2b00      	cmp	r3, #0
    a2f0:	d000      	beq.n	a2f4 <udi_cdc_multi_write_buf+0x124>
    a2f2:	e78b      	b.n	a20c <udi_cdc_multi_write_buf+0x3c>
    a2f4:	2300      	movs	r3, #0
    a2f6:	0018      	movs	r0, r3
    a2f8:	46bd      	mov	sp, r7
    a2fa:	b008      	add	sp, #32
    a2fc:	bd80      	pop	{r7, pc}
    a2fe:	46c0      	nop			; (mov r8, r8)
    a300:	2000061c 	.word	0x2000061c
    a304:	0000a1a5 	.word	0x0000a1a5
    a308:	20000623 	.word	0x20000623
    a30c:	0000a069 	.word	0x0000a069
    a310:	200006a8 	.word	0x200006a8
    a314:	200006a4 	.word	0x200006a4
    a318:	20000624 	.word	0x20000624
    a31c:	00011bb9 	.word	0x00011bb9
    a320:	0000a0b1 	.word	0x0000a0b1

0000a324 <udi_cdc_write_buf>:
    a324:	b580      	push	{r7, lr}
    a326:	b082      	sub	sp, #8
    a328:	af00      	add	r7, sp, #0
    a32a:	6078      	str	r0, [r7, #4]
    a32c:	6039      	str	r1, [r7, #0]
    a32e:	683a      	ldr	r2, [r7, #0]
    a330:	687b      	ldr	r3, [r7, #4]
    a332:	0019      	movs	r1, r3
    a334:	2000      	movs	r0, #0
    a336:	4b03      	ldr	r3, [pc, #12]	; (a344 <udi_cdc_write_buf+0x20>)
    a338:	4798      	blx	r3
    a33a:	0003      	movs	r3, r0
    a33c:	0018      	movs	r0, r3
    a33e:	46bd      	mov	sp, r7
    a340:	b002      	add	sp, #8
    a342:	bd80      	pop	{r7, pc}
    a344:	0000a1d1 	.word	0x0000a1d1

0000a348 <nvm_is_ready>:
    a348:	b580      	push	{r7, lr}
    a34a:	b082      	sub	sp, #8
    a34c:	af00      	add	r7, sp, #0
    a34e:	4b07      	ldr	r3, [pc, #28]	; (a36c <nvm_is_ready+0x24>)
    a350:	607b      	str	r3, [r7, #4]
    a352:	687b      	ldr	r3, [r7, #4]
    a354:	7d1b      	ldrb	r3, [r3, #20]
    a356:	b2db      	uxtb	r3, r3
    a358:	001a      	movs	r2, r3
    a35a:	2301      	movs	r3, #1
    a35c:	4013      	ands	r3, r2
    a35e:	1e5a      	subs	r2, r3, #1
    a360:	4193      	sbcs	r3, r2
    a362:	b2db      	uxtb	r3, r3
    a364:	0018      	movs	r0, r3
    a366:	46bd      	mov	sp, r7
    a368:	b002      	add	sp, #8
    a36a:	bd80      	pop	{r7, pc}
    a36c:	41004000 	.word	0x41004000

0000a370 <system_apb_clock_set_mask>:
    a370:	b580      	push	{r7, lr}
    a372:	b082      	sub	sp, #8
    a374:	af00      	add	r7, sp, #0
    a376:	0002      	movs	r2, r0
    a378:	6039      	str	r1, [r7, #0]
    a37a:	1dfb      	adds	r3, r7, #7
    a37c:	701a      	strb	r2, [r3, #0]
    a37e:	1dfb      	adds	r3, r7, #7
    a380:	781b      	ldrb	r3, [r3, #0]
    a382:	2b01      	cmp	r3, #1
    a384:	d00a      	beq.n	a39c <system_apb_clock_set_mask+0x2c>
    a386:	2b02      	cmp	r3, #2
    a388:	d00f      	beq.n	a3aa <system_apb_clock_set_mask+0x3a>
    a38a:	2b00      	cmp	r3, #0
    a38c:	d114      	bne.n	a3b8 <system_apb_clock_set_mask+0x48>
    a38e:	4b0e      	ldr	r3, [pc, #56]	; (a3c8 <system_apb_clock_set_mask+0x58>)
    a390:	4a0d      	ldr	r2, [pc, #52]	; (a3c8 <system_apb_clock_set_mask+0x58>)
    a392:	6991      	ldr	r1, [r2, #24]
    a394:	683a      	ldr	r2, [r7, #0]
    a396:	430a      	orrs	r2, r1
    a398:	619a      	str	r2, [r3, #24]
    a39a:	e00f      	b.n	a3bc <system_apb_clock_set_mask+0x4c>
    a39c:	4b0a      	ldr	r3, [pc, #40]	; (a3c8 <system_apb_clock_set_mask+0x58>)
    a39e:	4a0a      	ldr	r2, [pc, #40]	; (a3c8 <system_apb_clock_set_mask+0x58>)
    a3a0:	69d1      	ldr	r1, [r2, #28]
    a3a2:	683a      	ldr	r2, [r7, #0]
    a3a4:	430a      	orrs	r2, r1
    a3a6:	61da      	str	r2, [r3, #28]
    a3a8:	e008      	b.n	a3bc <system_apb_clock_set_mask+0x4c>
    a3aa:	4b07      	ldr	r3, [pc, #28]	; (a3c8 <system_apb_clock_set_mask+0x58>)
    a3ac:	4a06      	ldr	r2, [pc, #24]	; (a3c8 <system_apb_clock_set_mask+0x58>)
    a3ae:	6a11      	ldr	r1, [r2, #32]
    a3b0:	683a      	ldr	r2, [r7, #0]
    a3b2:	430a      	orrs	r2, r1
    a3b4:	621a      	str	r2, [r3, #32]
    a3b6:	e001      	b.n	a3bc <system_apb_clock_set_mask+0x4c>
    a3b8:	2317      	movs	r3, #23
    a3ba:	e000      	b.n	a3be <system_apb_clock_set_mask+0x4e>
    a3bc:	2300      	movs	r3, #0
    a3be:	0018      	movs	r0, r3
    a3c0:	46bd      	mov	sp, r7
    a3c2:	b002      	add	sp, #8
    a3c4:	bd80      	pop	{r7, pc}
    a3c6:	46c0      	nop			; (mov r8, r8)
    a3c8:	40000400 	.word	0x40000400

0000a3cc <nvm_set_config>:
    a3cc:	b580      	push	{r7, lr}
    a3ce:	b084      	sub	sp, #16
    a3d0:	af00      	add	r7, sp, #0
    a3d2:	6078      	str	r0, [r7, #4]
    a3d4:	4b2f      	ldr	r3, [pc, #188]	; (a494 <nvm_set_config+0xc8>)
    a3d6:	60fb      	str	r3, [r7, #12]
    a3d8:	2104      	movs	r1, #4
    a3da:	2001      	movs	r0, #1
    a3dc:	4b2e      	ldr	r3, [pc, #184]	; (a498 <nvm_set_config+0xcc>)
    a3de:	4798      	blx	r3
    a3e0:	68fb      	ldr	r3, [r7, #12]
    a3e2:	2220      	movs	r2, #32
    a3e4:	32ff      	adds	r2, #255	; 0xff
    a3e6:	831a      	strh	r2, [r3, #24]
    a3e8:	4b2c      	ldr	r3, [pc, #176]	; (a49c <nvm_set_config+0xd0>)
    a3ea:	4798      	blx	r3
    a3ec:	0003      	movs	r3, r0
    a3ee:	001a      	movs	r2, r3
    a3f0:	2301      	movs	r3, #1
    a3f2:	4053      	eors	r3, r2
    a3f4:	b2db      	uxtb	r3, r3
    a3f6:	2b00      	cmp	r3, #0
    a3f8:	d001      	beq.n	a3fe <nvm_set_config+0x32>
    a3fa:	2305      	movs	r3, #5
    a3fc:	e045      	b.n	a48a <nvm_set_config+0xbe>
    a3fe:	687b      	ldr	r3, [r7, #4]
    a400:	781b      	ldrb	r3, [r3, #0]
    a402:	021b      	lsls	r3, r3, #8
    a404:	001a      	movs	r2, r3
    a406:	23c0      	movs	r3, #192	; 0xc0
    a408:	009b      	lsls	r3, r3, #2
    a40a:	401a      	ands	r2, r3
    a40c:	687b      	ldr	r3, [r7, #4]
    a40e:	785b      	ldrb	r3, [r3, #1]
    a410:	01db      	lsls	r3, r3, #7
    a412:	0019      	movs	r1, r3
    a414:	23ff      	movs	r3, #255	; 0xff
    a416:	400b      	ands	r3, r1
    a418:	431a      	orrs	r2, r3
    a41a:	687b      	ldr	r3, [r7, #4]
    a41c:	789b      	ldrb	r3, [r3, #2]
    a41e:	005b      	lsls	r3, r3, #1
    a420:	0019      	movs	r1, r3
    a422:	231e      	movs	r3, #30
    a424:	400b      	ands	r3, r1
    a426:	431a      	orrs	r2, r3
    a428:	687b      	ldr	r3, [r7, #4]
    a42a:	78db      	ldrb	r3, [r3, #3]
    a42c:	049b      	lsls	r3, r3, #18
    a42e:	0019      	movs	r1, r3
    a430:	2380      	movs	r3, #128	; 0x80
    a432:	02db      	lsls	r3, r3, #11
    a434:	400b      	ands	r3, r1
    a436:	431a      	orrs	r2, r3
    a438:	687b      	ldr	r3, [r7, #4]
    a43a:	791b      	ldrb	r3, [r3, #4]
    a43c:	041b      	lsls	r3, r3, #16
    a43e:	0019      	movs	r1, r3
    a440:	23c0      	movs	r3, #192	; 0xc0
    a442:	029b      	lsls	r3, r3, #10
    a444:	400b      	ands	r3, r1
    a446:	431a      	orrs	r2, r3
    a448:	68fb      	ldr	r3, [r7, #12]
    a44a:	605a      	str	r2, [r3, #4]
    a44c:	68fb      	ldr	r3, [r7, #12]
    a44e:	689b      	ldr	r3, [r3, #8]
    a450:	035b      	lsls	r3, r3, #13
    a452:	0f5b      	lsrs	r3, r3, #29
    a454:	b2db      	uxtb	r3, r3
    a456:	001a      	movs	r2, r3
    a458:	2308      	movs	r3, #8
    a45a:	4093      	lsls	r3, r2
    a45c:	b29a      	uxth	r2, r3
    a45e:	4b10      	ldr	r3, [pc, #64]	; (a4a0 <nvm_set_config+0xd4>)
    a460:	801a      	strh	r2, [r3, #0]
    a462:	68fb      	ldr	r3, [r7, #12]
    a464:	689b      	ldr	r3, [r3, #8]
    a466:	b29a      	uxth	r2, r3
    a468:	4b0d      	ldr	r3, [pc, #52]	; (a4a0 <nvm_set_config+0xd4>)
    a46a:	805a      	strh	r2, [r3, #2]
    a46c:	687b      	ldr	r3, [r7, #4]
    a46e:	785a      	ldrb	r2, [r3, #1]
    a470:	4b0b      	ldr	r3, [pc, #44]	; (a4a0 <nvm_set_config+0xd4>)
    a472:	711a      	strb	r2, [r3, #4]
    a474:	68fb      	ldr	r3, [r7, #12]
    a476:	8b1b      	ldrh	r3, [r3, #24]
    a478:	b29b      	uxth	r3, r3
    a47a:	001a      	movs	r2, r3
    a47c:	2380      	movs	r3, #128	; 0x80
    a47e:	005b      	lsls	r3, r3, #1
    a480:	4013      	ands	r3, r2
    a482:	d001      	beq.n	a488 <nvm_set_config+0xbc>
    a484:	2310      	movs	r3, #16
    a486:	e000      	b.n	a48a <nvm_set_config+0xbe>
    a488:	2300      	movs	r3, #0
    a48a:	0018      	movs	r0, r3
    a48c:	46bd      	mov	sp, r7
    a48e:	b004      	add	sp, #16
    a490:	bd80      	pop	{r7, pc}
    a492:	46c0      	nop			; (mov r8, r8)
    a494:	41004000 	.word	0x41004000
    a498:	0000a371 	.word	0x0000a371
    a49c:	0000a349 	.word	0x0000a349
    a4a0:	200006b4 	.word	0x200006b4

0000a4a4 <nvm_execute_command>:
    a4a4:	b580      	push	{r7, lr}
    a4a6:	b086      	sub	sp, #24
    a4a8:	af00      	add	r7, sp, #0
    a4aa:	60b9      	str	r1, [r7, #8]
    a4ac:	607a      	str	r2, [r7, #4]
    a4ae:	230f      	movs	r3, #15
    a4b0:	18fb      	adds	r3, r7, r3
    a4b2:	1c02      	adds	r2, r0, #0
    a4b4:	701a      	strb	r2, [r3, #0]
    a4b6:	4b3a      	ldr	r3, [pc, #232]	; (a5a0 <nvm_execute_command+0xfc>)
    a4b8:	881b      	ldrh	r3, [r3, #0]
    a4ba:	001a      	movs	r2, r3
    a4bc:	4b38      	ldr	r3, [pc, #224]	; (a5a0 <nvm_execute_command+0xfc>)
    a4be:	885b      	ldrh	r3, [r3, #2]
    a4c0:	435a      	muls	r2, r3
    a4c2:	68bb      	ldr	r3, [r7, #8]
    a4c4:	429a      	cmp	r2, r3
    a4c6:	d209      	bcs.n	a4dc <nvm_execute_command+0x38>
    a4c8:	68bb      	ldr	r3, [r7, #8]
    a4ca:	4a36      	ldr	r2, [pc, #216]	; (a5a4 <nvm_execute_command+0x100>)
    a4cc:	4293      	cmp	r3, r2
    a4ce:	d903      	bls.n	a4d8 <nvm_execute_command+0x34>
    a4d0:	68bb      	ldr	r3, [r7, #8]
    a4d2:	4a35      	ldr	r2, [pc, #212]	; (a5a8 <nvm_execute_command+0x104>)
    a4d4:	4293      	cmp	r3, r2
    a4d6:	d901      	bls.n	a4dc <nvm_execute_command+0x38>
    a4d8:	2318      	movs	r3, #24
    a4da:	e05c      	b.n	a596 <nvm_execute_command+0xf2>
    a4dc:	4b33      	ldr	r3, [pc, #204]	; (a5ac <nvm_execute_command+0x108>)
    a4de:	617b      	str	r3, [r7, #20]
    a4e0:	697b      	ldr	r3, [r7, #20]
    a4e2:	685b      	ldr	r3, [r3, #4]
    a4e4:	613b      	str	r3, [r7, #16]
    a4e6:	693b      	ldr	r3, [r7, #16]
    a4e8:	2280      	movs	r2, #128	; 0x80
    a4ea:	02d2      	lsls	r2, r2, #11
    a4ec:	431a      	orrs	r2, r3
    a4ee:	697b      	ldr	r3, [r7, #20]
    a4f0:	605a      	str	r2, [r3, #4]
    a4f2:	697b      	ldr	r3, [r7, #20]
    a4f4:	2220      	movs	r2, #32
    a4f6:	32ff      	adds	r2, #255	; 0xff
    a4f8:	831a      	strh	r2, [r3, #24]
    a4fa:	4b2d      	ldr	r3, [pc, #180]	; (a5b0 <nvm_execute_command+0x10c>)
    a4fc:	4798      	blx	r3
    a4fe:	0003      	movs	r3, r0
    a500:	001a      	movs	r2, r3
    a502:	2301      	movs	r3, #1
    a504:	4053      	eors	r3, r2
    a506:	b2db      	uxtb	r3, r3
    a508:	2b00      	cmp	r3, #0
    a50a:	d004      	beq.n	a516 <nvm_execute_command+0x72>
    a50c:	697b      	ldr	r3, [r7, #20]
    a50e:	693a      	ldr	r2, [r7, #16]
    a510:	605a      	str	r2, [r3, #4]
    a512:	2305      	movs	r3, #5
    a514:	e03f      	b.n	a596 <nvm_execute_command+0xf2>
    a516:	230f      	movs	r3, #15
    a518:	18fb      	adds	r3, r7, r3
    a51a:	781b      	ldrb	r3, [r3, #0]
    a51c:	2b45      	cmp	r3, #69	; 0x45
    a51e:	d81d      	bhi.n	a55c <nvm_execute_command+0xb8>
    a520:	009a      	lsls	r2, r3, #2
    a522:	4b24      	ldr	r3, [pc, #144]	; (a5b4 <nvm_execute_command+0x110>)
    a524:	18d3      	adds	r3, r2, r3
    a526:	681b      	ldr	r3, [r3, #0]
    a528:	469f      	mov	pc, r3
    a52a:	697b      	ldr	r3, [r7, #20]
    a52c:	8b1b      	ldrh	r3, [r3, #24]
    a52e:	b29b      	uxth	r3, r3
    a530:	001a      	movs	r2, r3
    a532:	2380      	movs	r3, #128	; 0x80
    a534:	005b      	lsls	r3, r3, #1
    a536:	4013      	ands	r3, r2
    a538:	d004      	beq.n	a544 <nvm_execute_command+0xa0>
    a53a:	697b      	ldr	r3, [r7, #20]
    a53c:	693a      	ldr	r2, [r7, #16]
    a53e:	605a      	str	r2, [r3, #4]
    a540:	2310      	movs	r3, #16
    a542:	e028      	b.n	a596 <nvm_execute_command+0xf2>
    a544:	68bb      	ldr	r3, [r7, #8]
    a546:	089b      	lsrs	r3, r3, #2
    a548:	005a      	lsls	r2, r3, #1
    a54a:	697b      	ldr	r3, [r7, #20]
    a54c:	61da      	str	r2, [r3, #28]
    a54e:	e00b      	b.n	a568 <nvm_execute_command+0xc4>
    a550:	68bb      	ldr	r3, [r7, #8]
    a552:	089b      	lsrs	r3, r3, #2
    a554:	005a      	lsls	r2, r3, #1
    a556:	697b      	ldr	r3, [r7, #20]
    a558:	61da      	str	r2, [r3, #28]
    a55a:	e005      	b.n	a568 <nvm_execute_command+0xc4>
    a55c:	697b      	ldr	r3, [r7, #20]
    a55e:	693a      	ldr	r2, [r7, #16]
    a560:	605a      	str	r2, [r3, #4]
    a562:	2317      	movs	r3, #23
    a564:	e017      	b.n	a596 <nvm_execute_command+0xf2>
    a566:	46c0      	nop			; (mov r8, r8)
    a568:	230f      	movs	r3, #15
    a56a:	18fb      	adds	r3, r7, r3
    a56c:	781b      	ldrb	r3, [r3, #0]
    a56e:	b29b      	uxth	r3, r3
    a570:	4a11      	ldr	r2, [pc, #68]	; (a5b8 <nvm_execute_command+0x114>)
    a572:	4313      	orrs	r3, r2
    a574:	b29a      	uxth	r2, r3
    a576:	697b      	ldr	r3, [r7, #20]
    a578:	801a      	strh	r2, [r3, #0]
    a57a:	46c0      	nop			; (mov r8, r8)
    a57c:	4b0c      	ldr	r3, [pc, #48]	; (a5b0 <nvm_execute_command+0x10c>)
    a57e:	4798      	blx	r3
    a580:	0003      	movs	r3, r0
    a582:	001a      	movs	r2, r3
    a584:	2301      	movs	r3, #1
    a586:	4053      	eors	r3, r2
    a588:	b2db      	uxtb	r3, r3
    a58a:	2b00      	cmp	r3, #0
    a58c:	d1f6      	bne.n	a57c <nvm_execute_command+0xd8>
    a58e:	697b      	ldr	r3, [r7, #20]
    a590:	693a      	ldr	r2, [r7, #16]
    a592:	605a      	str	r2, [r3, #4]
    a594:	2300      	movs	r3, #0
    a596:	0018      	movs	r0, r3
    a598:	46bd      	mov	sp, r7
    a59a:	b006      	add	sp, #24
    a59c:	bd80      	pop	{r7, pc}
    a59e:	46c0      	nop			; (mov r8, r8)
    a5a0:	200006b4 	.word	0x200006b4
    a5a4:	00803fff 	.word	0x00803fff
    a5a8:	00806000 	.word	0x00806000
    a5ac:	41004000 	.word	0x41004000
    a5b0:	0000a349 	.word	0x0000a349
    a5b4:	00012114 	.word	0x00012114
    a5b8:	ffffa500 	.word	0xffffa500

0000a5bc <nvm_write_buffer>:
    a5bc:	b580      	push	{r7, lr}
    a5be:	b088      	sub	sp, #32
    a5c0:	af00      	add	r7, sp, #0
    a5c2:	60f8      	str	r0, [r7, #12]
    a5c4:	60b9      	str	r1, [r7, #8]
    a5c6:	1dbb      	adds	r3, r7, #6
    a5c8:	801a      	strh	r2, [r3, #0]
    a5ca:	4b4a      	ldr	r3, [pc, #296]	; (a6f4 <nvm_write_buffer+0x138>)
    a5cc:	881b      	ldrh	r3, [r3, #0]
    a5ce:	001a      	movs	r2, r3
    a5d0:	4b48      	ldr	r3, [pc, #288]	; (a6f4 <nvm_write_buffer+0x138>)
    a5d2:	885b      	ldrh	r3, [r3, #2]
    a5d4:	435a      	muls	r2, r3
    a5d6:	68fb      	ldr	r3, [r7, #12]
    a5d8:	429a      	cmp	r2, r3
    a5da:	d201      	bcs.n	a5e0 <nvm_write_buffer+0x24>
    a5dc:	2318      	movs	r3, #24
    a5de:	e084      	b.n	a6ea <nvm_write_buffer+0x12e>
    a5e0:	4b44      	ldr	r3, [pc, #272]	; (a6f4 <nvm_write_buffer+0x138>)
    a5e2:	881b      	ldrh	r3, [r3, #0]
    a5e4:	3b01      	subs	r3, #1
    a5e6:	001a      	movs	r2, r3
    a5e8:	68fb      	ldr	r3, [r7, #12]
    a5ea:	4013      	ands	r3, r2
    a5ec:	d001      	beq.n	a5f2 <nvm_write_buffer+0x36>
    a5ee:	2318      	movs	r3, #24
    a5f0:	e07b      	b.n	a6ea <nvm_write_buffer+0x12e>
    a5f2:	4b40      	ldr	r3, [pc, #256]	; (a6f4 <nvm_write_buffer+0x138>)
    a5f4:	881b      	ldrh	r3, [r3, #0]
    a5f6:	1dba      	adds	r2, r7, #6
    a5f8:	8812      	ldrh	r2, [r2, #0]
    a5fa:	429a      	cmp	r2, r3
    a5fc:	d901      	bls.n	a602 <nvm_write_buffer+0x46>
    a5fe:	2317      	movs	r3, #23
    a600:	e073      	b.n	a6ea <nvm_write_buffer+0x12e>
    a602:	4b3d      	ldr	r3, [pc, #244]	; (a6f8 <nvm_write_buffer+0x13c>)
    a604:	617b      	str	r3, [r7, #20]
    a606:	4b3d      	ldr	r3, [pc, #244]	; (a6fc <nvm_write_buffer+0x140>)
    a608:	4798      	blx	r3
    a60a:	0003      	movs	r3, r0
    a60c:	001a      	movs	r2, r3
    a60e:	2301      	movs	r3, #1
    a610:	4053      	eors	r3, r2
    a612:	b2db      	uxtb	r3, r3
    a614:	2b00      	cmp	r3, #0
    a616:	d001      	beq.n	a61c <nvm_write_buffer+0x60>
    a618:	2305      	movs	r3, #5
    a61a:	e066      	b.n	a6ea <nvm_write_buffer+0x12e>
    a61c:	697b      	ldr	r3, [r7, #20]
    a61e:	4a38      	ldr	r2, [pc, #224]	; (a700 <nvm_write_buffer+0x144>)
    a620:	801a      	strh	r2, [r3, #0]
    a622:	46c0      	nop			; (mov r8, r8)
    a624:	4b35      	ldr	r3, [pc, #212]	; (a6fc <nvm_write_buffer+0x140>)
    a626:	4798      	blx	r3
    a628:	0003      	movs	r3, r0
    a62a:	001a      	movs	r2, r3
    a62c:	2301      	movs	r3, #1
    a62e:	4053      	eors	r3, r2
    a630:	b2db      	uxtb	r3, r3
    a632:	2b00      	cmp	r3, #0
    a634:	d1f6      	bne.n	a624 <nvm_write_buffer+0x68>
    a636:	697b      	ldr	r3, [r7, #20]
    a638:	2220      	movs	r2, #32
    a63a:	32ff      	adds	r2, #255	; 0xff
    a63c:	831a      	strh	r2, [r3, #24]
    a63e:	68fb      	ldr	r3, [r7, #12]
    a640:	085b      	lsrs	r3, r3, #1
    a642:	61fb      	str	r3, [r7, #28]
    a644:	231a      	movs	r3, #26
    a646:	18fb      	adds	r3, r7, r3
    a648:	2200      	movs	r2, #0
    a64a:	801a      	strh	r2, [r3, #0]
    a64c:	e032      	b.n	a6b4 <nvm_write_buffer+0xf8>
    a64e:	231a      	movs	r3, #26
    a650:	18fb      	adds	r3, r7, r3
    a652:	881b      	ldrh	r3, [r3, #0]
    a654:	68ba      	ldr	r2, [r7, #8]
    a656:	18d3      	adds	r3, r2, r3
    a658:	781a      	ldrb	r2, [r3, #0]
    a65a:	2318      	movs	r3, #24
    a65c:	18fb      	adds	r3, r7, r3
    a65e:	801a      	strh	r2, [r3, #0]
    a660:	231a      	movs	r3, #26
    a662:	18fb      	adds	r3, r7, r3
    a664:	881a      	ldrh	r2, [r3, #0]
    a666:	1dbb      	adds	r3, r7, #6
    a668:	881b      	ldrh	r3, [r3, #0]
    a66a:	3b01      	subs	r3, #1
    a66c:	429a      	cmp	r2, r3
    a66e:	da11      	bge.n	a694 <nvm_write_buffer+0xd8>
    a670:	231a      	movs	r3, #26
    a672:	18fb      	adds	r3, r7, r3
    a674:	881b      	ldrh	r3, [r3, #0]
    a676:	3301      	adds	r3, #1
    a678:	68ba      	ldr	r2, [r7, #8]
    a67a:	18d3      	adds	r3, r2, r3
    a67c:	781b      	ldrb	r3, [r3, #0]
    a67e:	021b      	lsls	r3, r3, #8
    a680:	b21a      	sxth	r2, r3
    a682:	2318      	movs	r3, #24
    a684:	18fb      	adds	r3, r7, r3
    a686:	2100      	movs	r1, #0
    a688:	5e5b      	ldrsh	r3, [r3, r1]
    a68a:	4313      	orrs	r3, r2
    a68c:	b21a      	sxth	r2, r3
    a68e:	2318      	movs	r3, #24
    a690:	18fb      	adds	r3, r7, r3
    a692:	801a      	strh	r2, [r3, #0]
    a694:	69fb      	ldr	r3, [r7, #28]
    a696:	1c5a      	adds	r2, r3, #1
    a698:	61fa      	str	r2, [r7, #28]
    a69a:	005b      	lsls	r3, r3, #1
    a69c:	001a      	movs	r2, r3
    a69e:	2318      	movs	r3, #24
    a6a0:	18fb      	adds	r3, r7, r3
    a6a2:	881b      	ldrh	r3, [r3, #0]
    a6a4:	8013      	strh	r3, [r2, #0]
    a6a6:	231a      	movs	r3, #26
    a6a8:	18fb      	adds	r3, r7, r3
    a6aa:	221a      	movs	r2, #26
    a6ac:	18ba      	adds	r2, r7, r2
    a6ae:	8812      	ldrh	r2, [r2, #0]
    a6b0:	3202      	adds	r2, #2
    a6b2:	801a      	strh	r2, [r3, #0]
    a6b4:	231a      	movs	r3, #26
    a6b6:	18fa      	adds	r2, r7, r3
    a6b8:	1dbb      	adds	r3, r7, #6
    a6ba:	8812      	ldrh	r2, [r2, #0]
    a6bc:	881b      	ldrh	r3, [r3, #0]
    a6be:	429a      	cmp	r2, r3
    a6c0:	d3c5      	bcc.n	a64e <nvm_write_buffer+0x92>
    a6c2:	4b0c      	ldr	r3, [pc, #48]	; (a6f4 <nvm_write_buffer+0x138>)
    a6c4:	791b      	ldrb	r3, [r3, #4]
    a6c6:	2201      	movs	r2, #1
    a6c8:	4053      	eors	r3, r2
    a6ca:	b2db      	uxtb	r3, r3
    a6cc:	2b00      	cmp	r3, #0
    a6ce:	d00b      	beq.n	a6e8 <nvm_write_buffer+0x12c>
    a6d0:	1dbb      	adds	r3, r7, #6
    a6d2:	881b      	ldrh	r3, [r3, #0]
    a6d4:	2b3f      	cmp	r3, #63	; 0x3f
    a6d6:	d807      	bhi.n	a6e8 <nvm_write_buffer+0x12c>
    a6d8:	68fb      	ldr	r3, [r7, #12]
    a6da:	2200      	movs	r2, #0
    a6dc:	0019      	movs	r1, r3
    a6de:	2004      	movs	r0, #4
    a6e0:	4b08      	ldr	r3, [pc, #32]	; (a704 <nvm_write_buffer+0x148>)
    a6e2:	4798      	blx	r3
    a6e4:	0003      	movs	r3, r0
    a6e6:	e000      	b.n	a6ea <nvm_write_buffer+0x12e>
    a6e8:	2300      	movs	r3, #0
    a6ea:	0018      	movs	r0, r3
    a6ec:	46bd      	mov	sp, r7
    a6ee:	b008      	add	sp, #32
    a6f0:	bd80      	pop	{r7, pc}
    a6f2:	46c0      	nop			; (mov r8, r8)
    a6f4:	200006b4 	.word	0x200006b4
    a6f8:	41004000 	.word	0x41004000
    a6fc:	0000a349 	.word	0x0000a349
    a700:	ffffa544 	.word	0xffffa544
    a704:	0000a4a5 	.word	0x0000a4a5

0000a708 <nvm_read_buffer>:
    a708:	b580      	push	{r7, lr}
    a70a:	b088      	sub	sp, #32
    a70c:	af00      	add	r7, sp, #0
    a70e:	60f8      	str	r0, [r7, #12]
    a710:	60b9      	str	r1, [r7, #8]
    a712:	1dbb      	adds	r3, r7, #6
    a714:	801a      	strh	r2, [r3, #0]
    a716:	4b38      	ldr	r3, [pc, #224]	; (a7f8 <nvm_read_buffer+0xf0>)
    a718:	881b      	ldrh	r3, [r3, #0]
    a71a:	001a      	movs	r2, r3
    a71c:	4b36      	ldr	r3, [pc, #216]	; (a7f8 <nvm_read_buffer+0xf0>)
    a71e:	885b      	ldrh	r3, [r3, #2]
    a720:	435a      	muls	r2, r3
    a722:	68fb      	ldr	r3, [r7, #12]
    a724:	429a      	cmp	r2, r3
    a726:	d201      	bcs.n	a72c <nvm_read_buffer+0x24>
    a728:	2318      	movs	r3, #24
    a72a:	e060      	b.n	a7ee <nvm_read_buffer+0xe6>
    a72c:	4b32      	ldr	r3, [pc, #200]	; (a7f8 <nvm_read_buffer+0xf0>)
    a72e:	881b      	ldrh	r3, [r3, #0]
    a730:	3b01      	subs	r3, #1
    a732:	001a      	movs	r2, r3
    a734:	68fb      	ldr	r3, [r7, #12]
    a736:	4013      	ands	r3, r2
    a738:	d001      	beq.n	a73e <nvm_read_buffer+0x36>
    a73a:	2318      	movs	r3, #24
    a73c:	e057      	b.n	a7ee <nvm_read_buffer+0xe6>
    a73e:	4b2e      	ldr	r3, [pc, #184]	; (a7f8 <nvm_read_buffer+0xf0>)
    a740:	881b      	ldrh	r3, [r3, #0]
    a742:	1dba      	adds	r2, r7, #6
    a744:	8812      	ldrh	r2, [r2, #0]
    a746:	429a      	cmp	r2, r3
    a748:	d901      	bls.n	a74e <nvm_read_buffer+0x46>
    a74a:	2317      	movs	r3, #23
    a74c:	e04f      	b.n	a7ee <nvm_read_buffer+0xe6>
    a74e:	4b2b      	ldr	r3, [pc, #172]	; (a7fc <nvm_read_buffer+0xf4>)
    a750:	617b      	str	r3, [r7, #20]
    a752:	4b2b      	ldr	r3, [pc, #172]	; (a800 <nvm_read_buffer+0xf8>)
    a754:	4798      	blx	r3
    a756:	0003      	movs	r3, r0
    a758:	001a      	movs	r2, r3
    a75a:	2301      	movs	r3, #1
    a75c:	4053      	eors	r3, r2
    a75e:	b2db      	uxtb	r3, r3
    a760:	2b00      	cmp	r3, #0
    a762:	d001      	beq.n	a768 <nvm_read_buffer+0x60>
    a764:	2305      	movs	r3, #5
    a766:	e042      	b.n	a7ee <nvm_read_buffer+0xe6>
    a768:	697b      	ldr	r3, [r7, #20]
    a76a:	2220      	movs	r2, #32
    a76c:	32ff      	adds	r2, #255	; 0xff
    a76e:	831a      	strh	r2, [r3, #24]
    a770:	68fb      	ldr	r3, [r7, #12]
    a772:	085b      	lsrs	r3, r3, #1
    a774:	61fb      	str	r3, [r7, #28]
    a776:	231a      	movs	r3, #26
    a778:	18fb      	adds	r3, r7, r3
    a77a:	2200      	movs	r2, #0
    a77c:	801a      	strh	r2, [r3, #0]
    a77e:	e02e      	b.n	a7de <nvm_read_buffer+0xd6>
    a780:	69fb      	ldr	r3, [r7, #28]
    a782:	1c5a      	adds	r2, r3, #1
    a784:	61fa      	str	r2, [r7, #28]
    a786:	005b      	lsls	r3, r3, #1
    a788:	001a      	movs	r2, r3
    a78a:	2312      	movs	r3, #18
    a78c:	18fb      	adds	r3, r7, r3
    a78e:	8812      	ldrh	r2, [r2, #0]
    a790:	801a      	strh	r2, [r3, #0]
    a792:	231a      	movs	r3, #26
    a794:	18fb      	adds	r3, r7, r3
    a796:	881b      	ldrh	r3, [r3, #0]
    a798:	68ba      	ldr	r2, [r7, #8]
    a79a:	18d3      	adds	r3, r2, r3
    a79c:	2212      	movs	r2, #18
    a79e:	18ba      	adds	r2, r7, r2
    a7a0:	8812      	ldrh	r2, [r2, #0]
    a7a2:	b2d2      	uxtb	r2, r2
    a7a4:	701a      	strb	r2, [r3, #0]
    a7a6:	231a      	movs	r3, #26
    a7a8:	18fb      	adds	r3, r7, r3
    a7aa:	881a      	ldrh	r2, [r3, #0]
    a7ac:	1dbb      	adds	r3, r7, #6
    a7ae:	881b      	ldrh	r3, [r3, #0]
    a7b0:	3b01      	subs	r3, #1
    a7b2:	429a      	cmp	r2, r3
    a7b4:	da0c      	bge.n	a7d0 <nvm_read_buffer+0xc8>
    a7b6:	231a      	movs	r3, #26
    a7b8:	18fb      	adds	r3, r7, r3
    a7ba:	881b      	ldrh	r3, [r3, #0]
    a7bc:	3301      	adds	r3, #1
    a7be:	68ba      	ldr	r2, [r7, #8]
    a7c0:	18d3      	adds	r3, r2, r3
    a7c2:	2212      	movs	r2, #18
    a7c4:	18ba      	adds	r2, r7, r2
    a7c6:	8812      	ldrh	r2, [r2, #0]
    a7c8:	0a12      	lsrs	r2, r2, #8
    a7ca:	b292      	uxth	r2, r2
    a7cc:	b2d2      	uxtb	r2, r2
    a7ce:	701a      	strb	r2, [r3, #0]
    a7d0:	231a      	movs	r3, #26
    a7d2:	18fb      	adds	r3, r7, r3
    a7d4:	221a      	movs	r2, #26
    a7d6:	18ba      	adds	r2, r7, r2
    a7d8:	8812      	ldrh	r2, [r2, #0]
    a7da:	3202      	adds	r2, #2
    a7dc:	801a      	strh	r2, [r3, #0]
    a7de:	231a      	movs	r3, #26
    a7e0:	18fa      	adds	r2, r7, r3
    a7e2:	1dbb      	adds	r3, r7, #6
    a7e4:	8812      	ldrh	r2, [r2, #0]
    a7e6:	881b      	ldrh	r3, [r3, #0]
    a7e8:	429a      	cmp	r2, r3
    a7ea:	d3c9      	bcc.n	a780 <nvm_read_buffer+0x78>
    a7ec:	2300      	movs	r3, #0
    a7ee:	0018      	movs	r0, r3
    a7f0:	46bd      	mov	sp, r7
    a7f2:	b008      	add	sp, #32
    a7f4:	bd80      	pop	{r7, pc}
    a7f6:	46c0      	nop			; (mov r8, r8)
    a7f8:	200006b4 	.word	0x200006b4
    a7fc:	41004000 	.word	0x41004000
    a800:	0000a349 	.word	0x0000a349

0000a804 <nvm_erase_row>:
    a804:	b580      	push	{r7, lr}
    a806:	b084      	sub	sp, #16
    a808:	af00      	add	r7, sp, #0
    a80a:	6078      	str	r0, [r7, #4]
    a80c:	4b23      	ldr	r3, [pc, #140]	; (a89c <nvm_erase_row+0x98>)
    a80e:	881b      	ldrh	r3, [r3, #0]
    a810:	001a      	movs	r2, r3
    a812:	4b22      	ldr	r3, [pc, #136]	; (a89c <nvm_erase_row+0x98>)
    a814:	885b      	ldrh	r3, [r3, #2]
    a816:	435a      	muls	r2, r3
    a818:	687b      	ldr	r3, [r7, #4]
    a81a:	429a      	cmp	r2, r3
    a81c:	d201      	bcs.n	a822 <nvm_erase_row+0x1e>
    a81e:	2318      	movs	r3, #24
    a820:	e037      	b.n	a892 <nvm_erase_row+0x8e>
    a822:	4b1e      	ldr	r3, [pc, #120]	; (a89c <nvm_erase_row+0x98>)
    a824:	881b      	ldrh	r3, [r3, #0]
    a826:	009b      	lsls	r3, r3, #2
    a828:	3b01      	subs	r3, #1
    a82a:	001a      	movs	r2, r3
    a82c:	687b      	ldr	r3, [r7, #4]
    a82e:	4013      	ands	r3, r2
    a830:	d001      	beq.n	a836 <nvm_erase_row+0x32>
    a832:	2318      	movs	r3, #24
    a834:	e02d      	b.n	a892 <nvm_erase_row+0x8e>
    a836:	4b1a      	ldr	r3, [pc, #104]	; (a8a0 <nvm_erase_row+0x9c>)
    a838:	60fb      	str	r3, [r7, #12]
    a83a:	4b1a      	ldr	r3, [pc, #104]	; (a8a4 <nvm_erase_row+0xa0>)
    a83c:	4798      	blx	r3
    a83e:	0003      	movs	r3, r0
    a840:	001a      	movs	r2, r3
    a842:	2301      	movs	r3, #1
    a844:	4053      	eors	r3, r2
    a846:	b2db      	uxtb	r3, r3
    a848:	2b00      	cmp	r3, #0
    a84a:	d001      	beq.n	a850 <nvm_erase_row+0x4c>
    a84c:	2305      	movs	r3, #5
    a84e:	e020      	b.n	a892 <nvm_erase_row+0x8e>
    a850:	68fb      	ldr	r3, [r7, #12]
    a852:	2220      	movs	r2, #32
    a854:	32ff      	adds	r2, #255	; 0xff
    a856:	831a      	strh	r2, [r3, #24]
    a858:	687b      	ldr	r3, [r7, #4]
    a85a:	089b      	lsrs	r3, r3, #2
    a85c:	005a      	lsls	r2, r3, #1
    a85e:	68fb      	ldr	r3, [r7, #12]
    a860:	61da      	str	r2, [r3, #28]
    a862:	68fb      	ldr	r3, [r7, #12]
    a864:	4a10      	ldr	r2, [pc, #64]	; (a8a8 <nvm_erase_row+0xa4>)
    a866:	801a      	strh	r2, [r3, #0]
    a868:	46c0      	nop			; (mov r8, r8)
    a86a:	4b0e      	ldr	r3, [pc, #56]	; (a8a4 <nvm_erase_row+0xa0>)
    a86c:	4798      	blx	r3
    a86e:	0003      	movs	r3, r0
    a870:	001a      	movs	r2, r3
    a872:	2301      	movs	r3, #1
    a874:	4053      	eors	r3, r2
    a876:	b2db      	uxtb	r3, r3
    a878:	2b00      	cmp	r3, #0
    a87a:	d1f6      	bne.n	a86a <nvm_erase_row+0x66>
    a87c:	68fb      	ldr	r3, [r7, #12]
    a87e:	8b1b      	ldrh	r3, [r3, #24]
    a880:	b29b      	uxth	r3, r3
    a882:	b2db      	uxtb	r3, r3
    a884:	001a      	movs	r2, r3
    a886:	231c      	movs	r3, #28
    a888:	4013      	ands	r3, r2
    a88a:	d001      	beq.n	a890 <nvm_erase_row+0x8c>
    a88c:	2304      	movs	r3, #4
    a88e:	e000      	b.n	a892 <nvm_erase_row+0x8e>
    a890:	2300      	movs	r3, #0
    a892:	0018      	movs	r0, r3
    a894:	46bd      	mov	sp, r7
    a896:	b004      	add	sp, #16
    a898:	bd80      	pop	{r7, pc}
    a89a:	46c0      	nop			; (mov r8, r8)
    a89c:	200006b4 	.word	0x200006b4
    a8a0:	41004000 	.word	0x41004000
    a8a4:	0000a349 	.word	0x0000a349
    a8a8:	ffffa502 	.word	0xffffa502

0000a8ac <nvm_get_parameters>:
    a8ac:	b580      	push	{r7, lr}
    a8ae:	b086      	sub	sp, #24
    a8b0:	af00      	add	r7, sp, #0
    a8b2:	6078      	str	r0, [r7, #4]
    a8b4:	4b2a      	ldr	r3, [pc, #168]	; (a960 <nvm_get_parameters+0xb4>)
    a8b6:	617b      	str	r3, [r7, #20]
    a8b8:	697b      	ldr	r3, [r7, #20]
    a8ba:	2220      	movs	r2, #32
    a8bc:	32ff      	adds	r2, #255	; 0xff
    a8be:	831a      	strh	r2, [r3, #24]
    a8c0:	697b      	ldr	r3, [r7, #20]
    a8c2:	689b      	ldr	r3, [r3, #8]
    a8c4:	613b      	str	r3, [r7, #16]
    a8c6:	693b      	ldr	r3, [r7, #16]
    a8c8:	0c1b      	lsrs	r3, r3, #16
    a8ca:	2207      	movs	r2, #7
    a8cc:	4013      	ands	r3, r2
    a8ce:	2208      	movs	r2, #8
    a8d0:	409a      	lsls	r2, r3
    a8d2:	0013      	movs	r3, r2
    a8d4:	b2da      	uxtb	r2, r3
    a8d6:	687b      	ldr	r3, [r7, #4]
    a8d8:	701a      	strb	r2, [r3, #0]
    a8da:	693b      	ldr	r3, [r7, #16]
    a8dc:	b29a      	uxth	r2, r3
    a8de:	687b      	ldr	r3, [r7, #4]
    a8e0:	805a      	strh	r2, [r3, #2]
    a8e2:	4b20      	ldr	r3, [pc, #128]	; (a964 <nvm_get_parameters+0xb8>)
    a8e4:	881b      	ldrh	r3, [r3, #0]
    a8e6:	b29b      	uxth	r3, r3
    a8e8:	091b      	lsrs	r3, r3, #4
    a8ea:	b29a      	uxth	r2, r3
    a8ec:	230e      	movs	r3, #14
    a8ee:	18fb      	adds	r3, r7, r3
    a8f0:	2107      	movs	r1, #7
    a8f2:	400a      	ands	r2, r1
    a8f4:	801a      	strh	r2, [r3, #0]
    a8f6:	230e      	movs	r3, #14
    a8f8:	18fb      	adds	r3, r7, r3
    a8fa:	881b      	ldrh	r3, [r3, #0]
    a8fc:	2b07      	cmp	r3, #7
    a8fe:	d103      	bne.n	a908 <nvm_get_parameters+0x5c>
    a900:	687b      	ldr	r3, [r7, #4]
    a902:	2200      	movs	r2, #0
    a904:	605a      	str	r2, [r3, #4]
    a906:	e00a      	b.n	a91e <nvm_get_parameters+0x72>
    a908:	230e      	movs	r3, #14
    a90a:	18fb      	adds	r3, r7, r3
    a90c:	881b      	ldrh	r3, [r3, #0]
    a90e:	2206      	movs	r2, #6
    a910:	1ad3      	subs	r3, r2, r3
    a912:	2204      	movs	r2, #4
    a914:	409a      	lsls	r2, r3
    a916:	0013      	movs	r3, r2
    a918:	001a      	movs	r2, r3
    a91a:	687b      	ldr	r3, [r7, #4]
    a91c:	605a      	str	r2, [r3, #4]
    a91e:	4b11      	ldr	r3, [pc, #68]	; (a964 <nvm_get_parameters+0xb8>)
    a920:	881b      	ldrh	r3, [r3, #0]
    a922:	b29a      	uxth	r2, r3
    a924:	230c      	movs	r3, #12
    a926:	18fb      	adds	r3, r7, r3
    a928:	2107      	movs	r1, #7
    a92a:	400a      	ands	r2, r1
    a92c:	801a      	strh	r2, [r3, #0]
    a92e:	230c      	movs	r3, #12
    a930:	18fb      	adds	r3, r7, r3
    a932:	881b      	ldrh	r3, [r3, #0]
    a934:	2b07      	cmp	r3, #7
    a936:	d103      	bne.n	a940 <nvm_get_parameters+0x94>
    a938:	687b      	ldr	r3, [r7, #4]
    a93a:	2200      	movs	r2, #0
    a93c:	609a      	str	r2, [r3, #8]
    a93e:	e00a      	b.n	a956 <nvm_get_parameters+0xaa>
    a940:	230c      	movs	r3, #12
    a942:	18fb      	adds	r3, r7, r3
    a944:	881b      	ldrh	r3, [r3, #0]
    a946:	2207      	movs	r2, #7
    a948:	1ad3      	subs	r3, r2, r3
    a94a:	2204      	movs	r2, #4
    a94c:	409a      	lsls	r2, r3
    a94e:	0013      	movs	r3, r2
    a950:	001a      	movs	r2, r3
    a952:	687b      	ldr	r3, [r7, #4]
    a954:	609a      	str	r2, [r3, #8]
    a956:	46c0      	nop			; (mov r8, r8)
    a958:	46bd      	mov	sp, r7
    a95a:	b006      	add	sp, #24
    a95c:	bd80      	pop	{r7, pc}
    a95e:	46c0      	nop			; (mov r8, r8)
    a960:	41004000 	.word	0x41004000
    a964:	00804000 	.word	0x00804000

0000a968 <system_pinmux_get_group_from_gpio_pin>:
    a968:	b580      	push	{r7, lr}
    a96a:	b084      	sub	sp, #16
    a96c:	af00      	add	r7, sp, #0
    a96e:	0002      	movs	r2, r0
    a970:	1dfb      	adds	r3, r7, #7
    a972:	701a      	strb	r2, [r3, #0]
    a974:	230f      	movs	r3, #15
    a976:	18fb      	adds	r3, r7, r3
    a978:	1dfa      	adds	r2, r7, #7
    a97a:	7812      	ldrb	r2, [r2, #0]
    a97c:	09d2      	lsrs	r2, r2, #7
    a97e:	701a      	strb	r2, [r3, #0]
    a980:	230e      	movs	r3, #14
    a982:	18fb      	adds	r3, r7, r3
    a984:	1dfa      	adds	r2, r7, #7
    a986:	7812      	ldrb	r2, [r2, #0]
    a988:	0952      	lsrs	r2, r2, #5
    a98a:	701a      	strb	r2, [r3, #0]
    a98c:	4b0d      	ldr	r3, [pc, #52]	; (a9c4 <system_pinmux_get_group_from_gpio_pin+0x5c>)
    a98e:	60bb      	str	r3, [r7, #8]
    a990:	230f      	movs	r3, #15
    a992:	18fb      	adds	r3, r7, r3
    a994:	781b      	ldrb	r3, [r3, #0]
    a996:	2b00      	cmp	r3, #0
    a998:	d10f      	bne.n	a9ba <system_pinmux_get_group_from_gpio_pin+0x52>
    a99a:	230f      	movs	r3, #15
    a99c:	18fb      	adds	r3, r7, r3
    a99e:	781b      	ldrb	r3, [r3, #0]
    a9a0:	009b      	lsls	r3, r3, #2
    a9a2:	2210      	movs	r2, #16
    a9a4:	4694      	mov	ip, r2
    a9a6:	44bc      	add	ip, r7
    a9a8:	4463      	add	r3, ip
    a9aa:	3b08      	subs	r3, #8
    a9ac:	681a      	ldr	r2, [r3, #0]
    a9ae:	230e      	movs	r3, #14
    a9b0:	18fb      	adds	r3, r7, r3
    a9b2:	781b      	ldrb	r3, [r3, #0]
    a9b4:	01db      	lsls	r3, r3, #7
    a9b6:	18d3      	adds	r3, r2, r3
    a9b8:	e000      	b.n	a9bc <system_pinmux_get_group_from_gpio_pin+0x54>
    a9ba:	2300      	movs	r3, #0
    a9bc:	0018      	movs	r0, r3
    a9be:	46bd      	mov	sp, r7
    a9c0:	b004      	add	sp, #16
    a9c2:	bd80      	pop	{r7, pc}
    a9c4:	41004400 	.word	0x41004400

0000a9c8 <port_get_group_from_gpio_pin>:
    a9c8:	b580      	push	{r7, lr}
    a9ca:	b082      	sub	sp, #8
    a9cc:	af00      	add	r7, sp, #0
    a9ce:	0002      	movs	r2, r0
    a9d0:	1dfb      	adds	r3, r7, #7
    a9d2:	701a      	strb	r2, [r3, #0]
    a9d4:	1dfb      	adds	r3, r7, #7
    a9d6:	781b      	ldrb	r3, [r3, #0]
    a9d8:	0018      	movs	r0, r3
    a9da:	4b03      	ldr	r3, [pc, #12]	; (a9e8 <port_get_group_from_gpio_pin+0x20>)
    a9dc:	4798      	blx	r3
    a9de:	0003      	movs	r3, r0
    a9e0:	0018      	movs	r0, r3
    a9e2:	46bd      	mov	sp, r7
    a9e4:	b002      	add	sp, #8
    a9e6:	bd80      	pop	{r7, pc}
    a9e8:	0000a969 	.word	0x0000a969

0000a9ec <port_get_config_defaults>:
    a9ec:	b580      	push	{r7, lr}
    a9ee:	b082      	sub	sp, #8
    a9f0:	af00      	add	r7, sp, #0
    a9f2:	6078      	str	r0, [r7, #4]
    a9f4:	687b      	ldr	r3, [r7, #4]
    a9f6:	2200      	movs	r2, #0
    a9f8:	701a      	strb	r2, [r3, #0]
    a9fa:	687b      	ldr	r3, [r7, #4]
    a9fc:	2201      	movs	r2, #1
    a9fe:	705a      	strb	r2, [r3, #1]
    aa00:	687b      	ldr	r3, [r7, #4]
    aa02:	2200      	movs	r2, #0
    aa04:	709a      	strb	r2, [r3, #2]
    aa06:	46c0      	nop			; (mov r8, r8)
    aa08:	46bd      	mov	sp, r7
    aa0a:	b002      	add	sp, #8
    aa0c:	bd80      	pop	{r7, pc}
	...

0000aa10 <port_pin_set_output_level>:
    aa10:	b580      	push	{r7, lr}
    aa12:	b084      	sub	sp, #16
    aa14:	af00      	add	r7, sp, #0
    aa16:	0002      	movs	r2, r0
    aa18:	1dfb      	adds	r3, r7, #7
    aa1a:	701a      	strb	r2, [r3, #0]
    aa1c:	1dbb      	adds	r3, r7, #6
    aa1e:	1c0a      	adds	r2, r1, #0
    aa20:	701a      	strb	r2, [r3, #0]
    aa22:	1dfb      	adds	r3, r7, #7
    aa24:	781b      	ldrb	r3, [r3, #0]
    aa26:	0018      	movs	r0, r3
    aa28:	4b0d      	ldr	r3, [pc, #52]	; (aa60 <port_pin_set_output_level+0x50>)
    aa2a:	4798      	blx	r3
    aa2c:	0003      	movs	r3, r0
    aa2e:	60fb      	str	r3, [r7, #12]
    aa30:	1dfb      	adds	r3, r7, #7
    aa32:	781b      	ldrb	r3, [r3, #0]
    aa34:	221f      	movs	r2, #31
    aa36:	4013      	ands	r3, r2
    aa38:	2201      	movs	r2, #1
    aa3a:	409a      	lsls	r2, r3
    aa3c:	0013      	movs	r3, r2
    aa3e:	60bb      	str	r3, [r7, #8]
    aa40:	1dbb      	adds	r3, r7, #6
    aa42:	781b      	ldrb	r3, [r3, #0]
    aa44:	2b00      	cmp	r3, #0
    aa46:	d003      	beq.n	aa50 <port_pin_set_output_level+0x40>
    aa48:	68fb      	ldr	r3, [r7, #12]
    aa4a:	68ba      	ldr	r2, [r7, #8]
    aa4c:	619a      	str	r2, [r3, #24]
    aa4e:	e002      	b.n	aa56 <port_pin_set_output_level+0x46>
    aa50:	68fb      	ldr	r3, [r7, #12]
    aa52:	68ba      	ldr	r2, [r7, #8]
    aa54:	615a      	str	r2, [r3, #20]
    aa56:	46c0      	nop			; (mov r8, r8)
    aa58:	46bd      	mov	sp, r7
    aa5a:	b004      	add	sp, #16
    aa5c:	bd80      	pop	{r7, pc}
    aa5e:	46c0      	nop			; (mov r8, r8)
    aa60:	0000a9c9 	.word	0x0000a9c9

0000aa64 <fnSW_Init>:
    aa64:	b580      	push	{r7, lr}
    aa66:	af00      	add	r7, sp, #0
    aa68:	4b02      	ldr	r3, [pc, #8]	; (aa74 <fnSW_Init+0x10>)
    aa6a:	4798      	blx	r3
    aa6c:	46c0      	nop			; (mov r8, r8)
    aa6e:	46bd      	mov	sp, r7
    aa70:	bd80      	pop	{r7, pc}
    aa72:	46c0      	nop			; (mov r8, r8)
    aa74:	000094e1 	.word	0x000094e1

0000aa78 <fnHW_Init>:
    aa78:	b580      	push	{r7, lr}
    aa7a:	af00      	add	r7, sp, #0
    aa7c:	4b09      	ldr	r3, [pc, #36]	; (aaa4 <fnHW_Init+0x2c>)
    aa7e:	4798      	blx	r3
    aa80:	4b09      	ldr	r3, [pc, #36]	; (aaa8 <fnHW_Init+0x30>)
    aa82:	4798      	blx	r3
    aa84:	4b09      	ldr	r3, [pc, #36]	; (aaac <fnHW_Init+0x34>)
    aa86:	4798      	blx	r3
    aa88:	4b09      	ldr	r3, [pc, #36]	; (aab0 <fnHW_Init+0x38>)
    aa8a:	4798      	blx	r3
    aa8c:	4b09      	ldr	r3, [pc, #36]	; (aab4 <fnHW_Init+0x3c>)
    aa8e:	4798      	blx	r3
    aa90:	4b09      	ldr	r3, [pc, #36]	; (aab8 <fnHW_Init+0x40>)
    aa92:	4798      	blx	r3
    aa94:	4b09      	ldr	r3, [pc, #36]	; (aabc <fnHW_Init+0x44>)
    aa96:	4798      	blx	r3
    aa98:	4b09      	ldr	r3, [pc, #36]	; (aac0 <fnHW_Init+0x48>)
    aa9a:	4798      	blx	r3
    aa9c:	46c0      	nop			; (mov r8, r8)
    aa9e:	46bd      	mov	sp, r7
    aaa0:	bd80      	pop	{r7, pc}
    aaa2:	46c0      	nop			; (mov r8, r8)
    aaa4:	0000aac5 	.word	0x0000aac5
    aaa8:	0000e9cd 	.word	0x0000e9cd
    aaac:	0000a05d 	.word	0x0000a05d
    aab0:	0000aae1 	.word	0x0000aae1
    aab4:	0000aaed 	.word	0x0000aaed
    aab8:	0000aba9 	.word	0x0000aba9
    aabc:	0000abfd 	.word	0x0000abfd
    aac0:	0000b489 	.word	0x0000b489

0000aac4 <fnHW_Config_System_Clock>:
    aac4:	b580      	push	{r7, lr}
    aac6:	af00      	add	r7, sp, #0
    aac8:	4b03      	ldr	r3, [pc, #12]	; (aad8 <fnHW_Config_System_Clock+0x14>)
    aaca:	781b      	ldrb	r3, [r3, #0]
    aacc:	0018      	movs	r0, r3
    aace:	4b03      	ldr	r3, [pc, #12]	; (aadc <fnHW_Config_System_Clock+0x18>)
    aad0:	4798      	blx	r3
    aad2:	46c0      	nop			; (mov r8, r8)
    aad4:	46bd      	mov	sp, r7
    aad6:	bd80      	pop	{r7, pc}
    aad8:	20000024 	.word	0x20000024
    aadc:	0000c199 	.word	0x0000c199

0000aae0 <fnHW_Config_Mux>:
    aae0:	b580      	push	{r7, lr}
    aae2:	af00      	add	r7, sp, #0
    aae4:	46c0      	nop			; (mov r8, r8)
    aae6:	46bd      	mov	sp, r7
    aae8:	bd80      	pop	{r7, pc}
	...

0000aaec <fnHW_Config_Pins>:
    aaec:	b580      	push	{r7, lr}
    aaee:	b082      	sub	sp, #8
    aaf0:	af00      	add	r7, sp, #0
    aaf2:	1d3b      	adds	r3, r7, #4
    aaf4:	0018      	movs	r0, r3
    aaf6:	4b28      	ldr	r3, [pc, #160]	; (ab98 <fnHW_Config_Pins+0xac>)
    aaf8:	4798      	blx	r3
    aafa:	1dfb      	adds	r3, r7, #7
    aafc:	2200      	movs	r2, #0
    aafe:	701a      	strb	r2, [r3, #0]
    ab00:	e041      	b.n	ab86 <fnHW_Config_Pins+0x9a>
    ab02:	1dfb      	adds	r3, r7, #7
    ab04:	781b      	ldrb	r3, [r3, #0]
    ab06:	4a25      	ldr	r2, [pc, #148]	; (ab9c <fnHW_Config_Pins+0xb0>)
    ab08:	009b      	lsls	r3, r3, #2
    ab0a:	18d3      	adds	r3, r2, r3
    ab0c:	3301      	adds	r3, #1
    ab0e:	781a      	ldrb	r2, [r3, #0]
    ab10:	1d3b      	adds	r3, r7, #4
    ab12:	701a      	strb	r2, [r3, #0]
    ab14:	1dfb      	adds	r3, r7, #7
    ab16:	781b      	ldrb	r3, [r3, #0]
    ab18:	4a20      	ldr	r2, [pc, #128]	; (ab9c <fnHW_Config_Pins+0xb0>)
    ab1a:	009b      	lsls	r3, r3, #2
    ab1c:	18d3      	adds	r3, r2, r3
    ab1e:	3302      	adds	r3, #2
    ab20:	781a      	ldrb	r2, [r3, #0]
    ab22:	1d3b      	adds	r3, r7, #4
    ab24:	705a      	strb	r2, [r3, #1]
    ab26:	1dfb      	adds	r3, r7, #7
    ab28:	781a      	ldrb	r2, [r3, #0]
    ab2a:	4b1c      	ldr	r3, [pc, #112]	; (ab9c <fnHW_Config_Pins+0xb0>)
    ab2c:	0092      	lsls	r2, r2, #2
    ab2e:	5cd3      	ldrb	r3, [r2, r3]
    ab30:	1d3a      	adds	r2, r7, #4
    ab32:	0011      	movs	r1, r2
    ab34:	0018      	movs	r0, r3
    ab36:	4b1a      	ldr	r3, [pc, #104]	; (aba0 <fnHW_Config_Pins+0xb4>)
    ab38:	4798      	blx	r3
    ab3a:	1dfb      	adds	r3, r7, #7
    ab3c:	781b      	ldrb	r3, [r3, #0]
    ab3e:	4a17      	ldr	r2, [pc, #92]	; (ab9c <fnHW_Config_Pins+0xb0>)
    ab40:	009b      	lsls	r3, r3, #2
    ab42:	18d3      	adds	r3, r2, r3
    ab44:	3301      	adds	r3, #1
    ab46:	781b      	ldrb	r3, [r3, #0]
    ab48:	2b02      	cmp	r3, #2
    ab4a:	d008      	beq.n	ab5e <fnHW_Config_Pins+0x72>
    ab4c:	1dfb      	adds	r3, r7, #7
    ab4e:	781b      	ldrb	r3, [r3, #0]
    ab50:	4a12      	ldr	r2, [pc, #72]	; (ab9c <fnHW_Config_Pins+0xb0>)
    ab52:	009b      	lsls	r3, r3, #2
    ab54:	18d3      	adds	r3, r2, r3
    ab56:	3301      	adds	r3, #1
    ab58:	781b      	ldrb	r3, [r3, #0]
    ab5a:	2b01      	cmp	r3, #1
    ab5c:	d10e      	bne.n	ab7c <fnHW_Config_Pins+0x90>
    ab5e:	1dfb      	adds	r3, r7, #7
    ab60:	781a      	ldrb	r2, [r3, #0]
    ab62:	4b0e      	ldr	r3, [pc, #56]	; (ab9c <fnHW_Config_Pins+0xb0>)
    ab64:	0092      	lsls	r2, r2, #2
    ab66:	5cd0      	ldrb	r0, [r2, r3]
    ab68:	1dfb      	adds	r3, r7, #7
    ab6a:	781b      	ldrb	r3, [r3, #0]
    ab6c:	4a0b      	ldr	r2, [pc, #44]	; (ab9c <fnHW_Config_Pins+0xb0>)
    ab6e:	009b      	lsls	r3, r3, #2
    ab70:	18d3      	adds	r3, r2, r3
    ab72:	3303      	adds	r3, #3
    ab74:	781b      	ldrb	r3, [r3, #0]
    ab76:	0019      	movs	r1, r3
    ab78:	4b0a      	ldr	r3, [pc, #40]	; (aba4 <fnHW_Config_Pins+0xb8>)
    ab7a:	4798      	blx	r3
    ab7c:	1dfb      	adds	r3, r7, #7
    ab7e:	781a      	ldrb	r2, [r3, #0]
    ab80:	1dfb      	adds	r3, r7, #7
    ab82:	3201      	adds	r2, #1
    ab84:	701a      	strb	r2, [r3, #0]
    ab86:	1dfb      	adds	r3, r7, #7
    ab88:	781b      	ldrb	r3, [r3, #0]
    ab8a:	2b08      	cmp	r3, #8
    ab8c:	d9b9      	bls.n	ab02 <fnHW_Config_Pins+0x16>
    ab8e:	46c0      	nop			; (mov r8, r8)
    ab90:	46bd      	mov	sp, r7
    ab92:	b002      	add	sp, #8
    ab94:	bd80      	pop	{r7, pc}
    ab96:	46c0      	nop			; (mov r8, r8)
    ab98:	0000a9ed 	.word	0x0000a9ed
    ab9c:	0001222c 	.word	0x0001222c
    aba0:	00008271 	.word	0x00008271
    aba4:	0000aa11 	.word	0x0000aa11

0000aba8 <fnHW_Config_Interrupts>:
    aba8:	b580      	push	{r7, lr}
    abaa:	b082      	sub	sp, #8
    abac:	af00      	add	r7, sp, #0
    abae:	4b11      	ldr	r3, [pc, #68]	; (abf4 <fnHW_Config_Interrupts+0x4c>)
    abb0:	2201      	movs	r2, #1
    abb2:	701a      	strb	r2, [r3, #0]
    abb4:	f3bf 8f5f 	dmb	sy
    abb8:	b662      	cpsie	i
    abba:	1dfb      	adds	r3, r7, #7
    abbc:	2200      	movs	r2, #0
    abbe:	701a      	strb	r2, [r3, #0]
    abc0:	e00b      	b.n	abda <fnHW_Config_Interrupts+0x32>
    abc2:	1dfb      	adds	r3, r7, #7
    abc4:	781b      	ldrb	r3, [r3, #0]
    abc6:	b25b      	sxtb	r3, r3
    abc8:	2102      	movs	r1, #2
    abca:	0018      	movs	r0, r3
    abcc:	4b0a      	ldr	r3, [pc, #40]	; (abf8 <fnHW_Config_Interrupts+0x50>)
    abce:	4798      	blx	r3
    abd0:	1dfb      	adds	r3, r7, #7
    abd2:	781a      	ldrb	r2, [r3, #0]
    abd4:	1dfb      	adds	r3, r7, #7
    abd6:	3201      	adds	r2, #1
    abd8:	701a      	strb	r2, [r3, #0]
    abda:	1dfb      	adds	r3, r7, #7
    abdc:	781b      	ldrb	r3, [r3, #0]
    abde:	2b1b      	cmp	r3, #27
    abe0:	d9ef      	bls.n	abc2 <fnHW_Config_Interrupts+0x1a>
    abe2:	2100      	movs	r1, #0
    abe4:	2003      	movs	r0, #3
    abe6:	4b04      	ldr	r3, [pc, #16]	; (abf8 <fnHW_Config_Interrupts+0x50>)
    abe8:	4798      	blx	r3
    abea:	46c0      	nop			; (mov r8, r8)
    abec:	46bd      	mov	sp, r7
    abee:	b002      	add	sp, #8
    abf0:	bd80      	pop	{r7, pc}
    abf2:	46c0      	nop			; (mov r8, r8)
    abf4:	20000038 	.word	0x20000038
    abf8:	0000c45d 	.word	0x0000c45d

0000abfc <fnHW_Reset>:
    abfc:	b580      	push	{r7, lr}
    abfe:	b082      	sub	sp, #8
    ac00:	af00      	add	r7, sp, #0
    ac02:	1dfb      	adds	r3, r7, #7
    ac04:	2208      	movs	r2, #8
    ac06:	701a      	strb	r2, [r3, #0]
    ac08:	e026      	b.n	ac58 <fnHW_Reset+0x5c>
    ac0a:	4b17      	ldr	r3, [pc, #92]	; (ac68 <fnHW_Reset+0x6c>)
    ac0c:	2280      	movs	r2, #128	; 0x80
    ac0e:	0152      	lsls	r2, r2, #5
    ac10:	61da      	str	r2, [r3, #28]
    ac12:	4b16      	ldr	r3, [pc, #88]	; (ac6c <fnHW_Reset+0x70>)
    ac14:	781b      	ldrb	r3, [r3, #0]
    ac16:	2b00      	cmp	r3, #0
    ac18:	d004      	beq.n	ac24 <fnHW_Reset+0x28>
    ac1a:	4b15      	ldr	r3, [pc, #84]	; (ac70 <fnHW_Reset+0x74>)
    ac1c:	0018      	movs	r0, r3
    ac1e:	4b15      	ldr	r3, [pc, #84]	; (ac74 <fnHW_Reset+0x78>)
    ac20:	4798      	blx	r3
    ac22:	e003      	b.n	ac2c <fnHW_Reset+0x30>
    ac24:	4b14      	ldr	r3, [pc, #80]	; (ac78 <fnHW_Reset+0x7c>)
    ac26:	0018      	movs	r0, r3
    ac28:	4b12      	ldr	r3, [pc, #72]	; (ac74 <fnHW_Reset+0x78>)
    ac2a:	4798      	blx	r3
    ac2c:	4b0e      	ldr	r3, [pc, #56]	; (ac68 <fnHW_Reset+0x6c>)
    ac2e:	2280      	movs	r2, #128	; 0x80
    ac30:	0152      	lsls	r2, r2, #5
    ac32:	61da      	str	r2, [r3, #28]
    ac34:	4b0d      	ldr	r3, [pc, #52]	; (ac6c <fnHW_Reset+0x70>)
    ac36:	781b      	ldrb	r3, [r3, #0]
    ac38:	2b00      	cmp	r3, #0
    ac3a:	d004      	beq.n	ac46 <fnHW_Reset+0x4a>
    ac3c:	4b0f      	ldr	r3, [pc, #60]	; (ac7c <fnHW_Reset+0x80>)
    ac3e:	0018      	movs	r0, r3
    ac40:	4b0c      	ldr	r3, [pc, #48]	; (ac74 <fnHW_Reset+0x78>)
    ac42:	4798      	blx	r3
    ac44:	e003      	b.n	ac4e <fnHW_Reset+0x52>
    ac46:	4b0e      	ldr	r3, [pc, #56]	; (ac80 <fnHW_Reset+0x84>)
    ac48:	0018      	movs	r0, r3
    ac4a:	4b0a      	ldr	r3, [pc, #40]	; (ac74 <fnHW_Reset+0x78>)
    ac4c:	4798      	blx	r3
    ac4e:	1dfb      	adds	r3, r7, #7
    ac50:	781a      	ldrb	r2, [r3, #0]
    ac52:	1dfb      	adds	r3, r7, #7
    ac54:	3a01      	subs	r2, #1
    ac56:	701a      	strb	r2, [r3, #0]
    ac58:	1dfb      	adds	r3, r7, #7
    ac5a:	781b      	ldrb	r3, [r3, #0]
    ac5c:	2b00      	cmp	r3, #0
    ac5e:	d1d4      	bne.n	ac0a <fnHW_Reset+0xe>
    ac60:	46c0      	nop			; (mov r8, r8)
    ac62:	46bd      	mov	sp, r7
    ac64:	b002      	add	sp, #8
    ac66:	bd80      	pop	{r7, pc}
    ac68:	41004400 	.word	0x41004400
    ac6c:	20000024 	.word	0x20000024
    ac70:	00001653 	.word	0x00001653
    ac74:	20000001 	.word	0x20000001
    ac78:	00010bdc 	.word	0x00010bdc
    ac7c:	000042f7 	.word	0x000042f7
    ac80:	00032393 	.word	0x00032393

0000ac84 <fnCONSOLE_USB_Is_CDC_Host_Comm_Enabled>:
    ac84:	b580      	push	{r7, lr}
    ac86:	af00      	add	r7, sp, #0
    ac88:	4b02      	ldr	r3, [pc, #8]	; (ac94 <fnCONSOLE_USB_Is_CDC_Host_Comm_Enabled+0x10>)
    ac8a:	781b      	ldrb	r3, [r3, #0]
    ac8c:	b2db      	uxtb	r3, r3
    ac8e:	0018      	movs	r0, r3
    ac90:	46bd      	mov	sp, r7
    ac92:	bd80      	pop	{r7, pc}
    ac94:	200006ba 	.word	0x200006ba

0000ac98 <fnFXOS8700CQ_CALLBACK_Measure_Done>:
    ac98:	b580      	push	{r7, lr}
    ac9a:	af00      	add	r7, sp, #0
    ac9c:	46c0      	nop			; (mov r8, r8)
    ac9e:	46bd      	mov	sp, r7
    aca0:	bd80      	pop	{r7, pc}
	...

0000aca4 <fnSENSOR_Process_Event_Mag_Data_Ready>:
    aca4:	b580      	push	{r7, lr}
    aca6:	af00      	add	r7, sp, #0
    aca8:	4b0f      	ldr	r3, [pc, #60]	; (ace8 <fnSENSOR_Process_Event_Mag_Data_Ready+0x44>)
    acaa:	78db      	ldrb	r3, [r3, #3]
    acac:	2b01      	cmp	r3, #1
    acae:	d004      	beq.n	acba <fnSENSOR_Process_Event_Mag_Data_Ready+0x16>
    acb0:	2b02      	cmp	r3, #2
    acb2:	d00c      	beq.n	acce <fnSENSOR_Process_Event_Mag_Data_Ready+0x2a>
    acb4:	2b00      	cmp	r3, #0
    acb6:	d005      	beq.n	acc4 <fnSENSOR_Process_Event_Mag_Data_Ready+0x20>
    acb8:	e010      	b.n	acdc <fnSENSOR_Process_Event_Mag_Data_Ready+0x38>
    acba:	4b0c      	ldr	r3, [pc, #48]	; (acec <fnSENSOR_Process_Event_Mag_Data_Ready+0x48>)
    acbc:	0018      	movs	r0, r3
    acbe:	4b0c      	ldr	r3, [pc, #48]	; (acf0 <fnSENSOR_Process_Event_Mag_Data_Ready+0x4c>)
    acc0:	4798      	blx	r3
    acc2:	e00c      	b.n	acde <fnSENSOR_Process_Event_Mag_Data_Ready+0x3a>
    acc4:	4b0b      	ldr	r3, [pc, #44]	; (acf4 <fnSENSOR_Process_Event_Mag_Data_Ready+0x50>)
    acc6:	0018      	movs	r0, r3
    acc8:	4b0b      	ldr	r3, [pc, #44]	; (acf8 <fnSENSOR_Process_Event_Mag_Data_Ready+0x54>)
    acca:	4798      	blx	r3
    accc:	e007      	b.n	acde <fnSENSOR_Process_Event_Mag_Data_Ready+0x3a>
    acce:	4a09      	ldr	r2, [pc, #36]	; (acf4 <fnSENSOR_Process_Event_Mag_Data_Ready+0x50>)
    acd0:	4b06      	ldr	r3, [pc, #24]	; (acec <fnSENSOR_Process_Event_Mag_Data_Ready+0x48>)
    acd2:	0011      	movs	r1, r2
    acd4:	0018      	movs	r0, r3
    acd6:	4b09      	ldr	r3, [pc, #36]	; (acfc <fnSENSOR_Process_Event_Mag_Data_Ready+0x58>)
    acd8:	4798      	blx	r3
    acda:	e000      	b.n	acde <fnSENSOR_Process_Event_Mag_Data_Ready+0x3a>
    acdc:	e7fe      	b.n	acdc <fnSENSOR_Process_Event_Mag_Data_Ready+0x38>
    acde:	4b08      	ldr	r3, [pc, #32]	; (ad00 <fnSENSOR_Process_Event_Mag_Data_Ready+0x5c>)
    ace0:	4798      	blx	r3
    ace2:	46c0      	nop			; (mov r8, r8)
    ace4:	46bd      	mov	sp, r7
    ace6:	bd80      	pop	{r7, pc}
    ace8:	20000c30 	.word	0x20000c30
    acec:	20000c34 	.word	0x20000c34
    acf0:	0000ad05 	.word	0x0000ad05
    acf4:	20000c3a 	.word	0x20000c3a
    acf8:	0000ad6d 	.word	0x0000ad6d
    acfc:	0000add5 	.word	0x0000add5
    ad00:	0000ac99 	.word	0x0000ac99

0000ad04 <fnFXOS8700CQ_Read_Accel_Raw_Data>:
    ad04:	b580      	push	{r7, lr}
    ad06:	b082      	sub	sp, #8
    ad08:	af00      	add	r7, sp, #0
    ad0a:	6078      	str	r0, [r7, #4]
    ad0c:	4b15      	ldr	r3, [pc, #84]	; (ad64 <fnFXOS8700CQ_Read_Accel_Raw_Data+0x60>)
    ad0e:	2207      	movs	r2, #7
    ad10:	0019      	movs	r1, r3
    ad12:	2000      	movs	r0, #0
    ad14:	4b14      	ldr	r3, [pc, #80]	; (ad68 <fnFXOS8700CQ_Read_Accel_Raw_Data+0x64>)
    ad16:	4798      	blx	r3
    ad18:	4b12      	ldr	r3, [pc, #72]	; (ad64 <fnFXOS8700CQ_Read_Accel_Raw_Data+0x60>)
    ad1a:	785b      	ldrb	r3, [r3, #1]
    ad1c:	021b      	lsls	r3, r3, #8
    ad1e:	b21a      	sxth	r2, r3
    ad20:	4b10      	ldr	r3, [pc, #64]	; (ad64 <fnFXOS8700CQ_Read_Accel_Raw_Data+0x60>)
    ad22:	789b      	ldrb	r3, [r3, #2]
    ad24:	b21b      	sxth	r3, r3
    ad26:	4313      	orrs	r3, r2
    ad28:	b21a      	sxth	r2, r3
    ad2a:	687b      	ldr	r3, [r7, #4]
    ad2c:	801a      	strh	r2, [r3, #0]
    ad2e:	4b0d      	ldr	r3, [pc, #52]	; (ad64 <fnFXOS8700CQ_Read_Accel_Raw_Data+0x60>)
    ad30:	78db      	ldrb	r3, [r3, #3]
    ad32:	021b      	lsls	r3, r3, #8
    ad34:	b21a      	sxth	r2, r3
    ad36:	4b0b      	ldr	r3, [pc, #44]	; (ad64 <fnFXOS8700CQ_Read_Accel_Raw_Data+0x60>)
    ad38:	791b      	ldrb	r3, [r3, #4]
    ad3a:	b21b      	sxth	r3, r3
    ad3c:	4313      	orrs	r3, r2
    ad3e:	b21a      	sxth	r2, r3
    ad40:	687b      	ldr	r3, [r7, #4]
    ad42:	805a      	strh	r2, [r3, #2]
    ad44:	4b07      	ldr	r3, [pc, #28]	; (ad64 <fnFXOS8700CQ_Read_Accel_Raw_Data+0x60>)
    ad46:	795b      	ldrb	r3, [r3, #5]
    ad48:	021b      	lsls	r3, r3, #8
    ad4a:	b21a      	sxth	r2, r3
    ad4c:	4b05      	ldr	r3, [pc, #20]	; (ad64 <fnFXOS8700CQ_Read_Accel_Raw_Data+0x60>)
    ad4e:	799b      	ldrb	r3, [r3, #6]
    ad50:	b21b      	sxth	r3, r3
    ad52:	4313      	orrs	r3, r2
    ad54:	b21a      	sxth	r2, r3
    ad56:	687b      	ldr	r3, [r7, #4]
    ad58:	809a      	strh	r2, [r3, #4]
    ad5a:	46c0      	nop			; (mov r8, r8)
    ad5c:	46bd      	mov	sp, r7
    ad5e:	b002      	add	sp, #8
    ad60:	bd80      	pop	{r7, pc}
    ad62:	46c0      	nop			; (mov r8, r8)
    ad64:	20000c18 	.word	0x20000c18
    ad68:	0000ae81 	.word	0x0000ae81

0000ad6c <fnFXOS8700CQ_Read_Mag_Raw_Data>:
    ad6c:	b580      	push	{r7, lr}
    ad6e:	b082      	sub	sp, #8
    ad70:	af00      	add	r7, sp, #0
    ad72:	6078      	str	r0, [r7, #4]
    ad74:	4b15      	ldr	r3, [pc, #84]	; (adcc <fnFXOS8700CQ_Read_Mag_Raw_Data+0x60>)
    ad76:	2207      	movs	r2, #7
    ad78:	0019      	movs	r1, r3
    ad7a:	2032      	movs	r0, #50	; 0x32
    ad7c:	4b14      	ldr	r3, [pc, #80]	; (add0 <fnFXOS8700CQ_Read_Mag_Raw_Data+0x64>)
    ad7e:	4798      	blx	r3
    ad80:	4b12      	ldr	r3, [pc, #72]	; (adcc <fnFXOS8700CQ_Read_Mag_Raw_Data+0x60>)
    ad82:	785b      	ldrb	r3, [r3, #1]
    ad84:	021b      	lsls	r3, r3, #8
    ad86:	b21a      	sxth	r2, r3
    ad88:	4b10      	ldr	r3, [pc, #64]	; (adcc <fnFXOS8700CQ_Read_Mag_Raw_Data+0x60>)
    ad8a:	789b      	ldrb	r3, [r3, #2]
    ad8c:	b21b      	sxth	r3, r3
    ad8e:	4313      	orrs	r3, r2
    ad90:	b21a      	sxth	r2, r3
    ad92:	687b      	ldr	r3, [r7, #4]
    ad94:	801a      	strh	r2, [r3, #0]
    ad96:	4b0d      	ldr	r3, [pc, #52]	; (adcc <fnFXOS8700CQ_Read_Mag_Raw_Data+0x60>)
    ad98:	78db      	ldrb	r3, [r3, #3]
    ad9a:	021b      	lsls	r3, r3, #8
    ad9c:	b21a      	sxth	r2, r3
    ad9e:	4b0b      	ldr	r3, [pc, #44]	; (adcc <fnFXOS8700CQ_Read_Mag_Raw_Data+0x60>)
    ada0:	791b      	ldrb	r3, [r3, #4]
    ada2:	b21b      	sxth	r3, r3
    ada4:	4313      	orrs	r3, r2
    ada6:	b21a      	sxth	r2, r3
    ada8:	687b      	ldr	r3, [r7, #4]
    adaa:	805a      	strh	r2, [r3, #2]
    adac:	4b07      	ldr	r3, [pc, #28]	; (adcc <fnFXOS8700CQ_Read_Mag_Raw_Data+0x60>)
    adae:	795b      	ldrb	r3, [r3, #5]
    adb0:	021b      	lsls	r3, r3, #8
    adb2:	b21a      	sxth	r2, r3
    adb4:	4b05      	ldr	r3, [pc, #20]	; (adcc <fnFXOS8700CQ_Read_Mag_Raw_Data+0x60>)
    adb6:	799b      	ldrb	r3, [r3, #6]
    adb8:	b21b      	sxth	r3, r3
    adba:	4313      	orrs	r3, r2
    adbc:	b21a      	sxth	r2, r3
    adbe:	687b      	ldr	r3, [r7, #4]
    adc0:	809a      	strh	r2, [r3, #4]
    adc2:	46c0      	nop			; (mov r8, r8)
    adc4:	46bd      	mov	sp, r7
    adc6:	b002      	add	sp, #8
    adc8:	bd80      	pop	{r7, pc}
    adca:	46c0      	nop			; (mov r8, r8)
    adcc:	20000c18 	.word	0x20000c18
    add0:	0000ae81 	.word	0x0000ae81

0000add4 <fnFXOS8700CQ_Read_Accel_Mag_Raw_Data>:
    add4:	b580      	push	{r7, lr}
    add6:	b082      	sub	sp, #8
    add8:	af00      	add	r7, sp, #0
    adda:	6078      	str	r0, [r7, #4]
    addc:	6039      	str	r1, [r7, #0]
    adde:	4b26      	ldr	r3, [pc, #152]	; (ae78 <fnFXOS8700CQ_Read_Accel_Mag_Raw_Data+0xa4>)
    ade0:	220d      	movs	r2, #13
    ade2:	0019      	movs	r1, r3
    ade4:	2000      	movs	r0, #0
    ade6:	4b25      	ldr	r3, [pc, #148]	; (ae7c <fnFXOS8700CQ_Read_Accel_Mag_Raw_Data+0xa8>)
    ade8:	4798      	blx	r3
    adea:	4b23      	ldr	r3, [pc, #140]	; (ae78 <fnFXOS8700CQ_Read_Accel_Mag_Raw_Data+0xa4>)
    adec:	785b      	ldrb	r3, [r3, #1]
    adee:	021b      	lsls	r3, r3, #8
    adf0:	b21a      	sxth	r2, r3
    adf2:	4b21      	ldr	r3, [pc, #132]	; (ae78 <fnFXOS8700CQ_Read_Accel_Mag_Raw_Data+0xa4>)
    adf4:	789b      	ldrb	r3, [r3, #2]
    adf6:	b21b      	sxth	r3, r3
    adf8:	4313      	orrs	r3, r2
    adfa:	b21a      	sxth	r2, r3
    adfc:	687b      	ldr	r3, [r7, #4]
    adfe:	801a      	strh	r2, [r3, #0]
    ae00:	4b1d      	ldr	r3, [pc, #116]	; (ae78 <fnFXOS8700CQ_Read_Accel_Mag_Raw_Data+0xa4>)
    ae02:	78db      	ldrb	r3, [r3, #3]
    ae04:	021b      	lsls	r3, r3, #8
    ae06:	b21a      	sxth	r2, r3
    ae08:	4b1b      	ldr	r3, [pc, #108]	; (ae78 <fnFXOS8700CQ_Read_Accel_Mag_Raw_Data+0xa4>)
    ae0a:	791b      	ldrb	r3, [r3, #4]
    ae0c:	b21b      	sxth	r3, r3
    ae0e:	4313      	orrs	r3, r2
    ae10:	b21a      	sxth	r2, r3
    ae12:	687b      	ldr	r3, [r7, #4]
    ae14:	805a      	strh	r2, [r3, #2]
    ae16:	4b18      	ldr	r3, [pc, #96]	; (ae78 <fnFXOS8700CQ_Read_Accel_Mag_Raw_Data+0xa4>)
    ae18:	795b      	ldrb	r3, [r3, #5]
    ae1a:	021b      	lsls	r3, r3, #8
    ae1c:	b21a      	sxth	r2, r3
    ae1e:	4b16      	ldr	r3, [pc, #88]	; (ae78 <fnFXOS8700CQ_Read_Accel_Mag_Raw_Data+0xa4>)
    ae20:	799b      	ldrb	r3, [r3, #6]
    ae22:	b21b      	sxth	r3, r3
    ae24:	4313      	orrs	r3, r2
    ae26:	b21a      	sxth	r2, r3
    ae28:	687b      	ldr	r3, [r7, #4]
    ae2a:	809a      	strh	r2, [r3, #4]
    ae2c:	4b12      	ldr	r3, [pc, #72]	; (ae78 <fnFXOS8700CQ_Read_Accel_Mag_Raw_Data+0xa4>)
    ae2e:	79db      	ldrb	r3, [r3, #7]
    ae30:	021b      	lsls	r3, r3, #8
    ae32:	b21a      	sxth	r2, r3
    ae34:	4b10      	ldr	r3, [pc, #64]	; (ae78 <fnFXOS8700CQ_Read_Accel_Mag_Raw_Data+0xa4>)
    ae36:	7a1b      	ldrb	r3, [r3, #8]
    ae38:	b21b      	sxth	r3, r3
    ae3a:	4313      	orrs	r3, r2
    ae3c:	b21a      	sxth	r2, r3
    ae3e:	683b      	ldr	r3, [r7, #0]
    ae40:	801a      	strh	r2, [r3, #0]
    ae42:	4b0d      	ldr	r3, [pc, #52]	; (ae78 <fnFXOS8700CQ_Read_Accel_Mag_Raw_Data+0xa4>)
    ae44:	7a5b      	ldrb	r3, [r3, #9]
    ae46:	021b      	lsls	r3, r3, #8
    ae48:	b21a      	sxth	r2, r3
    ae4a:	4b0b      	ldr	r3, [pc, #44]	; (ae78 <fnFXOS8700CQ_Read_Accel_Mag_Raw_Data+0xa4>)
    ae4c:	7a9b      	ldrb	r3, [r3, #10]
    ae4e:	b21b      	sxth	r3, r3
    ae50:	4313      	orrs	r3, r2
    ae52:	b21a      	sxth	r2, r3
    ae54:	683b      	ldr	r3, [r7, #0]
    ae56:	805a      	strh	r2, [r3, #2]
    ae58:	4b07      	ldr	r3, [pc, #28]	; (ae78 <fnFXOS8700CQ_Read_Accel_Mag_Raw_Data+0xa4>)
    ae5a:	7adb      	ldrb	r3, [r3, #11]
    ae5c:	021b      	lsls	r3, r3, #8
    ae5e:	b21a      	sxth	r2, r3
    ae60:	4b05      	ldr	r3, [pc, #20]	; (ae78 <fnFXOS8700CQ_Read_Accel_Mag_Raw_Data+0xa4>)
    ae62:	7b1b      	ldrb	r3, [r3, #12]
    ae64:	b21b      	sxth	r3, r3
    ae66:	4313      	orrs	r3, r2
    ae68:	b21a      	sxth	r2, r3
    ae6a:	683b      	ldr	r3, [r7, #0]
    ae6c:	809a      	strh	r2, [r3, #4]
    ae6e:	46c0      	nop			; (mov r8, r8)
    ae70:	46bd      	mov	sp, r7
    ae72:	b002      	add	sp, #8
    ae74:	bd80      	pop	{r7, pc}
    ae76:	46c0      	nop			; (mov r8, r8)
    ae78:	20000c18 	.word	0x20000c18
    ae7c:	0000ae81 	.word	0x0000ae81

0000ae80 <fnFXOS8700CQ_Read_Register_Array>:
    ae80:	b580      	push	{r7, lr}
    ae82:	b082      	sub	sp, #8
    ae84:	af00      	add	r7, sp, #0
    ae86:	6039      	str	r1, [r7, #0]
    ae88:	0011      	movs	r1, r2
    ae8a:	1dfb      	adds	r3, r7, #7
    ae8c:	1c02      	adds	r2, r0, #0
    ae8e:	701a      	strb	r2, [r3, #0]
    ae90:	1dbb      	adds	r3, r7, #6
    ae92:	1c0a      	adds	r2, r1, #0
    ae94:	701a      	strb	r2, [r3, #0]
    ae96:	1dbb      	adds	r3, r7, #6
    ae98:	781a      	ldrb	r2, [r3, #0]
    ae9a:	6839      	ldr	r1, [r7, #0]
    ae9c:	1dfb      	adds	r3, r7, #7
    ae9e:	781b      	ldrb	r3, [r3, #0]
    aea0:	0018      	movs	r0, r3
    aea2:	4b03      	ldr	r3, [pc, #12]	; (aeb0 <fnFXOS8700CQ_Read_Register_Array+0x30>)
    aea4:	4798      	blx	r3
    aea6:	46c0      	nop			; (mov r8, r8)
    aea8:	46bd      	mov	sp, r7
    aeaa:	b002      	add	sp, #8
    aeac:	bd80      	pop	{r7, pc}
    aeae:	46c0      	nop			; (mov r8, r8)
    aeb0:	0000bae9 	.word	0x0000bae9

0000aeb4 <i2c_master_is_syncing>:
    aeb4:	b580      	push	{r7, lr}
    aeb6:	b084      	sub	sp, #16
    aeb8:	af00      	add	r7, sp, #0
    aeba:	6078      	str	r0, [r7, #4]
    aebc:	687b      	ldr	r3, [r7, #4]
    aebe:	681b      	ldr	r3, [r3, #0]
    aec0:	60fb      	str	r3, [r7, #12]
    aec2:	68fb      	ldr	r3, [r7, #12]
    aec4:	69db      	ldr	r3, [r3, #28]
    aec6:	2207      	movs	r2, #7
    aec8:	4013      	ands	r3, r2
    aeca:	1e5a      	subs	r2, r3, #1
    aecc:	4193      	sbcs	r3, r2
    aece:	b2db      	uxtb	r3, r3
    aed0:	0018      	movs	r0, r3
    aed2:	46bd      	mov	sp, r7
    aed4:	b004      	add	sp, #16
    aed6:	bd80      	pop	{r7, pc}

0000aed8 <_i2c_master_wait_for_sync>:
    aed8:	b580      	push	{r7, lr}
    aeda:	b082      	sub	sp, #8
    aedc:	af00      	add	r7, sp, #0
    aede:	6078      	str	r0, [r7, #4]
    aee0:	46c0      	nop			; (mov r8, r8)
    aee2:	687b      	ldr	r3, [r7, #4]
    aee4:	0018      	movs	r0, r3
    aee6:	4b04      	ldr	r3, [pc, #16]	; (aef8 <_i2c_master_wait_for_sync+0x20>)
    aee8:	4798      	blx	r3
    aeea:	1e03      	subs	r3, r0, #0
    aeec:	d1f9      	bne.n	aee2 <_i2c_master_wait_for_sync+0xa>
    aeee:	46c0      	nop			; (mov r8, r8)
    aef0:	46bd      	mov	sp, r7
    aef2:	b002      	add	sp, #8
    aef4:	bd80      	pop	{r7, pc}
    aef6:	46c0      	nop			; (mov r8, r8)
    aef8:	0000aeb5 	.word	0x0000aeb5

0000aefc <i2c_master_get_config_defaults>:
    aefc:	b580      	push	{r7, lr}
    aefe:	b082      	sub	sp, #8
    af00:	af00      	add	r7, sp, #0
    af02:	6078      	str	r0, [r7, #4]
    af04:	687b      	ldr	r3, [r7, #4]
    af06:	2264      	movs	r2, #100	; 0x64
    af08:	601a      	str	r2, [r3, #0]
    af0a:	687b      	ldr	r3, [r7, #4]
    af0c:	4a1b      	ldr	r2, [pc, #108]	; (af7c <i2c_master_get_config_defaults+0x80>)
    af0e:	605a      	str	r2, [r3, #4]
    af10:	687b      	ldr	r3, [r7, #4]
    af12:	2200      	movs	r2, #0
    af14:	609a      	str	r2, [r3, #8]
    af16:	687b      	ldr	r3, [r7, #4]
    af18:	2200      	movs	r2, #0
    af1a:	731a      	strb	r2, [r3, #12]
    af1c:	687b      	ldr	r3, [r7, #4]
    af1e:	2200      	movs	r2, #0
    af20:	761a      	strb	r2, [r3, #24]
    af22:	687b      	ldr	r3, [r7, #4]
    af24:	2280      	movs	r2, #128	; 0x80
    af26:	0392      	lsls	r2, r2, #14
    af28:	611a      	str	r2, [r3, #16]
    af2a:	687b      	ldr	r3, [r7, #4]
    af2c:	2201      	movs	r2, #1
    af2e:	4252      	negs	r2, r2
    af30:	82da      	strh	r2, [r3, #22]
    af32:	687b      	ldr	r3, [r7, #4]
    af34:	2201      	movs	r2, #1
    af36:	4252      	negs	r2, r2
    af38:	829a      	strh	r2, [r3, #20]
    af3a:	687b      	ldr	r3, [r7, #4]
    af3c:	2200      	movs	r2, #0
    af3e:	61da      	str	r2, [r3, #28]
    af40:	687b      	ldr	r3, [r7, #4]
    af42:	2200      	movs	r2, #0
    af44:	621a      	str	r2, [r3, #32]
    af46:	687b      	ldr	r3, [r7, #4]
    af48:	2224      	movs	r2, #36	; 0x24
    af4a:	2100      	movs	r1, #0
    af4c:	5499      	strb	r1, [r3, r2]
    af4e:	687b      	ldr	r3, [r7, #4]
    af50:	2200      	movs	r2, #0
    af52:	629a      	str	r2, [r3, #40]	; 0x28
    af54:	687b      	ldr	r3, [r7, #4]
    af56:	222c      	movs	r2, #44	; 0x2c
    af58:	2100      	movs	r1, #0
    af5a:	5499      	strb	r1, [r3, r2]
    af5c:	687b      	ldr	r3, [r7, #4]
    af5e:	222d      	movs	r2, #45	; 0x2d
    af60:	2100      	movs	r1, #0
    af62:	5499      	strb	r1, [r3, r2]
    af64:	687b      	ldr	r3, [r7, #4]
    af66:	222e      	movs	r2, #46	; 0x2e
    af68:	2100      	movs	r1, #0
    af6a:	5499      	strb	r1, [r3, r2]
    af6c:	687b      	ldr	r3, [r7, #4]
    af6e:	22d7      	movs	r2, #215	; 0xd7
    af70:	861a      	strh	r2, [r3, #48]	; 0x30
    af72:	46c0      	nop			; (mov r8, r8)
    af74:	46bd      	mov	sp, r7
    af76:	b002      	add	sp, #8
    af78:	bd80      	pop	{r7, pc}
    af7a:	46c0      	nop			; (mov r8, r8)
    af7c:	00000d48 	.word	0x00000d48

0000af80 <i2c_master_enable>:
    af80:	b580      	push	{r7, lr}
    af82:	b084      	sub	sp, #16
    af84:	af00      	add	r7, sp, #0
    af86:	6078      	str	r0, [r7, #4]
    af88:	687b      	ldr	r3, [r7, #4]
    af8a:	681b      	ldr	r3, [r3, #0]
    af8c:	60bb      	str	r3, [r7, #8]
    af8e:	2300      	movs	r3, #0
    af90:	60fb      	str	r3, [r7, #12]
    af92:	687b      	ldr	r3, [r7, #4]
    af94:	0018      	movs	r0, r3
    af96:	4b10      	ldr	r3, [pc, #64]	; (afd8 <i2c_master_enable+0x58>)
    af98:	4798      	blx	r3
    af9a:	68bb      	ldr	r3, [r7, #8]
    af9c:	681b      	ldr	r3, [r3, #0]
    af9e:	2202      	movs	r2, #2
    afa0:	431a      	orrs	r2, r3
    afa2:	68bb      	ldr	r3, [r7, #8]
    afa4:	601a      	str	r2, [r3, #0]
    afa6:	e00c      	b.n	afc2 <i2c_master_enable+0x42>
    afa8:	68fb      	ldr	r3, [r7, #12]
    afaa:	3301      	adds	r3, #1
    afac:	60fb      	str	r3, [r7, #12]
    afae:	687b      	ldr	r3, [r7, #4]
    afb0:	88db      	ldrh	r3, [r3, #6]
    afb2:	001a      	movs	r2, r3
    afb4:	68fb      	ldr	r3, [r7, #12]
    afb6:	429a      	cmp	r2, r3
    afb8:	d803      	bhi.n	afc2 <i2c_master_enable+0x42>
    afba:	68bb      	ldr	r3, [r7, #8]
    afbc:	2210      	movs	r2, #16
    afbe:	835a      	strh	r2, [r3, #26]
    afc0:	e006      	b.n	afd0 <i2c_master_enable+0x50>
    afc2:	68bb      	ldr	r3, [r7, #8]
    afc4:	8b5b      	ldrh	r3, [r3, #26]
    afc6:	b29b      	uxth	r3, r3
    afc8:	001a      	movs	r2, r3
    afca:	2310      	movs	r3, #16
    afcc:	4013      	ands	r3, r2
    afce:	d0eb      	beq.n	afa8 <i2c_master_enable+0x28>
    afd0:	46bd      	mov	sp, r7
    afd2:	b004      	add	sp, #16
    afd4:	bd80      	pop	{r7, pc}
    afd6:	46c0      	nop			; (mov r8, r8)
    afd8:	0000aed9 	.word	0x0000aed9

0000afdc <i2c_master_disable>:
    afdc:	b580      	push	{r7, lr}
    afde:	b084      	sub	sp, #16
    afe0:	af00      	add	r7, sp, #0
    afe2:	6078      	str	r0, [r7, #4]
    afe4:	687b      	ldr	r3, [r7, #4]
    afe6:	681b      	ldr	r3, [r3, #0]
    afe8:	60fb      	str	r3, [r7, #12]
    afea:	687b      	ldr	r3, [r7, #4]
    afec:	0018      	movs	r0, r3
    afee:	4b09      	ldr	r3, [pc, #36]	; (b014 <i2c_master_disable+0x38>)
    aff0:	4798      	blx	r3
    aff2:	68fb      	ldr	r3, [r7, #12]
    aff4:	2283      	movs	r2, #131	; 0x83
    aff6:	751a      	strb	r2, [r3, #20]
    aff8:	68fb      	ldr	r3, [r7, #12]
    affa:	2283      	movs	r2, #131	; 0x83
    affc:	761a      	strb	r2, [r3, #24]
    affe:	68fb      	ldr	r3, [r7, #12]
    b000:	681b      	ldr	r3, [r3, #0]
    b002:	2202      	movs	r2, #2
    b004:	4393      	bics	r3, r2
    b006:	001a      	movs	r2, r3
    b008:	68fb      	ldr	r3, [r7, #12]
    b00a:	601a      	str	r2, [r3, #0]
    b00c:	46c0      	nop			; (mov r8, r8)
    b00e:	46bd      	mov	sp, r7
    b010:	b004      	add	sp, #16
    b012:	bd80      	pop	{r7, pc}
    b014:	0000aed9 	.word	0x0000aed9

0000b018 <fnI2C_Init>:
    b018:	b580      	push	{r7, lr}
    b01a:	b090      	sub	sp, #64	; 0x40
    b01c:	af00      	add	r7, sp, #0
    b01e:	0002      	movs	r2, r0
    b020:	1dbb      	adds	r3, r7, #6
    b022:	801a      	strh	r2, [r3, #0]
    b024:	1d7b      	adds	r3, r7, #5
    b026:	1c0a      	adds	r2, r1, #0
    b028:	701a      	strb	r2, [r3, #0]
    b02a:	230c      	movs	r3, #12
    b02c:	18fb      	adds	r3, r7, r3
    b02e:	0018      	movs	r0, r3
    b030:	4b1e      	ldr	r3, [pc, #120]	; (b0ac <fnI2C_Init+0x94>)
    b032:	4798      	blx	r3
    b034:	230c      	movs	r3, #12
    b036:	18fb      	adds	r3, r7, r3
    b038:	2200      	movs	r2, #0
    b03a:	731a      	strb	r2, [r3, #12]
    b03c:	1dbb      	adds	r3, r7, #6
    b03e:	881a      	ldrh	r2, [r3, #0]
    b040:	230c      	movs	r3, #12
    b042:	18fb      	adds	r3, r7, r3
    b044:	601a      	str	r2, [r3, #0]
    b046:	230c      	movs	r3, #12
    b048:	18fb      	adds	r3, r7, r3
    b04a:	2264      	movs	r2, #100	; 0x64
    b04c:	82da      	strh	r2, [r3, #22]
    b04e:	230c      	movs	r3, #12
    b050:	18fb      	adds	r3, r7, r3
    b052:	2264      	movs	r2, #100	; 0x64
    b054:	829a      	strh	r2, [r3, #20]
    b056:	230c      	movs	r3, #12
    b058:	18fb      	adds	r3, r7, r3
    b05a:	4a15      	ldr	r2, [pc, #84]	; (b0b0 <fnI2C_Init+0x98>)
    b05c:	61da      	str	r2, [r3, #28]
    b05e:	230c      	movs	r3, #12
    b060:	18fb      	adds	r3, r7, r3
    b062:	4a14      	ldr	r2, [pc, #80]	; (b0b4 <fnI2C_Init+0x9c>)
    b064:	621a      	str	r2, [r3, #32]
    b066:	4b14      	ldr	r3, [pc, #80]	; (b0b8 <fnI2C_Init+0xa0>)
    b068:	2200      	movs	r2, #0
    b06a:	701a      	strb	r2, [r3, #0]
    b06c:	1d7b      	adds	r3, r7, #5
    b06e:	781b      	ldrb	r3, [r3, #0]
    b070:	2b00      	cmp	r3, #0
    b072:	d007      	beq.n	b084 <fnI2C_Init+0x6c>
    b074:	4b10      	ldr	r3, [pc, #64]	; (b0b8 <fnI2C_Init+0xa0>)
    b076:	2201      	movs	r2, #1
    b078:	701a      	strb	r2, [r3, #0]
    b07a:	230c      	movs	r3, #12
    b07c:	18fb      	adds	r3, r7, r3
    b07e:	222c      	movs	r2, #44	; 0x2c
    b080:	2101      	movs	r1, #1
    b082:	5499      	strb	r1, [r3, r2]
    b084:	4b0d      	ldr	r3, [pc, #52]	; (b0bc <fnI2C_Init+0xa4>)
    b086:	4798      	blx	r3
    b088:	1e03      	subs	r3, r0, #0
    b08a:	d00a      	beq.n	b0a2 <fnI2C_Init+0x8a>
    b08c:	230c      	movs	r3, #12
    b08e:	18fa      	adds	r2, r7, r3
    b090:	490b      	ldr	r1, [pc, #44]	; (b0c0 <fnI2C_Init+0xa8>)
    b092:	4b0c      	ldr	r3, [pc, #48]	; (b0c4 <fnI2C_Init+0xac>)
    b094:	0018      	movs	r0, r3
    b096:	4b0c      	ldr	r3, [pc, #48]	; (b0c8 <fnI2C_Init+0xb0>)
    b098:	4798      	blx	r3
    b09a:	4b0a      	ldr	r3, [pc, #40]	; (b0c4 <fnI2C_Init+0xac>)
    b09c:	0018      	movs	r0, r3
    b09e:	4b0b      	ldr	r3, [pc, #44]	; (b0cc <fnI2C_Init+0xb4>)
    b0a0:	4798      	blx	r3
    b0a2:	2300      	movs	r3, #0
    b0a4:	0018      	movs	r0, r3
    b0a6:	46bd      	mov	sp, r7
    b0a8:	b010      	add	sp, #64	; 0x40
    b0aa:	bd80      	pop	{r7, pc}
    b0ac:	0000aefd 	.word	0x0000aefd
    b0b0:	00100002 	.word	0x00100002
    b0b4:	00110002 	.word	0x00110002
    b0b8:	20000c40 	.word	0x20000c40
    b0bc:	000097c5 	.word	0x000097c5
    b0c0:	42000c00 	.word	0x42000c00
    b0c4:	20000c44 	.word	0x20000c44
    b0c8:	0000df85 	.word	0x0000df85
    b0cc:	0000afdd 	.word	0x0000afdd

0000b0d0 <fnI2C_1_Reset>:
    b0d0:	b580      	push	{r7, lr}
    b0d2:	af00      	add	r7, sp, #0
    b0d4:	4b03      	ldr	r3, [pc, #12]	; (b0e4 <fnI2C_1_Reset+0x14>)
    b0d6:	0018      	movs	r0, r3
    b0d8:	4b03      	ldr	r3, [pc, #12]	; (b0e8 <fnI2C_1_Reset+0x18>)
    b0da:	4798      	blx	r3
    b0dc:	46c0      	nop			; (mov r8, r8)
    b0de:	46bd      	mov	sp, r7
    b0e0:	bd80      	pop	{r7, pc}
    b0e2:	46c0      	nop			; (mov r8, r8)
    b0e4:	20000c44 	.word	0x20000c44
    b0e8:	0000e055 	.word	0x0000e055

0000b0ec <fnI2C_1_Enable>:
    b0ec:	b580      	push	{r7, lr}
    b0ee:	af00      	add	r7, sp, #0
    b0f0:	4b03      	ldr	r3, [pc, #12]	; (b100 <fnI2C_1_Enable+0x14>)
    b0f2:	0018      	movs	r0, r3
    b0f4:	4b03      	ldr	r3, [pc, #12]	; (b104 <fnI2C_1_Enable+0x18>)
    b0f6:	4798      	blx	r3
    b0f8:	46c0      	nop			; (mov r8, r8)
    b0fa:	46bd      	mov	sp, r7
    b0fc:	bd80      	pop	{r7, pc}
    b0fe:	46c0      	nop			; (mov r8, r8)
    b100:	20000c44 	.word	0x20000c44
    b104:	0000af81 	.word	0x0000af81

0000b108 <fnI2C_1_Disable>:
    b108:	b580      	push	{r7, lr}
    b10a:	af00      	add	r7, sp, #0
    b10c:	4b03      	ldr	r3, [pc, #12]	; (b11c <fnI2C_1_Disable+0x14>)
    b10e:	0018      	movs	r0, r3
    b110:	4b03      	ldr	r3, [pc, #12]	; (b120 <fnI2C_1_Disable+0x18>)
    b112:	4798      	blx	r3
    b114:	46c0      	nop			; (mov r8, r8)
    b116:	46bd      	mov	sp, r7
    b118:	bd80      	pop	{r7, pc}
    b11a:	46c0      	nop			; (mov r8, r8)
    b11c:	20000c44 	.word	0x20000c44
    b120:	0000afdd 	.word	0x0000afdd

0000b124 <fnI2C_Is_Clock_Strech>:
    b124:	b580      	push	{r7, lr}
    b126:	af00      	add	r7, sp, #0
    b128:	4b02      	ldr	r3, [pc, #8]	; (b134 <fnI2C_Is_Clock_Strech+0x10>)
    b12a:	781b      	ldrb	r3, [r3, #0]
    b12c:	0018      	movs	r0, r3
    b12e:	46bd      	mov	sp, r7
    b130:	bd80      	pop	{r7, pc}
    b132:	46c0      	nop			; (mov r8, r8)
    b134:	20000c40 	.word	0x20000c40

0000b138 <fnI2C_1_Write>:
    b138:	b590      	push	{r4, r7, lr}
    b13a:	b085      	sub	sp, #20
    b13c:	af00      	add	r7, sp, #0
    b13e:	0004      	movs	r4, r0
    b140:	6039      	str	r1, [r7, #0]
    b142:	0010      	movs	r0, r2
    b144:	0019      	movs	r1, r3
    b146:	1dfb      	adds	r3, r7, #7
    b148:	1c22      	adds	r2, r4, #0
    b14a:	701a      	strb	r2, [r3, #0]
    b14c:	1dbb      	adds	r3, r7, #6
    b14e:	1c02      	adds	r2, r0, #0
    b150:	701a      	strb	r2, [r3, #0]
    b152:	1d7b      	adds	r3, r7, #5
    b154:	1c0a      	adds	r2, r1, #0
    b156:	701a      	strb	r2, [r3, #0]
    b158:	1dfb      	adds	r3, r7, #7
    b15a:	781b      	ldrb	r3, [r3, #0]
    b15c:	b29a      	uxth	r2, r3
    b15e:	4b28      	ldr	r3, [pc, #160]	; (b200 <fnI2C_1_Write+0xc8>)
    b160:	801a      	strh	r2, [r3, #0]
    b162:	1dbb      	adds	r3, r7, #6
    b164:	781b      	ldrb	r3, [r3, #0]
    b166:	b29a      	uxth	r2, r3
    b168:	4b25      	ldr	r3, [pc, #148]	; (b200 <fnI2C_1_Write+0xc8>)
    b16a:	805a      	strh	r2, [r3, #2]
    b16c:	4b24      	ldr	r3, [pc, #144]	; (b200 <fnI2C_1_Write+0xc8>)
    b16e:	683a      	ldr	r2, [r7, #0]
    b170:	605a      	str	r2, [r3, #4]
    b172:	230c      	movs	r3, #12
    b174:	18fb      	adds	r3, r7, r3
    b176:	2200      	movs	r2, #0
    b178:	801a      	strh	r2, [r3, #0]
    b17a:	1d7b      	adds	r3, r7, #5
    b17c:	781b      	ldrb	r3, [r3, #0]
    b17e:	2b00      	cmp	r3, #0
    b180:	d01b      	beq.n	b1ba <fnI2C_1_Write+0x82>
    b182:	230f      	movs	r3, #15
    b184:	18fc      	adds	r4, r7, r3
    b186:	4a1e      	ldr	r2, [pc, #120]	; (b200 <fnI2C_1_Write+0xc8>)
    b188:	4b1e      	ldr	r3, [pc, #120]	; (b204 <fnI2C_1_Write+0xcc>)
    b18a:	0011      	movs	r1, r2
    b18c:	0018      	movs	r0, r3
    b18e:	4b1e      	ldr	r3, [pc, #120]	; (b208 <fnI2C_1_Write+0xd0>)
    b190:	4798      	blx	r3
    b192:	0003      	movs	r3, r0
    b194:	7023      	strb	r3, [r4, #0]
    b196:	230f      	movs	r3, #15
    b198:	18fb      	adds	r3, r7, r3
    b19a:	781b      	ldrb	r3, [r3, #0]
    b19c:	2b00      	cmp	r3, #0
    b19e:	d027      	beq.n	b1f0 <fnI2C_1_Write+0xb8>
    b1a0:	230c      	movs	r3, #12
    b1a2:	18fb      	adds	r3, r7, r3
    b1a4:	220c      	movs	r2, #12
    b1a6:	18ba      	adds	r2, r7, r2
    b1a8:	8812      	ldrh	r2, [r2, #0]
    b1aa:	3201      	adds	r2, #1
    b1ac:	801a      	strh	r2, [r3, #0]
    b1ae:	230c      	movs	r3, #12
    b1b0:	18fb      	adds	r3, r7, r3
    b1b2:	881b      	ldrh	r3, [r3, #0]
    b1b4:	2b09      	cmp	r3, #9
    b1b6:	d9e4      	bls.n	b182 <fnI2C_1_Write+0x4a>
    b1b8:	e01a      	b.n	b1f0 <fnI2C_1_Write+0xb8>
    b1ba:	230f      	movs	r3, #15
    b1bc:	18fc      	adds	r4, r7, r3
    b1be:	4a10      	ldr	r2, [pc, #64]	; (b200 <fnI2C_1_Write+0xc8>)
    b1c0:	4b10      	ldr	r3, [pc, #64]	; (b204 <fnI2C_1_Write+0xcc>)
    b1c2:	0011      	movs	r1, r2
    b1c4:	0018      	movs	r0, r3
    b1c6:	4b11      	ldr	r3, [pc, #68]	; (b20c <fnI2C_1_Write+0xd4>)
    b1c8:	4798      	blx	r3
    b1ca:	0003      	movs	r3, r0
    b1cc:	7023      	strb	r3, [r4, #0]
    b1ce:	230f      	movs	r3, #15
    b1d0:	18fb      	adds	r3, r7, r3
    b1d2:	781b      	ldrb	r3, [r3, #0]
    b1d4:	2b00      	cmp	r3, #0
    b1d6:	d00b      	beq.n	b1f0 <fnI2C_1_Write+0xb8>
    b1d8:	230c      	movs	r3, #12
    b1da:	18fb      	adds	r3, r7, r3
    b1dc:	220c      	movs	r2, #12
    b1de:	18ba      	adds	r2, r7, r2
    b1e0:	8812      	ldrh	r2, [r2, #0]
    b1e2:	3201      	adds	r2, #1
    b1e4:	801a      	strh	r2, [r3, #0]
    b1e6:	230c      	movs	r3, #12
    b1e8:	18fb      	adds	r3, r7, r3
    b1ea:	881b      	ldrh	r3, [r3, #0]
    b1ec:	2b09      	cmp	r3, #9
    b1ee:	d9e4      	bls.n	b1ba <fnI2C_1_Write+0x82>
    b1f0:	230f      	movs	r3, #15
    b1f2:	18fb      	adds	r3, r7, r3
    b1f4:	781b      	ldrb	r3, [r3, #0]
    b1f6:	0018      	movs	r0, r3
    b1f8:	46bd      	mov	sp, r7
    b1fa:	b005      	add	sp, #20
    b1fc:	bd90      	pop	{r4, r7, pc}
    b1fe:	46c0      	nop			; (mov r8, r8)
    b200:	2000008c 	.word	0x2000008c
    b204:	20000c44 	.word	0x20000c44
    b208:	0000e5ed 	.word	0x0000e5ed
    b20c:	0000e61d 	.word	0x0000e61d

0000b210 <fnI2C_1_Read>:
    b210:	b590      	push	{r4, r7, lr}
    b212:	b085      	sub	sp, #20
    b214:	af00      	add	r7, sp, #0
    b216:	0004      	movs	r4, r0
    b218:	6039      	str	r1, [r7, #0]
    b21a:	0010      	movs	r0, r2
    b21c:	0019      	movs	r1, r3
    b21e:	1dfb      	adds	r3, r7, #7
    b220:	1c22      	adds	r2, r4, #0
    b222:	701a      	strb	r2, [r3, #0]
    b224:	1dbb      	adds	r3, r7, #6
    b226:	1c02      	adds	r2, r0, #0
    b228:	701a      	strb	r2, [r3, #0]
    b22a:	1d7b      	adds	r3, r7, #5
    b22c:	1c0a      	adds	r2, r1, #0
    b22e:	701a      	strb	r2, [r3, #0]
    b230:	1dfb      	adds	r3, r7, #7
    b232:	781b      	ldrb	r3, [r3, #0]
    b234:	b29a      	uxth	r2, r3
    b236:	4b28      	ldr	r3, [pc, #160]	; (b2d8 <fnI2C_1_Read+0xc8>)
    b238:	801a      	strh	r2, [r3, #0]
    b23a:	1dbb      	adds	r3, r7, #6
    b23c:	781b      	ldrb	r3, [r3, #0]
    b23e:	b29a      	uxth	r2, r3
    b240:	4b25      	ldr	r3, [pc, #148]	; (b2d8 <fnI2C_1_Read+0xc8>)
    b242:	805a      	strh	r2, [r3, #2]
    b244:	4b24      	ldr	r3, [pc, #144]	; (b2d8 <fnI2C_1_Read+0xc8>)
    b246:	683a      	ldr	r2, [r7, #0]
    b248:	605a      	str	r2, [r3, #4]
    b24a:	230c      	movs	r3, #12
    b24c:	18fb      	adds	r3, r7, r3
    b24e:	2200      	movs	r2, #0
    b250:	801a      	strh	r2, [r3, #0]
    b252:	1d7b      	adds	r3, r7, #5
    b254:	781b      	ldrb	r3, [r3, #0]
    b256:	2b00      	cmp	r3, #0
    b258:	d01b      	beq.n	b292 <fnI2C_1_Read+0x82>
    b25a:	230f      	movs	r3, #15
    b25c:	18fc      	adds	r4, r7, r3
    b25e:	4a1e      	ldr	r2, [pc, #120]	; (b2d8 <fnI2C_1_Read+0xc8>)
    b260:	4b1e      	ldr	r3, [pc, #120]	; (b2dc <fnI2C_1_Read+0xcc>)
    b262:	0011      	movs	r1, r2
    b264:	0018      	movs	r0, r3
    b266:	4b1e      	ldr	r3, [pc, #120]	; (b2e0 <fnI2C_1_Read+0xd0>)
    b268:	4798      	blx	r3
    b26a:	0003      	movs	r3, r0
    b26c:	7023      	strb	r3, [r4, #0]
    b26e:	230f      	movs	r3, #15
    b270:	18fb      	adds	r3, r7, r3
    b272:	781b      	ldrb	r3, [r3, #0]
    b274:	2b00      	cmp	r3, #0
    b276:	d027      	beq.n	b2c8 <fnI2C_1_Read+0xb8>
    b278:	230c      	movs	r3, #12
    b27a:	18fb      	adds	r3, r7, r3
    b27c:	220c      	movs	r2, #12
    b27e:	18ba      	adds	r2, r7, r2
    b280:	8812      	ldrh	r2, [r2, #0]
    b282:	3201      	adds	r2, #1
    b284:	801a      	strh	r2, [r3, #0]
    b286:	230c      	movs	r3, #12
    b288:	18fb      	adds	r3, r7, r3
    b28a:	881b      	ldrh	r3, [r3, #0]
    b28c:	2b09      	cmp	r3, #9
    b28e:	d9e4      	bls.n	b25a <fnI2C_1_Read+0x4a>
    b290:	e01a      	b.n	b2c8 <fnI2C_1_Read+0xb8>
    b292:	230f      	movs	r3, #15
    b294:	18fc      	adds	r4, r7, r3
    b296:	4a10      	ldr	r2, [pc, #64]	; (b2d8 <fnI2C_1_Read+0xc8>)
    b298:	4b10      	ldr	r3, [pc, #64]	; (b2dc <fnI2C_1_Read+0xcc>)
    b29a:	0011      	movs	r1, r2
    b29c:	0018      	movs	r0, r3
    b29e:	4b11      	ldr	r3, [pc, #68]	; (b2e4 <fnI2C_1_Read+0xd4>)
    b2a0:	4798      	blx	r3
    b2a2:	0003      	movs	r3, r0
    b2a4:	7023      	strb	r3, [r4, #0]
    b2a6:	230f      	movs	r3, #15
    b2a8:	18fb      	adds	r3, r7, r3
    b2aa:	781b      	ldrb	r3, [r3, #0]
    b2ac:	2b00      	cmp	r3, #0
    b2ae:	d00b      	beq.n	b2c8 <fnI2C_1_Read+0xb8>
    b2b0:	230c      	movs	r3, #12
    b2b2:	18fb      	adds	r3, r7, r3
    b2b4:	220c      	movs	r2, #12
    b2b6:	18ba      	adds	r2, r7, r2
    b2b8:	8812      	ldrh	r2, [r2, #0]
    b2ba:	3201      	adds	r2, #1
    b2bc:	801a      	strh	r2, [r3, #0]
    b2be:	230c      	movs	r3, #12
    b2c0:	18fb      	adds	r3, r7, r3
    b2c2:	881b      	ldrh	r3, [r3, #0]
    b2c4:	2b09      	cmp	r3, #9
    b2c6:	d9e4      	bls.n	b292 <fnI2C_1_Read+0x82>
    b2c8:	230f      	movs	r3, #15
    b2ca:	18fb      	adds	r3, r7, r3
    b2cc:	781b      	ldrb	r3, [r3, #0]
    b2ce:	0018      	movs	r0, r3
    b2d0:	46bd      	mov	sp, r7
    b2d2:	b005      	add	sp, #20
    b2d4:	bd90      	pop	{r4, r7, pc}
    b2d6:	46c0      	nop			; (mov r8, r8)
    b2d8:	2000008c 	.word	0x2000008c
    b2dc:	20000c44 	.word	0x20000c44
    b2e0:	0000e415 	.word	0x0000e415
    b2e4:	0000e445 	.word	0x0000e445

0000b2e8 <NVIC_SetPriority>:
    b2e8:	b5b0      	push	{r4, r5, r7, lr}
    b2ea:	b082      	sub	sp, #8
    b2ec:	af00      	add	r7, sp, #0
    b2ee:	0002      	movs	r2, r0
    b2f0:	6039      	str	r1, [r7, #0]
    b2f2:	1dfb      	adds	r3, r7, #7
    b2f4:	701a      	strb	r2, [r3, #0]
    b2f6:	1dfb      	adds	r3, r7, #7
    b2f8:	781b      	ldrb	r3, [r3, #0]
    b2fa:	2b7f      	cmp	r3, #127	; 0x7f
    b2fc:	d932      	bls.n	b364 <NVIC_SetPriority+0x7c>
    b2fe:	4c2f      	ldr	r4, [pc, #188]	; (b3bc <NVIC_SetPriority+0xd4>)
    b300:	1dfb      	adds	r3, r7, #7
    b302:	781b      	ldrb	r3, [r3, #0]
    b304:	001a      	movs	r2, r3
    b306:	230f      	movs	r3, #15
    b308:	4013      	ands	r3, r2
    b30a:	3b08      	subs	r3, #8
    b30c:	0899      	lsrs	r1, r3, #2
    b30e:	4a2b      	ldr	r2, [pc, #172]	; (b3bc <NVIC_SetPriority+0xd4>)
    b310:	1dfb      	adds	r3, r7, #7
    b312:	781b      	ldrb	r3, [r3, #0]
    b314:	0018      	movs	r0, r3
    b316:	230f      	movs	r3, #15
    b318:	4003      	ands	r3, r0
    b31a:	3b08      	subs	r3, #8
    b31c:	089b      	lsrs	r3, r3, #2
    b31e:	3306      	adds	r3, #6
    b320:	009b      	lsls	r3, r3, #2
    b322:	18d3      	adds	r3, r2, r3
    b324:	3304      	adds	r3, #4
    b326:	681b      	ldr	r3, [r3, #0]
    b328:	1dfa      	adds	r2, r7, #7
    b32a:	7812      	ldrb	r2, [r2, #0]
    b32c:	0010      	movs	r0, r2
    b32e:	2203      	movs	r2, #3
    b330:	4002      	ands	r2, r0
    b332:	00d2      	lsls	r2, r2, #3
    b334:	20ff      	movs	r0, #255	; 0xff
    b336:	4090      	lsls	r0, r2
    b338:	0002      	movs	r2, r0
    b33a:	43d2      	mvns	r2, r2
    b33c:	401a      	ands	r2, r3
    b33e:	683b      	ldr	r3, [r7, #0]
    b340:	019b      	lsls	r3, r3, #6
    b342:	20ff      	movs	r0, #255	; 0xff
    b344:	4018      	ands	r0, r3
    b346:	1dfb      	adds	r3, r7, #7
    b348:	781b      	ldrb	r3, [r3, #0]
    b34a:	001d      	movs	r5, r3
    b34c:	2303      	movs	r3, #3
    b34e:	402b      	ands	r3, r5
    b350:	00db      	lsls	r3, r3, #3
    b352:	4098      	lsls	r0, r3
    b354:	0003      	movs	r3, r0
    b356:	431a      	orrs	r2, r3
    b358:	1d8b      	adds	r3, r1, #6
    b35a:	009b      	lsls	r3, r3, #2
    b35c:	18e3      	adds	r3, r4, r3
    b35e:	3304      	adds	r3, #4
    b360:	601a      	str	r2, [r3, #0]
    b362:	e027      	b.n	b3b4 <NVIC_SetPriority+0xcc>
    b364:	4c16      	ldr	r4, [pc, #88]	; (b3c0 <NVIC_SetPriority+0xd8>)
    b366:	1dfb      	adds	r3, r7, #7
    b368:	781b      	ldrb	r3, [r3, #0]
    b36a:	b25b      	sxtb	r3, r3
    b36c:	089b      	lsrs	r3, r3, #2
    b36e:	4914      	ldr	r1, [pc, #80]	; (b3c0 <NVIC_SetPriority+0xd8>)
    b370:	1dfa      	adds	r2, r7, #7
    b372:	7812      	ldrb	r2, [r2, #0]
    b374:	b252      	sxtb	r2, r2
    b376:	0892      	lsrs	r2, r2, #2
    b378:	32c0      	adds	r2, #192	; 0xc0
    b37a:	0092      	lsls	r2, r2, #2
    b37c:	5852      	ldr	r2, [r2, r1]
    b37e:	1df9      	adds	r1, r7, #7
    b380:	7809      	ldrb	r1, [r1, #0]
    b382:	0008      	movs	r0, r1
    b384:	2103      	movs	r1, #3
    b386:	4001      	ands	r1, r0
    b388:	00c9      	lsls	r1, r1, #3
    b38a:	20ff      	movs	r0, #255	; 0xff
    b38c:	4088      	lsls	r0, r1
    b38e:	0001      	movs	r1, r0
    b390:	43c9      	mvns	r1, r1
    b392:	4011      	ands	r1, r2
    b394:	683a      	ldr	r2, [r7, #0]
    b396:	0192      	lsls	r2, r2, #6
    b398:	20ff      	movs	r0, #255	; 0xff
    b39a:	4010      	ands	r0, r2
    b39c:	1dfa      	adds	r2, r7, #7
    b39e:	7812      	ldrb	r2, [r2, #0]
    b3a0:	0015      	movs	r5, r2
    b3a2:	2203      	movs	r2, #3
    b3a4:	402a      	ands	r2, r5
    b3a6:	00d2      	lsls	r2, r2, #3
    b3a8:	4090      	lsls	r0, r2
    b3aa:	0002      	movs	r2, r0
    b3ac:	430a      	orrs	r2, r1
    b3ae:	33c0      	adds	r3, #192	; 0xc0
    b3b0:	009b      	lsls	r3, r3, #2
    b3b2:	511a      	str	r2, [r3, r4]
    b3b4:	46c0      	nop			; (mov r8, r8)
    b3b6:	46bd      	mov	sp, r7
    b3b8:	b002      	add	sp, #8
    b3ba:	bdb0      	pop	{r4, r5, r7, pc}
    b3bc:	e000ed00 	.word	0xe000ed00
    b3c0:	e000e100 	.word	0xe000e100

0000b3c4 <SysTick_Config>:
    b3c4:	b580      	push	{r7, lr}
    b3c6:	b082      	sub	sp, #8
    b3c8:	af00      	add	r7, sp, #0
    b3ca:	6078      	str	r0, [r7, #4]
    b3cc:	687b      	ldr	r3, [r7, #4]
    b3ce:	3b01      	subs	r3, #1
    b3d0:	4a0c      	ldr	r2, [pc, #48]	; (b404 <SysTick_Config+0x40>)
    b3d2:	4293      	cmp	r3, r2
    b3d4:	d901      	bls.n	b3da <SysTick_Config+0x16>
    b3d6:	2301      	movs	r3, #1
    b3d8:	e010      	b.n	b3fc <SysTick_Config+0x38>
    b3da:	4b0b      	ldr	r3, [pc, #44]	; (b408 <SysTick_Config+0x44>)
    b3dc:	687a      	ldr	r2, [r7, #4]
    b3de:	3a01      	subs	r2, #1
    b3e0:	605a      	str	r2, [r3, #4]
    b3e2:	2301      	movs	r3, #1
    b3e4:	425b      	negs	r3, r3
    b3e6:	2103      	movs	r1, #3
    b3e8:	0018      	movs	r0, r3
    b3ea:	4b08      	ldr	r3, [pc, #32]	; (b40c <SysTick_Config+0x48>)
    b3ec:	4798      	blx	r3
    b3ee:	4b06      	ldr	r3, [pc, #24]	; (b408 <SysTick_Config+0x44>)
    b3f0:	2200      	movs	r2, #0
    b3f2:	609a      	str	r2, [r3, #8]
    b3f4:	4b04      	ldr	r3, [pc, #16]	; (b408 <SysTick_Config+0x44>)
    b3f6:	2207      	movs	r2, #7
    b3f8:	601a      	str	r2, [r3, #0]
    b3fa:	2300      	movs	r3, #0
    b3fc:	0018      	movs	r0, r3
    b3fe:	46bd      	mov	sp, r7
    b400:	b002      	add	sp, #8
    b402:	bd80      	pop	{r7, pc}
    b404:	00ffffff 	.word	0x00ffffff
    b408:	e000e010 	.word	0xe000e010
    b40c:	0000b2e9 	.word	0x0000b2e9

0000b410 <fnTIMER_HAL_System_Tick_Init>:
    b410:	b580      	push	{r7, lr}
    b412:	af00      	add	r7, sp, #0
    b414:	2000      	movs	r0, #0
    b416:	4b07      	ldr	r3, [pc, #28]	; (b434 <fnTIMER_HAL_System_Tick_Init+0x24>)
    b418:	4798      	blx	r3
    b41a:	0002      	movs	r2, r0
    b41c:	4b06      	ldr	r3, [pc, #24]	; (b438 <fnTIMER_HAL_System_Tick_Init+0x28>)
    b41e:	2164      	movs	r1, #100	; 0x64
    b420:	0010      	movs	r0, r2
    b422:	4798      	blx	r3
    b424:	0003      	movs	r3, r0
    b426:	0018      	movs	r0, r3
    b428:	4b04      	ldr	r3, [pc, #16]	; (b43c <fnTIMER_HAL_System_Tick_Init+0x2c>)
    b42a:	4798      	blx	r3
    b42c:	46c0      	nop			; (mov r8, r8)
    b42e:	46bd      	mov	sp, r7
    b430:	bd80      	pop	{r7, pc}
    b432:	46c0      	nop			; (mov r8, r8)
    b434:	000091e5 	.word	0x000091e5
    b438:	0000fea1 	.word	0x0000fea1
    b43c:	0000b3c5 	.word	0x0000b3c5

0000b440 <SysTick_Handler>:
    b440:	b580      	push	{r7, lr}
    b442:	af00      	add	r7, sp, #0
    b444:	4b02      	ldr	r3, [pc, #8]	; (b450 <SysTick_Handler+0x10>)
    b446:	4798      	blx	r3
    b448:	46c0      	nop			; (mov r8, r8)
    b44a:	46bd      	mov	sp, r7
    b44c:	bd80      	pop	{r7, pc}
    b44e:	46c0      	nop			; (mov r8, r8)
    b450:	0000971d 	.word	0x0000971d

0000b454 <wdt_get_config_defaults>:
    b454:	b580      	push	{r7, lr}
    b456:	b082      	sub	sp, #8
    b458:	af00      	add	r7, sp, #0
    b45a:	6078      	str	r0, [r7, #4]
    b45c:	687b      	ldr	r3, [r7, #4]
    b45e:	2200      	movs	r2, #0
    b460:	701a      	strb	r2, [r3, #0]
    b462:	687b      	ldr	r3, [r7, #4]
    b464:	2201      	movs	r2, #1
    b466:	705a      	strb	r2, [r3, #1]
    b468:	687b      	ldr	r3, [r7, #4]
    b46a:	2204      	movs	r2, #4
    b46c:	709a      	strb	r2, [r3, #2]
    b46e:	687b      	ldr	r3, [r7, #4]
    b470:	220c      	movs	r2, #12
    b472:	70da      	strb	r2, [r3, #3]
    b474:	687b      	ldr	r3, [r7, #4]
    b476:	2200      	movs	r2, #0
    b478:	711a      	strb	r2, [r3, #4]
    b47a:	687b      	ldr	r3, [r7, #4]
    b47c:	2200      	movs	r2, #0
    b47e:	715a      	strb	r2, [r3, #5]
    b480:	46c0      	nop			; (mov r8, r8)
    b482:	46bd      	mov	sp, r7
    b484:	b002      	add	sp, #8
    b486:	bd80      	pop	{r7, pc}

0000b488 <fnWDT_Config>:
    b488:	b580      	push	{r7, lr}
    b48a:	b082      	sub	sp, #8
    b48c:	af00      	add	r7, sp, #0
    b48e:	003b      	movs	r3, r7
    b490:	0018      	movs	r0, r3
    b492:	4b09      	ldr	r3, [pc, #36]	; (b4b8 <fnWDT_Config+0x30>)
    b494:	4798      	blx	r3
    b496:	003b      	movs	r3, r7
    b498:	2201      	movs	r2, #1
    b49a:	705a      	strb	r2, [r3, #1]
    b49c:	003b      	movs	r3, r7
    b49e:	2202      	movs	r2, #2
    b4a0:	709a      	strb	r2, [r3, #2]
    b4a2:	003b      	movs	r3, r7
    b4a4:	220c      	movs	r2, #12
    b4a6:	70da      	strb	r2, [r3, #3]
    b4a8:	003b      	movs	r3, r7
    b4aa:	0018      	movs	r0, r3
    b4ac:	4b03      	ldr	r3, [pc, #12]	; (b4bc <fnWDT_Config+0x34>)
    b4ae:	4798      	blx	r3
    b4b0:	46c0      	nop			; (mov r8, r8)
    b4b2:	46bd      	mov	sp, r7
    b4b4:	b002      	add	sp, #8
    b4b6:	bd80      	pop	{r7, pc}
    b4b8:	0000b455 	.word	0x0000b455
    b4bc:	0000e6f9 	.word	0x0000e6f9

0000b4c0 <fnWDT_Reset_Counter>:
    b4c0:	b580      	push	{r7, lr}
    b4c2:	af00      	add	r7, sp, #0
    b4c4:	4b02      	ldr	r3, [pc, #8]	; (b4d0 <fnWDT_Reset_Counter+0x10>)
    b4c6:	4798      	blx	r3
    b4c8:	46c0      	nop			; (mov r8, r8)
    b4ca:	46bd      	mov	sp, r7
    b4cc:	bd80      	pop	{r7, pc}
    b4ce:	46c0      	nop			; (mov r8, r8)
    b4d0:	0000e871 	.word	0x0000e871

0000b4d4 <fnINPUT_DIGITAL_Init>:
    b4d4:	b580      	push	{r7, lr}
    b4d6:	af00      	add	r7, sp, #0
    b4d8:	4b04      	ldr	r3, [pc, #16]	; (b4ec <fnINPUT_DIGITAL_Init+0x18>)
    b4da:	4798      	blx	r3
    b4dc:	4b04      	ldr	r3, [pc, #16]	; (b4f0 <fnINPUT_DIGITAL_Init+0x1c>)
    b4de:	4798      	blx	r3
    b4e0:	4b04      	ldr	r3, [pc, #16]	; (b4f4 <fnINPUT_DIGITAL_Init+0x20>)
    b4e2:	4798      	blx	r3
    b4e4:	46c0      	nop			; (mov r8, r8)
    b4e6:	46bd      	mov	sp, r7
    b4e8:	bd80      	pop	{r7, pc}
    b4ea:	46c0      	nop			; (mov r8, r8)
    b4ec:	0000b62d 	.word	0x0000b62d
    b4f0:	0000b551 	.word	0x0000b551
    b4f4:	0000b81d 	.word	0x0000b81d

0000b4f8 <fnINPUT_DIGITAL_Read>:
    b4f8:	b580      	push	{r7, lr}
    b4fa:	b084      	sub	sp, #16
    b4fc:	af00      	add	r7, sp, #0
    b4fe:	0002      	movs	r2, r0
    b500:	1dfb      	adds	r3, r7, #7
    b502:	701a      	strb	r2, [r3, #0]
    b504:	1dfb      	adds	r3, r7, #7
    b506:	781a      	ldrb	r2, [r3, #0]
    b508:	4b10      	ldr	r3, [pc, #64]	; (b54c <fnINPUT_DIGITAL_Read+0x54>)
    b50a:	00d2      	lsls	r2, r2, #3
    b50c:	58d3      	ldr	r3, [r2, r3]
    b50e:	4798      	blx	r3
    b510:	0003      	movs	r3, r0
    b512:	001a      	movs	r2, r3
    b514:	230f      	movs	r3, #15
    b516:	18fb      	adds	r3, r7, r3
    b518:	701a      	strb	r2, [r3, #0]
    b51a:	1dfb      	adds	r3, r7, #7
    b51c:	781b      	ldrb	r3, [r3, #0]
    b51e:	4a0b      	ldr	r2, [pc, #44]	; (b54c <fnINPUT_DIGITAL_Read+0x54>)
    b520:	00db      	lsls	r3, r3, #3
    b522:	18d3      	adds	r3, r2, r3
    b524:	3304      	adds	r3, #4
    b526:	781b      	ldrb	r3, [r3, #0]
    b528:	2b01      	cmp	r3, #1
    b52a:	d108      	bne.n	b53e <fnINPUT_DIGITAL_Read+0x46>
    b52c:	230f      	movs	r3, #15
    b52e:	18fb      	adds	r3, r7, r3
    b530:	781b      	ldrb	r3, [r3, #0]
    b532:	425a      	negs	r2, r3
    b534:	4153      	adcs	r3, r2
    b536:	b2da      	uxtb	r2, r3
    b538:	230f      	movs	r3, #15
    b53a:	18fb      	adds	r3, r7, r3
    b53c:	701a      	strb	r2, [r3, #0]
    b53e:	230f      	movs	r3, #15
    b540:	18fb      	adds	r3, r7, r3
    b542:	781b      	ldrb	r3, [r3, #0]
    b544:	0018      	movs	r0, r3
    b546:	46bd      	mov	sp, r7
    b548:	b004      	add	sp, #16
    b54a:	bd80      	pop	{r7, pc}
    b54c:	00012084 	.word	0x00012084

0000b550 <fnINPUT_Timer_Start>:
    b550:	b590      	push	{r4, r7, lr}
    b552:	b083      	sub	sp, #12
    b554:	af02      	add	r7, sp, #8
    b556:	4b07      	ldr	r3, [pc, #28]	; (b574 <fnINPUT_Timer_Start+0x24>)
    b558:	4798      	blx	r3
    b55a:	4a07      	ldr	r2, [pc, #28]	; (b578 <fnINPUT_Timer_Start+0x28>)
    b55c:	4807      	ldr	r0, [pc, #28]	; (b57c <fnINPUT_Timer_Start+0x2c>)
    b55e:	2300      	movs	r3, #0
    b560:	9300      	str	r3, [sp, #0]
    b562:	0013      	movs	r3, r2
    b564:	2201      	movs	r2, #1
    b566:	2101      	movs	r1, #1
    b568:	4c05      	ldr	r4, [pc, #20]	; (b580 <fnINPUT_Timer_Start+0x30>)
    b56a:	47a0      	blx	r4
    b56c:	46c0      	nop			; (mov r8, r8)
    b56e:	46bd      	mov	sp, r7
    b570:	b001      	add	sp, #4
    b572:	bd90      	pop	{r4, r7, pc}
    b574:	0000b585 	.word	0x0000b585
    b578:	0000b5f9 	.word	0x0000b5f9
    b57c:	20000c54 	.word	0x20000c54
    b580:	000085a9 	.word	0x000085a9

0000b584 <fnINPUT_Timer_Stop>:
    b584:	b580      	push	{r7, lr}
    b586:	af00      	add	r7, sp, #0
    b588:	4b06      	ldr	r3, [pc, #24]	; (b5a4 <fnINPUT_Timer_Stop+0x20>)
    b58a:	781b      	ldrb	r3, [r3, #0]
    b58c:	2b00      	cmp	r3, #0
    b58e:	d005      	beq.n	b59c <fnINPUT_Timer_Stop+0x18>
    b590:	4b04      	ldr	r3, [pc, #16]	; (b5a4 <fnINPUT_Timer_Stop+0x20>)
    b592:	785b      	ldrb	r3, [r3, #1]
    b594:	0018      	movs	r0, r3
    b596:	4b04      	ldr	r3, [pc, #16]	; (b5a8 <fnINPUT_Timer_Stop+0x24>)
    b598:	4798      	blx	r3
    b59a:	46c0      	nop			; (mov r8, r8)
    b59c:	46c0      	nop			; (mov r8, r8)
    b59e:	46bd      	mov	sp, r7
    b5a0:	bd80      	pop	{r7, pc}
    b5a2:	46c0      	nop			; (mov r8, r8)
    b5a4:	20000c54 	.word	0x20000c54
    b5a8:	000086e5 	.word	0x000086e5

0000b5ac <fnINPUT_Timeout_Start>:
    b5ac:	b590      	push	{r4, r7, lr}
    b5ae:	b083      	sub	sp, #12
    b5b0:	af02      	add	r7, sp, #8
    b5b2:	4b0c      	ldr	r3, [pc, #48]	; (b5e4 <fnINPUT_Timeout_Start+0x38>)
    b5b4:	781b      	ldrb	r3, [r3, #0]
    b5b6:	2b00      	cmp	r3, #0
    b5b8:	d004      	beq.n	b5c4 <fnINPUT_Timeout_Start+0x18>
    b5ba:	4b0a      	ldr	r3, [pc, #40]	; (b5e4 <fnINPUT_Timeout_Start+0x38>)
    b5bc:	785b      	ldrb	r3, [r3, #1]
    b5be:	0018      	movs	r0, r3
    b5c0:	4b09      	ldr	r3, [pc, #36]	; (b5e8 <fnINPUT_Timeout_Start+0x3c>)
    b5c2:	4798      	blx	r3
    b5c4:	4a09      	ldr	r2, [pc, #36]	; (b5ec <fnINPUT_Timeout_Start+0x40>)
    b5c6:	4807      	ldr	r0, [pc, #28]	; (b5e4 <fnINPUT_Timeout_Start+0x38>)
    b5c8:	2300      	movs	r3, #0
    b5ca:	9300      	str	r3, [sp, #0]
    b5cc:	0013      	movs	r3, r2
    b5ce:	2200      	movs	r2, #0
    b5d0:	2114      	movs	r1, #20
    b5d2:	4c07      	ldr	r4, [pc, #28]	; (b5f0 <fnINPUT_Timeout_Start+0x44>)
    b5d4:	47a0      	blx	r4
    b5d6:	4b07      	ldr	r3, [pc, #28]	; (b5f4 <fnINPUT_Timeout_Start+0x48>)
    b5d8:	2201      	movs	r2, #1
    b5da:	701a      	strb	r2, [r3, #0]
    b5dc:	46c0      	nop			; (mov r8, r8)
    b5de:	46bd      	mov	sp, r7
    b5e0:	b001      	add	sp, #4
    b5e2:	bd90      	pop	{r4, r7, pc}
    b5e4:	20000c58 	.word	0x20000c58
    b5e8:	000086e5 	.word	0x000086e5
    b5ec:	0000b611 	.word	0x0000b611
    b5f0:	000085a9 	.word	0x000085a9
    b5f4:	20000c50 	.word	0x20000c50

0000b5f8 <fnINPUT_Timer_Tick_Process>:
    b5f8:	b580      	push	{r7, lr}
    b5fa:	b082      	sub	sp, #8
    b5fc:	af00      	add	r7, sp, #0
    b5fe:	6078      	str	r0, [r7, #4]
    b600:	4b02      	ldr	r3, [pc, #8]	; (b60c <fnINPUT_Timer_Tick_Process+0x14>)
    b602:	4798      	blx	r3
    b604:	46c0      	nop			; (mov r8, r8)
    b606:	46bd      	mov	sp, r7
    b608:	b002      	add	sp, #8
    b60a:	bd80      	pop	{r7, pc}
    b60c:	0000b6b9 	.word	0x0000b6b9

0000b610 <fnINPUT_Timeout_Callback>:
    b610:	b580      	push	{r7, lr}
    b612:	b082      	sub	sp, #8
    b614:	af00      	add	r7, sp, #0
    b616:	6078      	str	r0, [r7, #4]
    b618:	4b03      	ldr	r3, [pc, #12]	; (b628 <fnINPUT_Timeout_Callback+0x18>)
    b61a:	2200      	movs	r2, #0
    b61c:	701a      	strb	r2, [r3, #0]
    b61e:	46c0      	nop			; (mov r8, r8)
    b620:	46bd      	mov	sp, r7
    b622:	b002      	add	sp, #8
    b624:	bd80      	pop	{r7, pc}
    b626:	46c0      	nop			; (mov r8, r8)
    b628:	20000c50 	.word	0x20000c50

0000b62c <fnINPUT_Debounce_Init>:
    b62c:	b580      	push	{r7, lr}
    b62e:	b082      	sub	sp, #8
    b630:	af00      	add	r7, sp, #0
    b632:	1dfb      	adds	r3, r7, #7
    b634:	2200      	movs	r2, #0
    b636:	701a      	strb	r2, [r3, #0]
    b638:	e034      	b.n	b6a4 <fnINPUT_Debounce_Init+0x78>
    b63a:	1dfb      	adds	r3, r7, #7
    b63c:	781a      	ldrb	r2, [r3, #0]
    b63e:	4b1d      	ldr	r3, [pc, #116]	; (b6b4 <fnINPUT_Debounce_Init+0x88>)
    b640:	00d2      	lsls	r2, r2, #3
    b642:	58d3      	ldr	r3, [r2, r3]
    b644:	2200      	movs	r2, #0
    b646:	801a      	strh	r2, [r3, #0]
    b648:	1dfb      	adds	r3, r7, #7
    b64a:	781a      	ldrb	r2, [r3, #0]
    b64c:	4b19      	ldr	r3, [pc, #100]	; (b6b4 <fnINPUT_Debounce_Init+0x88>)
    b64e:	00d2      	lsls	r2, r2, #3
    b650:	58d3      	ldr	r3, [r2, r3]
    b652:	2200      	movs	r2, #0
    b654:	805a      	strh	r2, [r3, #2]
    b656:	1dfb      	adds	r3, r7, #7
    b658:	781a      	ldrb	r2, [r3, #0]
    b65a:	4b16      	ldr	r3, [pc, #88]	; (b6b4 <fnINPUT_Debounce_Init+0x88>)
    b65c:	00d2      	lsls	r2, r2, #3
    b65e:	58d3      	ldr	r3, [r2, r3]
    b660:	2200      	movs	r2, #0
    b662:	605a      	str	r2, [r3, #4]
    b664:	1dfb      	adds	r3, r7, #7
    b666:	781a      	ldrb	r2, [r3, #0]
    b668:	4b12      	ldr	r3, [pc, #72]	; (b6b4 <fnINPUT_Debounce_Init+0x88>)
    b66a:	00d2      	lsls	r2, r2, #3
    b66c:	58d3      	ldr	r3, [r2, r3]
    b66e:	2200      	movs	r2, #0
    b670:	609a      	str	r2, [r3, #8]
    b672:	1dfb      	adds	r3, r7, #7
    b674:	781a      	ldrb	r2, [r3, #0]
    b676:	4b0f      	ldr	r3, [pc, #60]	; (b6b4 <fnINPUT_Debounce_Init+0x88>)
    b678:	00d2      	lsls	r2, r2, #3
    b67a:	58d3      	ldr	r3, [r2, r3]
    b67c:	1dfa      	adds	r2, r7, #7
    b67e:	7812      	ldrb	r2, [r2, #0]
    b680:	490c      	ldr	r1, [pc, #48]	; (b6b4 <fnINPUT_Debounce_Init+0x88>)
    b682:	00d2      	lsls	r2, r2, #3
    b684:	188a      	adds	r2, r1, r2
    b686:	3204      	adds	r2, #4
    b688:	6812      	ldr	r2, [r2, #0]
    b68a:	611a      	str	r2, [r3, #16]
    b68c:	1dfb      	adds	r3, r7, #7
    b68e:	781a      	ldrb	r2, [r3, #0]
    b690:	4b08      	ldr	r3, [pc, #32]	; (b6b4 <fnINPUT_Debounce_Init+0x88>)
    b692:	00d2      	lsls	r2, r2, #3
    b694:	58d3      	ldr	r3, [r2, r3]
    b696:	2204      	movs	r2, #4
    b698:	731a      	strb	r2, [r3, #12]
    b69a:	1dfb      	adds	r3, r7, #7
    b69c:	781a      	ldrb	r2, [r3, #0]
    b69e:	1dfb      	adds	r3, r7, #7
    b6a0:	3201      	adds	r2, #1
    b6a2:	701a      	strb	r2, [r3, #0]
    b6a4:	1dfb      	adds	r3, r7, #7
    b6a6:	781b      	ldrb	r3, [r3, #0]
    b6a8:	2b01      	cmp	r3, #1
    b6aa:	d9c6      	bls.n	b63a <fnINPUT_Debounce_Init+0xe>
    b6ac:	46c0      	nop			; (mov r8, r8)
    b6ae:	46bd      	mov	sp, r7
    b6b0:	b002      	add	sp, #8
    b6b2:	bd80      	pop	{r7, pc}
    b6b4:	20000028 	.word	0x20000028

0000b6b8 <fnINPUT_Debounce_Update>:
    b6b8:	b590      	push	{r4, r7, lr}
    b6ba:	b083      	sub	sp, #12
    b6bc:	af00      	add	r7, sp, #0
    b6be:	1dfb      	adds	r3, r7, #7
    b6c0:	2200      	movs	r2, #0
    b6c2:	701a      	strb	r2, [r3, #0]
    b6c4:	e05d      	b.n	b782 <fnINPUT_Debounce_Update+0xca>
    b6c6:	1dfb      	adds	r3, r7, #7
    b6c8:	781a      	ldrb	r2, [r3, #0]
    b6ca:	4b4d      	ldr	r3, [pc, #308]	; (b800 <fnINPUT_Debounce_Update+0x148>)
    b6cc:	00d2      	lsls	r2, r2, #3
    b6ce:	58d4      	ldr	r4, [r2, r3]
    b6d0:	1dfb      	adds	r3, r7, #7
    b6d2:	781b      	ldrb	r3, [r3, #0]
    b6d4:	0018      	movs	r0, r3
    b6d6:	4b4b      	ldr	r3, [pc, #300]	; (b804 <fnINPUT_Debounce_Update+0x14c>)
    b6d8:	4798      	blx	r3
    b6da:	0003      	movs	r3, r0
    b6dc:	b29b      	uxth	r3, r3
    b6de:	8023      	strh	r3, [r4, #0]
    b6e0:	1dfb      	adds	r3, r7, #7
    b6e2:	781a      	ldrb	r2, [r3, #0]
    b6e4:	4b46      	ldr	r3, [pc, #280]	; (b800 <fnINPUT_Debounce_Update+0x148>)
    b6e6:	00d2      	lsls	r2, r2, #3
    b6e8:	58d3      	ldr	r3, [r2, r3]
    b6ea:	881b      	ldrh	r3, [r3, #0]
    b6ec:	2b00      	cmp	r3, #0
    b6ee:	d111      	bne.n	b714 <fnINPUT_Debounce_Update+0x5c>
    b6f0:	1dfb      	adds	r3, r7, #7
    b6f2:	781a      	ldrb	r2, [r3, #0]
    b6f4:	4b42      	ldr	r3, [pc, #264]	; (b800 <fnINPUT_Debounce_Update+0x148>)
    b6f6:	00d2      	lsls	r2, r2, #3
    b6f8:	58d3      	ldr	r3, [r2, r3]
    b6fa:	685b      	ldr	r3, [r3, #4]
    b6fc:	881b      	ldrh	r3, [r3, #0]
    b6fe:	001a      	movs	r2, r3
    b700:	2301      	movs	r3, #1
    b702:	4013      	ands	r3, r2
    b704:	d106      	bne.n	b714 <fnINPUT_Debounce_Update+0x5c>
    b706:	1dfb      	adds	r3, r7, #7
    b708:	781a      	ldrb	r2, [r3, #0]
    b70a:	4b3d      	ldr	r3, [pc, #244]	; (b800 <fnINPUT_Debounce_Update+0x148>)
    b70c:	00d2      	lsls	r2, r2, #3
    b70e:	58d3      	ldr	r3, [r2, r3]
    b710:	2202      	movs	r2, #2
    b712:	801a      	strh	r2, [r3, #0]
    b714:	1dfb      	adds	r3, r7, #7
    b716:	781a      	ldrb	r2, [r3, #0]
    b718:	4b39      	ldr	r3, [pc, #228]	; (b800 <fnINPUT_Debounce_Update+0x148>)
    b71a:	00d2      	lsls	r2, r2, #3
    b71c:	58d3      	ldr	r3, [r2, r3]
    b71e:	881b      	ldrh	r3, [r3, #0]
    b720:	2b01      	cmp	r3, #1
    b722:	d111      	bne.n	b748 <fnINPUT_Debounce_Update+0x90>
    b724:	1dfb      	adds	r3, r7, #7
    b726:	781a      	ldrb	r2, [r3, #0]
    b728:	4b35      	ldr	r3, [pc, #212]	; (b800 <fnINPUT_Debounce_Update+0x148>)
    b72a:	00d2      	lsls	r2, r2, #3
    b72c:	58d3      	ldr	r3, [r2, r3]
    b72e:	685b      	ldr	r3, [r3, #4]
    b730:	881b      	ldrh	r3, [r3, #0]
    b732:	001a      	movs	r2, r3
    b734:	2301      	movs	r3, #1
    b736:	4013      	ands	r3, r2
    b738:	d006      	beq.n	b748 <fnINPUT_Debounce_Update+0x90>
    b73a:	1dfb      	adds	r3, r7, #7
    b73c:	781a      	ldrb	r2, [r3, #0]
    b73e:	4b30      	ldr	r3, [pc, #192]	; (b800 <fnINPUT_Debounce_Update+0x148>)
    b740:	00d2      	lsls	r2, r2, #3
    b742:	58d3      	ldr	r3, [r2, r3]
    b744:	2203      	movs	r2, #3
    b746:	801a      	strh	r2, [r3, #0]
    b748:	1dfb      	adds	r3, r7, #7
    b74a:	781a      	ldrb	r2, [r3, #0]
    b74c:	4b2c      	ldr	r3, [pc, #176]	; (b800 <fnINPUT_Debounce_Update+0x148>)
    b74e:	00d2      	lsls	r2, r2, #3
    b750:	58d3      	ldr	r3, [r2, r3]
    b752:	0018      	movs	r0, r3
    b754:	4b2c      	ldr	r3, [pc, #176]	; (b808 <fnINPUT_Debounce_Update+0x150>)
    b756:	4798      	blx	r3
    b758:	1e03      	subs	r3, r0, #0
    b75a:	d00d      	beq.n	b778 <fnINPUT_Debounce_Update+0xc0>
    b75c:	1dfb      	adds	r3, r7, #7
    b75e:	781a      	ldrb	r2, [r3, #0]
    b760:	4b27      	ldr	r3, [pc, #156]	; (b800 <fnINPUT_Debounce_Update+0x148>)
    b762:	00d2      	lsls	r2, r2, #3
    b764:	58d3      	ldr	r3, [r2, r3]
    b766:	685b      	ldr	r3, [r3, #4]
    b768:	881b      	ldrh	r3, [r3, #0]
    b76a:	b2da      	uxtb	r2, r3
    b76c:	1dfb      	adds	r3, r7, #7
    b76e:	781b      	ldrb	r3, [r3, #0]
    b770:	0011      	movs	r1, r2
    b772:	0018      	movs	r0, r3
    b774:	4b25      	ldr	r3, [pc, #148]	; (b80c <fnINPUT_Debounce_Update+0x154>)
    b776:	4798      	blx	r3
    b778:	1dfb      	adds	r3, r7, #7
    b77a:	1dfa      	adds	r2, r7, #7
    b77c:	7812      	ldrb	r2, [r2, #0]
    b77e:	3201      	adds	r2, #1
    b780:	701a      	strb	r2, [r3, #0]
    b782:	1dfb      	adds	r3, r7, #7
    b784:	781b      	ldrb	r3, [r3, #0]
    b786:	2b01      	cmp	r3, #1
    b788:	d99d      	bls.n	b6c6 <fnINPUT_Debounce_Update+0xe>
    b78a:	4b21      	ldr	r3, [pc, #132]	; (b810 <fnINPUT_Debounce_Update+0x158>)
    b78c:	781b      	ldrb	r3, [r3, #0]
    b78e:	2b00      	cmp	r3, #0
    b790:	d130      	bne.n	b7f4 <fnINPUT_Debounce_Update+0x13c>
    b792:	1dbb      	adds	r3, r7, #6
    b794:	2200      	movs	r2, #0
    b796:	701a      	strb	r2, [r3, #0]
    b798:	1dfb      	adds	r3, r7, #7
    b79a:	2200      	movs	r2, #0
    b79c:	701a      	strb	r2, [r3, #0]
    b79e:	e01b      	b.n	b7d8 <fnINPUT_Debounce_Update+0x120>
    b7a0:	1dfb      	adds	r3, r7, #7
    b7a2:	781a      	ldrb	r2, [r3, #0]
    b7a4:	4b16      	ldr	r3, [pc, #88]	; (b800 <fnINPUT_Debounce_Update+0x148>)
    b7a6:	00d2      	lsls	r2, r2, #3
    b7a8:	58d3      	ldr	r3, [r2, r3]
    b7aa:	685b      	ldr	r3, [r3, #4]
    b7ac:	881b      	ldrh	r3, [r3, #0]
    b7ae:	2b03      	cmp	r3, #3
    b7b0:	d008      	beq.n	b7c4 <fnINPUT_Debounce_Update+0x10c>
    b7b2:	1dfb      	adds	r3, r7, #7
    b7b4:	781a      	ldrb	r2, [r3, #0]
    b7b6:	4b12      	ldr	r3, [pc, #72]	; (b800 <fnINPUT_Debounce_Update+0x148>)
    b7b8:	00d2      	lsls	r2, r2, #3
    b7ba:	58d3      	ldr	r3, [r2, r3]
    b7bc:	685b      	ldr	r3, [r3, #4]
    b7be:	881b      	ldrh	r3, [r3, #0]
    b7c0:	2b02      	cmp	r3, #2
    b7c2:	d104      	bne.n	b7ce <fnINPUT_Debounce_Update+0x116>
    b7c4:	1dbb      	adds	r3, r7, #6
    b7c6:	781a      	ldrb	r2, [r3, #0]
    b7c8:	1dbb      	adds	r3, r7, #6
    b7ca:	3201      	adds	r2, #1
    b7cc:	701a      	strb	r2, [r3, #0]
    b7ce:	1dfb      	adds	r3, r7, #7
    b7d0:	781a      	ldrb	r2, [r3, #0]
    b7d2:	1dfb      	adds	r3, r7, #7
    b7d4:	3201      	adds	r2, #1
    b7d6:	701a      	strb	r2, [r3, #0]
    b7d8:	1dfb      	adds	r3, r7, #7
    b7da:	781b      	ldrb	r3, [r3, #0]
    b7dc:	2b01      	cmp	r3, #1
    b7de:	d9df      	bls.n	b7a0 <fnINPUT_Debounce_Update+0xe8>
    b7e0:	1dbb      	adds	r3, r7, #6
    b7e2:	781b      	ldrb	r3, [r3, #0]
    b7e4:	2b02      	cmp	r3, #2
    b7e6:	d107      	bne.n	b7f8 <fnINPUT_Debounce_Update+0x140>
    b7e8:	4b0a      	ldr	r3, [pc, #40]	; (b814 <fnINPUT_Debounce_Update+0x15c>)
    b7ea:	4798      	blx	r3
    b7ec:	4b0a      	ldr	r3, [pc, #40]	; (b818 <fnINPUT_Debounce_Update+0x160>)
    b7ee:	4798      	blx	r3
    b7f0:	46c0      	nop			; (mov r8, r8)
    b7f2:	e001      	b.n	b7f8 <fnINPUT_Debounce_Update+0x140>
    b7f4:	46c0      	nop			; (mov r8, r8)
    b7f6:	e000      	b.n	b7fa <fnINPUT_Debounce_Update+0x142>
    b7f8:	46c0      	nop			; (mov r8, r8)
    b7fa:	46bd      	mov	sp, r7
    b7fc:	b003      	add	sp, #12
    b7fe:	bd90      	pop	{r4, r7, pc}
    b800:	20000028 	.word	0x20000028
    b804:	0000b4f9 	.word	0x0000b4f9
    b808:	0000b949 	.word	0x0000b949
    b80c:	00009731 	.word	0x00009731
    b810:	20000c50 	.word	0x20000c50
    b814:	0000b585 	.word	0x0000b585
    b818:	0000b8b1 	.word	0x0000b8b1

0000b81c <fnINPUT_DIGITAL_Config_Interrupts>:
    b81c:	b580      	push	{r7, lr}
    b81e:	b084      	sub	sp, #16
    b820:	af00      	add	r7, sp, #0
    b822:	1d3b      	adds	r3, r7, #4
    b824:	2205      	movs	r2, #5
    b826:	601a      	str	r2, [r3, #0]
    b828:	1d3b      	adds	r3, r7, #4
    b82a:	2200      	movs	r2, #0
    b82c:	605a      	str	r2, [r3, #4]
    b82e:	1d3b      	adds	r3, r7, #4
    b830:	2201      	movs	r2, #1
    b832:	721a      	strb	r2, [r3, #8]
    b834:	1d3b      	adds	r3, r7, #4
    b836:	2203      	movs	r2, #3
    b838:	72da      	strb	r2, [r3, #11]
    b83a:	1d3b      	adds	r3, r7, #4
    b83c:	2201      	movs	r2, #1
    b83e:	725a      	strb	r2, [r3, #9]
    b840:	1d3b      	adds	r3, r7, #4
    b842:	2200      	movs	r2, #0
    b844:	729a      	strb	r2, [r3, #10]
    b846:	1d3b      	adds	r3, r7, #4
    b848:	0019      	movs	r1, r3
    b84a:	2005      	movs	r0, #5
    b84c:	4b09      	ldr	r3, [pc, #36]	; (b874 <fnINPUT_DIGITAL_Config_Interrupts+0x58>)
    b84e:	4798      	blx	r3
    b850:	1d3b      	adds	r3, r7, #4
    b852:	2206      	movs	r2, #6
    b854:	601a      	str	r2, [r3, #0]
    b856:	1d3b      	adds	r3, r7, #4
    b858:	2200      	movs	r2, #0
    b85a:	605a      	str	r2, [r3, #4]
    b85c:	1d3b      	adds	r3, r7, #4
    b85e:	2200      	movs	r2, #0
    b860:	721a      	strb	r2, [r3, #8]
    b862:	1d3b      	adds	r3, r7, #4
    b864:	0019      	movs	r1, r3
    b866:	2006      	movs	r0, #6
    b868:	4b02      	ldr	r3, [pc, #8]	; (b874 <fnINPUT_DIGITAL_Config_Interrupts+0x58>)
    b86a:	4798      	blx	r3
    b86c:	46c0      	nop			; (mov r8, r8)
    b86e:	46bd      	mov	sp, r7
    b870:	b004      	add	sp, #16
    b872:	bd80      	pop	{r7, pc}
    b874:	0000ead1 	.word	0x0000ead1

0000b878 <fnINPUT_DIGITAL_Interrupt_Handler>:
    b878:	b580      	push	{r7, lr}
    b87a:	af00      	add	r7, sp, #0
    b87c:	4b08      	ldr	r3, [pc, #32]	; (b8a0 <fnINPUT_DIGITAL_Interrupt_Handler+0x28>)
    b87e:	781b      	ldrb	r3, [r3, #0]
    b880:	2201      	movs	r2, #1
    b882:	4053      	eors	r3, r2
    b884:	b2db      	uxtb	r3, r3
    b886:	2b00      	cmp	r3, #0
    b888:	d006      	beq.n	b898 <fnINPUT_DIGITAL_Interrupt_Handler+0x20>
    b88a:	4b06      	ldr	r3, [pc, #24]	; (b8a4 <fnINPUT_DIGITAL_Interrupt_Handler+0x2c>)
    b88c:	4798      	blx	r3
    b88e:	4b06      	ldr	r3, [pc, #24]	; (b8a8 <fnINPUT_DIGITAL_Interrupt_Handler+0x30>)
    b890:	4798      	blx	r3
    b892:	4b06      	ldr	r3, [pc, #24]	; (b8ac <fnINPUT_DIGITAL_Interrupt_Handler+0x34>)
    b894:	4798      	blx	r3
    b896:	46c0      	nop			; (mov r8, r8)
    b898:	46c0      	nop			; (mov r8, r8)
    b89a:	46bd      	mov	sp, r7
    b89c:	bd80      	pop	{r7, pc}
    b89e:	46c0      	nop			; (mov r8, r8)
    b8a0:	20000c50 	.word	0x20000c50
    b8a4:	0000b8c5 	.word	0x0000b8c5
    b8a8:	0000b5ad 	.word	0x0000b5ad
    b8ac:	0000b551 	.word	0x0000b551

0000b8b0 <fnINPUT_DIGITAL_Enable_Interrupt>:
    b8b0:	b580      	push	{r7, lr}
    b8b2:	af00      	add	r7, sp, #0
    b8b4:	4b02      	ldr	r3, [pc, #8]	; (b8c0 <fnINPUT_DIGITAL_Enable_Interrupt+0x10>)
    b8b6:	4798      	blx	r3
    b8b8:	46c0      	nop			; (mov r8, r8)
    b8ba:	46bd      	mov	sp, r7
    b8bc:	bd80      	pop	{r7, pc}
    b8be:	46c0      	nop			; (mov r8, r8)
    b8c0:	0000c58d 	.word	0x0000c58d

0000b8c4 <fnINPUT_DIGITAL_Disable_Interrupt>:
    b8c4:	b580      	push	{r7, lr}
    b8c6:	af00      	add	r7, sp, #0
    b8c8:	4b02      	ldr	r3, [pc, #8]	; (b8d4 <fnINPUT_DIGITAL_Disable_Interrupt+0x10>)
    b8ca:	4798      	blx	r3
    b8cc:	46c0      	nop			; (mov r8, r8)
    b8ce:	46bd      	mov	sp, r7
    b8d0:	bd80      	pop	{r7, pc}
    b8d2:	46c0      	nop			; (mov r8, r8)
    b8d4:	0000c5d1 	.word	0x0000c5d1

0000b8d8 <fnOUTPUT_DIGITAL_Init>:
    b8d8:	b580      	push	{r7, lr}
    b8da:	b082      	sub	sp, #8
    b8dc:	af00      	add	r7, sp, #0
    b8de:	1dfb      	adds	r3, r7, #7
    b8e0:	2200      	movs	r2, #0
    b8e2:	701a      	strb	r2, [r3, #0]
    b8e4:	e025      	b.n	b932 <fnOUTPUT_DIGITAL_Init+0x5a>
    b8e6:	1dfb      	adds	r3, r7, #7
    b8e8:	781a      	ldrb	r2, [r3, #0]
    b8ea:	4916      	ldr	r1, [pc, #88]	; (b944 <fnOUTPUT_DIGITAL_Init+0x6c>)
    b8ec:	0013      	movs	r3, r2
    b8ee:	00db      	lsls	r3, r3, #3
    b8f0:	1a9b      	subs	r3, r3, r2
    b8f2:	009b      	lsls	r3, r3, #2
    b8f4:	18cb      	adds	r3, r1, r3
    b8f6:	3319      	adds	r3, #25
    b8f8:	2200      	movs	r2, #0
    b8fa:	701a      	strb	r2, [r3, #0]
    b8fc:	1dfb      	adds	r3, r7, #7
    b8fe:	781a      	ldrb	r2, [r3, #0]
    b900:	4910      	ldr	r1, [pc, #64]	; (b944 <fnOUTPUT_DIGITAL_Init+0x6c>)
    b902:	0013      	movs	r3, r2
    b904:	00db      	lsls	r3, r3, #3
    b906:	1a9b      	subs	r3, r3, r2
    b908:	009b      	lsls	r3, r3, #2
    b90a:	18cb      	adds	r3, r1, r3
    b90c:	3317      	adds	r3, #23
    b90e:	2200      	movs	r2, #0
    b910:	701a      	strb	r2, [r3, #0]
    b912:	1dfb      	adds	r3, r7, #7
    b914:	781a      	ldrb	r2, [r3, #0]
    b916:	490b      	ldr	r1, [pc, #44]	; (b944 <fnOUTPUT_DIGITAL_Init+0x6c>)
    b918:	0013      	movs	r3, r2
    b91a:	00db      	lsls	r3, r3, #3
    b91c:	1a9b      	subs	r3, r3, r2
    b91e:	009b      	lsls	r3, r3, #2
    b920:	18cb      	adds	r3, r1, r3
    b922:	3310      	adds	r3, #16
    b924:	2200      	movs	r2, #0
    b926:	601a      	str	r2, [r3, #0]
    b928:	1dfb      	adds	r3, r7, #7
    b92a:	781a      	ldrb	r2, [r3, #0]
    b92c:	1dfb      	adds	r3, r7, #7
    b92e:	3201      	adds	r2, #1
    b930:	701a      	strb	r2, [r3, #0]
    b932:	1dfb      	adds	r3, r7, #7
    b934:	781b      	ldrb	r3, [r3, #0]
    b936:	2b01      	cmp	r3, #1
    b938:	d9d5      	bls.n	b8e6 <fnOUTPUT_DIGITAL_Init+0xe>
    b93a:	46c0      	nop			; (mov r8, r8)
    b93c:	46bd      	mov	sp, r7
    b93e:	b002      	add	sp, #8
    b940:	bd80      	pop	{r7, pc}
    b942:	46c0      	nop			; (mov r8, r8)
    b944:	20000c5c 	.word	0x20000c5c

0000b948 <fnDEBOUNCE_Check>:
    b948:	b580      	push	{r7, lr}
    b94a:	b084      	sub	sp, #16
    b94c:	af00      	add	r7, sp, #0
    b94e:	6078      	str	r0, [r7, #4]
    b950:	230b      	movs	r3, #11
    b952:	18fb      	adds	r3, r7, r3
    b954:	2200      	movs	r2, #0
    b956:	701a      	strb	r2, [r3, #0]
    b958:	687b      	ldr	r3, [r7, #4]
    b95a:	689b      	ldr	r3, [r3, #8]
    b95c:	2b00      	cmp	r3, #0
    b95e:	d028      	beq.n	b9b2 <fnDEBOUNCE_Check+0x6a>
    b960:	687b      	ldr	r3, [r7, #4]
    b962:	689a      	ldr	r2, [r3, #8]
    b964:	687b      	ldr	r3, [r7, #4]
    b966:	881b      	ldrh	r3, [r3, #0]
    b968:	0019      	movs	r1, r3
    b96a:	0010      	movs	r0, r2
    b96c:	4b37      	ldr	r3, [pc, #220]	; (ba4c <fnDEBOUNCE_Check+0x104>)
    b96e:	4798      	blx	r3
    b970:	0003      	movs	r3, r0
    b972:	001a      	movs	r2, r3
    b974:	2301      	movs	r3, #1
    b976:	4053      	eors	r3, r2
    b978:	b2db      	uxtb	r3, r3
    b97a:	2b00      	cmp	r3, #0
    b97c:	d003      	beq.n	b986 <fnDEBOUNCE_Check+0x3e>
    b97e:	687b      	ldr	r3, [r7, #4]
    b980:	2200      	movs	r2, #0
    b982:	609a      	str	r2, [r3, #8]
    b984:	e05b      	b.n	ba3e <fnDEBOUNCE_Check+0xf6>
    b986:	687b      	ldr	r3, [r7, #4]
    b988:	885b      	ldrh	r3, [r3, #2]
    b98a:	3b01      	subs	r3, #1
    b98c:	b29a      	uxth	r2, r3
    b98e:	687b      	ldr	r3, [r7, #4]
    b990:	805a      	strh	r2, [r3, #2]
    b992:	687b      	ldr	r3, [r7, #4]
    b994:	885b      	ldrh	r3, [r3, #2]
    b996:	2b00      	cmp	r3, #0
    b998:	d151      	bne.n	ba3e <fnDEBOUNCE_Check+0xf6>
    b99a:	687b      	ldr	r3, [r7, #4]
    b99c:	689a      	ldr	r2, [r3, #8]
    b99e:	687b      	ldr	r3, [r7, #4]
    b9a0:	605a      	str	r2, [r3, #4]
    b9a2:	687b      	ldr	r3, [r7, #4]
    b9a4:	2200      	movs	r2, #0
    b9a6:	609a      	str	r2, [r3, #8]
    b9a8:	230b      	movs	r3, #11
    b9aa:	18fb      	adds	r3, r7, r3
    b9ac:	2201      	movs	r2, #1
    b9ae:	701a      	strb	r2, [r3, #0]
    b9b0:	e045      	b.n	ba3e <fnDEBOUNCE_Check+0xf6>
    b9b2:	687b      	ldr	r3, [r7, #4]
    b9b4:	685b      	ldr	r3, [r3, #4]
    b9b6:	2b00      	cmp	r3, #0
    b9b8:	d00e      	beq.n	b9d8 <fnDEBOUNCE_Check+0x90>
    b9ba:	687b      	ldr	r3, [r7, #4]
    b9bc:	685a      	ldr	r2, [r3, #4]
    b9be:	687b      	ldr	r3, [r7, #4]
    b9c0:	881b      	ldrh	r3, [r3, #0]
    b9c2:	0019      	movs	r1, r3
    b9c4:	0010      	movs	r0, r2
    b9c6:	4b21      	ldr	r3, [pc, #132]	; (ba4c <fnDEBOUNCE_Check+0x104>)
    b9c8:	4798      	blx	r3
    b9ca:	0003      	movs	r3, r0
    b9cc:	001a      	movs	r2, r3
    b9ce:	2301      	movs	r3, #1
    b9d0:	4053      	eors	r3, r2
    b9d2:	b2db      	uxtb	r3, r3
    b9d4:	2b00      	cmp	r3, #0
    b9d6:	d032      	beq.n	ba3e <fnDEBOUNCE_Check+0xf6>
    b9d8:	2300      	movs	r3, #0
    b9da:	60fb      	str	r3, [r7, #12]
    b9dc:	e002      	b.n	b9e4 <fnDEBOUNCE_Check+0x9c>
    b9de:	68fb      	ldr	r3, [r7, #12]
    b9e0:	3301      	adds	r3, #1
    b9e2:	60fb      	str	r3, [r7, #12]
    b9e4:	687b      	ldr	r3, [r7, #4]
    b9e6:	7b1b      	ldrb	r3, [r3, #12]
    b9e8:	001a      	movs	r2, r3
    b9ea:	68fb      	ldr	r3, [r7, #12]
    b9ec:	429a      	cmp	r2, r3
    b9ee:	dd11      	ble.n	ba14 <fnDEBOUNCE_Check+0xcc>
    b9f0:	687b      	ldr	r3, [r7, #4]
    b9f2:	691a      	ldr	r2, [r3, #16]
    b9f4:	68fb      	ldr	r3, [r7, #12]
    b9f6:	00db      	lsls	r3, r3, #3
    b9f8:	18d2      	adds	r2, r2, r3
    b9fa:	687b      	ldr	r3, [r7, #4]
    b9fc:	881b      	ldrh	r3, [r3, #0]
    b9fe:	0019      	movs	r1, r3
    ba00:	0010      	movs	r0, r2
    ba02:	4b12      	ldr	r3, [pc, #72]	; (ba4c <fnDEBOUNCE_Check+0x104>)
    ba04:	4798      	blx	r3
    ba06:	0003      	movs	r3, r0
    ba08:	001a      	movs	r2, r3
    ba0a:	2301      	movs	r3, #1
    ba0c:	4053      	eors	r3, r2
    ba0e:	b2db      	uxtb	r3, r3
    ba10:	2b00      	cmp	r3, #0
    ba12:	d1e4      	bne.n	b9de <fnDEBOUNCE_Check+0x96>
    ba14:	687b      	ldr	r3, [r7, #4]
    ba16:	7b1b      	ldrb	r3, [r3, #12]
    ba18:	001a      	movs	r2, r3
    ba1a:	68fb      	ldr	r3, [r7, #12]
    ba1c:	429a      	cmp	r2, r3
    ba1e:	dd0e      	ble.n	ba3e <fnDEBOUNCE_Check+0xf6>
    ba20:	687b      	ldr	r3, [r7, #4]
    ba22:	691a      	ldr	r2, [r3, #16]
    ba24:	68fb      	ldr	r3, [r7, #12]
    ba26:	00db      	lsls	r3, r3, #3
    ba28:	18d3      	adds	r3, r2, r3
    ba2a:	885a      	ldrh	r2, [r3, #2]
    ba2c:	687b      	ldr	r3, [r7, #4]
    ba2e:	805a      	strh	r2, [r3, #2]
    ba30:	687b      	ldr	r3, [r7, #4]
    ba32:	691a      	ldr	r2, [r3, #16]
    ba34:	68fb      	ldr	r3, [r7, #12]
    ba36:	00db      	lsls	r3, r3, #3
    ba38:	18d2      	adds	r2, r2, r3
    ba3a:	687b      	ldr	r3, [r7, #4]
    ba3c:	609a      	str	r2, [r3, #8]
    ba3e:	230b      	movs	r3, #11
    ba40:	18fb      	adds	r3, r7, r3
    ba42:	781b      	ldrb	r3, [r3, #0]
    ba44:	0018      	movs	r0, r3
    ba46:	46bd      	mov	sp, r7
    ba48:	b004      	add	sp, #16
    ba4a:	bd80      	pop	{r7, pc}
    ba4c:	0000ba51 	.word	0x0000ba51

0000ba50 <fnDEBOUNCE_Test_Range>:
    ba50:	b580      	push	{r7, lr}
    ba52:	b082      	sub	sp, #8
    ba54:	af00      	add	r7, sp, #0
    ba56:	6078      	str	r0, [r7, #4]
    ba58:	000a      	movs	r2, r1
    ba5a:	1cbb      	adds	r3, r7, #2
    ba5c:	801a      	strh	r2, [r3, #0]
    ba5e:	687b      	ldr	r3, [r7, #4]
    ba60:	88db      	ldrh	r3, [r3, #6]
    ba62:	1cba      	adds	r2, r7, #2
    ba64:	8812      	ldrh	r2, [r2, #0]
    ba66:	429a      	cmp	r2, r3
    ba68:	d807      	bhi.n	ba7a <fnDEBOUNCE_Test_Range+0x2a>
    ba6a:	687b      	ldr	r3, [r7, #4]
    ba6c:	889b      	ldrh	r3, [r3, #4]
    ba6e:	1cba      	adds	r2, r7, #2
    ba70:	8812      	ldrh	r2, [r2, #0]
    ba72:	429a      	cmp	r2, r3
    ba74:	d301      	bcc.n	ba7a <fnDEBOUNCE_Test_Range+0x2a>
    ba76:	2301      	movs	r3, #1
    ba78:	e000      	b.n	ba7c <fnDEBOUNCE_Test_Range+0x2c>
    ba7a:	2300      	movs	r3, #0
    ba7c:	1c1a      	adds	r2, r3, #0
    ba7e:	2301      	movs	r3, #1
    ba80:	4013      	ands	r3, r2
    ba82:	b2db      	uxtb	r3, r3
    ba84:	0018      	movs	r0, r3
    ba86:	46bd      	mov	sp, r7
    ba88:	b002      	add	sp, #8
    ba8a:	bd80      	pop	{r7, pc}

0000ba8c <fnEEPROM_Init>:
    ba8c:	b580      	push	{r7, lr}
    ba8e:	af00      	add	r7, sp, #0
    ba90:	4b04      	ldr	r3, [pc, #16]	; (baa4 <fnEEPROM_Init+0x18>)
    ba92:	4798      	blx	r3
    ba94:	4b04      	ldr	r3, [pc, #16]	; (baa8 <fnEEPROM_Init+0x1c>)
    ba96:	0019      	movs	r1, r3
    ba98:	2000      	movs	r0, #0
    ba9a:	4b04      	ldr	r3, [pc, #16]	; (baac <fnEEPROM_Init+0x20>)
    ba9c:	4798      	blx	r3
    ba9e:	46c0      	nop			; (mov r8, r8)
    baa0:	46bd      	mov	sp, r7
    baa2:	bd80      	pop	{r7, pc}
    baa4:	0000bab1 	.word	0x0000bab1
    baa8:	200006bc 	.word	0x200006bc
    baac:	0000fe05 	.word	0x0000fe05

0000bab0 <fnEEPROM_Config>:
    bab0:	b590      	push	{r4, r7, lr}
    bab2:	b083      	sub	sp, #12
    bab4:	af00      	add	r7, sp, #0
    bab6:	1dfc      	adds	r4, r7, #7
    bab8:	4b09      	ldr	r3, [pc, #36]	; (bae0 <fnEEPROM_Config+0x30>)
    baba:	4798      	blx	r3
    babc:	0003      	movs	r3, r0
    babe:	7023      	strb	r3, [r4, #0]
    bac0:	1dfb      	adds	r3, r7, #7
    bac2:	781b      	ldrb	r3, [r3, #0]
    bac4:	2b16      	cmp	r3, #22
    bac6:	d007      	beq.n	bad8 <fnEEPROM_Config+0x28>
    bac8:	1dfb      	adds	r3, r7, #7
    baca:	781b      	ldrb	r3, [r3, #0]
    bacc:	2b00      	cmp	r3, #0
    bace:	d003      	beq.n	bad8 <fnEEPROM_Config+0x28>
    bad0:	4b04      	ldr	r3, [pc, #16]	; (bae4 <fnEEPROM_Config+0x34>)
    bad2:	4798      	blx	r3
    bad4:	4b02      	ldr	r3, [pc, #8]	; (bae0 <fnEEPROM_Config+0x30>)
    bad6:	4798      	blx	r3
    bad8:	46c0      	nop			; (mov r8, r8)
    bada:	46bd      	mov	sp, r7
    badc:	b003      	add	sp, #12
    bade:	bd90      	pop	{r4, r7, pc}
    bae0:	0000fcf9 	.word	0x0000fcf9
    bae4:	0000fde1 	.word	0x0000fde1

0000bae8 <fnFXOS8700CQ_PORT_Read>:
    bae8:	b590      	push	{r4, r7, lr}
    baea:	b085      	sub	sp, #20
    baec:	af00      	add	r7, sp, #0
    baee:	6039      	str	r1, [r7, #0]
    baf0:	0011      	movs	r1, r2
    baf2:	1dfb      	adds	r3, r7, #7
    baf4:	1c02      	adds	r2, r0, #0
    baf6:	701a      	strb	r2, [r3, #0]
    baf8:	1dbb      	adds	r3, r7, #6
    bafa:	1c0a      	adds	r2, r1, #0
    bafc:	701a      	strb	r2, [r3, #0]
    bafe:	230f      	movs	r3, #15
    bb00:	18fb      	adds	r3, r7, r3
    bb02:	2203      	movs	r2, #3
    bb04:	701a      	strb	r2, [r3, #0]
    bb06:	4b24      	ldr	r3, [pc, #144]	; (bb98 <fnFXOS8700CQ_PORT_Read+0xb0>)
    bb08:	4798      	blx	r3
    bb0a:	1e03      	subs	r3, r0, #0
    bb0c:	d007      	beq.n	bb1e <fnFXOS8700CQ_PORT_Read+0x36>
    bb0e:	4b23      	ldr	r3, [pc, #140]	; (bb9c <fnFXOS8700CQ_PORT_Read+0xb4>)
    bb10:	4798      	blx	r3
    bb12:	23c8      	movs	r3, #200	; 0xc8
    bb14:	005b      	lsls	r3, r3, #1
    bb16:	2100      	movs	r1, #0
    bb18:	0018      	movs	r0, r3
    bb1a:	4b21      	ldr	r3, [pc, #132]	; (bba0 <fnFXOS8700CQ_PORT_Read+0xb8>)
    bb1c:	4798      	blx	r3
    bb1e:	4b21      	ldr	r3, [pc, #132]	; (bba4 <fnFXOS8700CQ_PORT_Read+0xbc>)
    bb20:	4798      	blx	r3
    bb22:	e028      	b.n	bb76 <fnFXOS8700CQ_PORT_Read+0x8e>
    bb24:	1df9      	adds	r1, r7, #7
    bb26:	2300      	movs	r3, #0
    bb28:	2201      	movs	r2, #1
    bb2a:	201e      	movs	r0, #30
    bb2c:	4c1e      	ldr	r4, [pc, #120]	; (bba8 <fnFXOS8700CQ_PORT_Read+0xc0>)
    bb2e:	47a0      	blx	r4
    bb30:	1e03      	subs	r3, r0, #0
    bb32:	d11d      	bne.n	bb70 <fnFXOS8700CQ_PORT_Read+0x88>
    bb34:	1dbb      	adds	r3, r7, #6
    bb36:	781b      	ldrb	r3, [r3, #0]
    bb38:	2b01      	cmp	r3, #1
    bb3a:	d10c      	bne.n	bb56 <fnFXOS8700CQ_PORT_Read+0x6e>
    bb3c:	1dbb      	adds	r3, r7, #6
    bb3e:	781a      	ldrb	r2, [r3, #0]
    bb40:	6839      	ldr	r1, [r7, #0]
    bb42:	2301      	movs	r3, #1
    bb44:	201e      	movs	r0, #30
    bb46:	4c19      	ldr	r4, [pc, #100]	; (bbac <fnFXOS8700CQ_PORT_Read+0xc4>)
    bb48:	47a0      	blx	r4
    bb4a:	1e03      	subs	r3, r0, #0
    bb4c:	d110      	bne.n	bb70 <fnFXOS8700CQ_PORT_Read+0x88>
    bb4e:	4b18      	ldr	r3, [pc, #96]	; (bbb0 <fnFXOS8700CQ_PORT_Read+0xc8>)
    bb50:	4798      	blx	r3
    bb52:	2301      	movs	r3, #1
    bb54:	e01b      	b.n	bb8e <fnFXOS8700CQ_PORT_Read+0xa6>
    bb56:	1dbb      	adds	r3, r7, #6
    bb58:	781a      	ldrb	r2, [r3, #0]
    bb5a:	6839      	ldr	r1, [r7, #0]
    bb5c:	2301      	movs	r3, #1
    bb5e:	201e      	movs	r0, #30
    bb60:	4c12      	ldr	r4, [pc, #72]	; (bbac <fnFXOS8700CQ_PORT_Read+0xc4>)
    bb62:	47a0      	blx	r4
    bb64:	1e03      	subs	r3, r0, #0
    bb66:	d103      	bne.n	bb70 <fnFXOS8700CQ_PORT_Read+0x88>
    bb68:	4b11      	ldr	r3, [pc, #68]	; (bbb0 <fnFXOS8700CQ_PORT_Read+0xc8>)
    bb6a:	4798      	blx	r3
    bb6c:	2301      	movs	r3, #1
    bb6e:	e00e      	b.n	bb8e <fnFXOS8700CQ_PORT_Read+0xa6>
    bb70:	20c8      	movs	r0, #200	; 0xc8
    bb72:	4b10      	ldr	r3, [pc, #64]	; (bbb4 <fnFXOS8700CQ_PORT_Read+0xcc>)
    bb74:	4798      	blx	r3
    bb76:	230f      	movs	r3, #15
    bb78:	18fb      	adds	r3, r7, r3
    bb7a:	781b      	ldrb	r3, [r3, #0]
    bb7c:	220f      	movs	r2, #15
    bb7e:	18ba      	adds	r2, r7, r2
    bb80:	1e59      	subs	r1, r3, #1
    bb82:	7011      	strb	r1, [r2, #0]
    bb84:	2b00      	cmp	r3, #0
    bb86:	d1cd      	bne.n	bb24 <fnFXOS8700CQ_PORT_Read+0x3c>
    bb88:	4b09      	ldr	r3, [pc, #36]	; (bbb0 <fnFXOS8700CQ_PORT_Read+0xc8>)
    bb8a:	4798      	blx	r3
    bb8c:	2300      	movs	r3, #0
    bb8e:	0018      	movs	r0, r3
    bb90:	46bd      	mov	sp, r7
    bb92:	b005      	add	sp, #20
    bb94:	bd90      	pop	{r4, r7, pc}
    bb96:	46c0      	nop			; (mov r8, r8)
    bb98:	0000b125 	.word	0x0000b125
    bb9c:	0000b0d1 	.word	0x0000b0d1
    bba0:	0000b019 	.word	0x0000b019
    bba4:	0000b0ed 	.word	0x0000b0ed
    bba8:	0000b139 	.word	0x0000b139
    bbac:	0000b211 	.word	0x0000b211
    bbb0:	0000b109 	.word	0x0000b109
    bbb4:	000083f9 	.word	0x000083f9

0000bbb8 <system_gclk_gen_get_config_defaults>:
    bbb8:	b580      	push	{r7, lr}
    bbba:	b082      	sub	sp, #8
    bbbc:	af00      	add	r7, sp, #0
    bbbe:	6078      	str	r0, [r7, #4]
    bbc0:	687b      	ldr	r3, [r7, #4]
    bbc2:	2201      	movs	r2, #1
    bbc4:	605a      	str	r2, [r3, #4]
    bbc6:	687b      	ldr	r3, [r7, #4]
    bbc8:	2200      	movs	r2, #0
    bbca:	705a      	strb	r2, [r3, #1]
    bbcc:	687b      	ldr	r3, [r7, #4]
    bbce:	2206      	movs	r2, #6
    bbd0:	701a      	strb	r2, [r3, #0]
    bbd2:	687b      	ldr	r3, [r7, #4]
    bbd4:	2200      	movs	r2, #0
    bbd6:	721a      	strb	r2, [r3, #8]
    bbd8:	687b      	ldr	r3, [r7, #4]
    bbda:	2200      	movs	r2, #0
    bbdc:	725a      	strb	r2, [r3, #9]
    bbde:	46c0      	nop			; (mov r8, r8)
    bbe0:	46bd      	mov	sp, r7
    bbe2:	b002      	add	sp, #8
    bbe4:	bd80      	pop	{r7, pc}

0000bbe6 <system_clock_source_osc32k_get_config_defaults>:
    bbe6:	b580      	push	{r7, lr}
    bbe8:	b082      	sub	sp, #8
    bbea:	af00      	add	r7, sp, #0
    bbec:	6078      	str	r0, [r7, #4]
    bbee:	687b      	ldr	r3, [r7, #4]
    bbf0:	2201      	movs	r2, #1
    bbf2:	705a      	strb	r2, [r3, #1]
    bbf4:	687b      	ldr	r3, [r7, #4]
    bbf6:	2201      	movs	r2, #1
    bbf8:	709a      	strb	r2, [r3, #2]
    bbfa:	687b      	ldr	r3, [r7, #4]
    bbfc:	2200      	movs	r2, #0
    bbfe:	70da      	strb	r2, [r3, #3]
    bc00:	687b      	ldr	r3, [r7, #4]
    bc02:	2201      	movs	r2, #1
    bc04:	711a      	strb	r2, [r3, #4]
    bc06:	687b      	ldr	r3, [r7, #4]
    bc08:	2207      	movs	r2, #7
    bc0a:	701a      	strb	r2, [r3, #0]
    bc0c:	687b      	ldr	r3, [r7, #4]
    bc0e:	2200      	movs	r2, #0
    bc10:	715a      	strb	r2, [r3, #5]
    bc12:	46c0      	nop			; (mov r8, r8)
    bc14:	46bd      	mov	sp, r7
    bc16:	b002      	add	sp, #8
    bc18:	bd80      	pop	{r7, pc}

0000bc1a <system_clock_source_osc8m_get_config_defaults>:
    bc1a:	b580      	push	{r7, lr}
    bc1c:	b082      	sub	sp, #8
    bc1e:	af00      	add	r7, sp, #0
    bc20:	6078      	str	r0, [r7, #4]
    bc22:	687b      	ldr	r3, [r7, #4]
    bc24:	2203      	movs	r2, #3
    bc26:	701a      	strb	r2, [r3, #0]
    bc28:	687b      	ldr	r3, [r7, #4]
    bc2a:	2200      	movs	r2, #0
    bc2c:	705a      	strb	r2, [r3, #1]
    bc2e:	687b      	ldr	r3, [r7, #4]
    bc30:	2201      	movs	r2, #1
    bc32:	709a      	strb	r2, [r3, #2]
    bc34:	46c0      	nop			; (mov r8, r8)
    bc36:	46bd      	mov	sp, r7
    bc38:	b002      	add	sp, #8
    bc3a:	bd80      	pop	{r7, pc}

0000bc3c <system_clock_source_dfll_get_config_defaults>:
    bc3c:	b580      	push	{r7, lr}
    bc3e:	b082      	sub	sp, #8
    bc40:	af00      	add	r7, sp, #0
    bc42:	6078      	str	r0, [r7, #4]
    bc44:	687b      	ldr	r3, [r7, #4]
    bc46:	2200      	movs	r2, #0
    bc48:	701a      	strb	r2, [r3, #0]
    bc4a:	687b      	ldr	r3, [r7, #4]
    bc4c:	2200      	movs	r2, #0
    bc4e:	805a      	strh	r2, [r3, #2]
    bc50:	687b      	ldr	r3, [r7, #4]
    bc52:	2200      	movs	r2, #0
    bc54:	809a      	strh	r2, [r3, #4]
    bc56:	687b      	ldr	r3, [r7, #4]
    bc58:	2200      	movs	r2, #0
    bc5a:	719a      	strb	r2, [r3, #6]
    bc5c:	687b      	ldr	r3, [r7, #4]
    bc5e:	2200      	movs	r2, #0
    bc60:	71da      	strb	r2, [r3, #7]
    bc62:	687b      	ldr	r3, [r7, #4]
    bc64:	2201      	movs	r2, #1
    bc66:	705a      	strb	r2, [r3, #1]
    bc68:	687b      	ldr	r3, [r7, #4]
    bc6a:	2207      	movs	r2, #7
    bc6c:	721a      	strb	r2, [r3, #8]
    bc6e:	687b      	ldr	r3, [r7, #4]
    bc70:	223f      	movs	r2, #63	; 0x3f
    bc72:	815a      	strh	r2, [r3, #10]
    bc74:	687b      	ldr	r3, [r7, #4]
    bc76:	2201      	movs	r2, #1
    bc78:	731a      	strb	r2, [r3, #12]
    bc7a:	687b      	ldr	r3, [r7, #4]
    bc7c:	2201      	movs	r2, #1
    bc7e:	81da      	strh	r2, [r3, #14]
    bc80:	687b      	ldr	r3, [r7, #4]
    bc82:	2206      	movs	r2, #6
    bc84:	821a      	strh	r2, [r3, #16]
    bc86:	46c0      	nop			; (mov r8, r8)
    bc88:	46bd      	mov	sp, r7
    bc8a:	b002      	add	sp, #8
    bc8c:	bd80      	pop	{r7, pc}
	...

0000bc90 <system_cpu_clock_set_divider>:
    bc90:	b580      	push	{r7, lr}
    bc92:	b082      	sub	sp, #8
    bc94:	af00      	add	r7, sp, #0
    bc96:	0002      	movs	r2, r0
    bc98:	1dfb      	adds	r3, r7, #7
    bc9a:	701a      	strb	r2, [r3, #0]
    bc9c:	4a03      	ldr	r2, [pc, #12]	; (bcac <system_cpu_clock_set_divider+0x1c>)
    bc9e:	1dfb      	adds	r3, r7, #7
    bca0:	781b      	ldrb	r3, [r3, #0]
    bca2:	7213      	strb	r3, [r2, #8]
    bca4:	46c0      	nop			; (mov r8, r8)
    bca6:	46bd      	mov	sp, r7
    bca8:	b002      	add	sp, #8
    bcaa:	bd80      	pop	{r7, pc}
    bcac:	40000400 	.word	0x40000400

0000bcb0 <system_apb_clock_set_divider>:
    bcb0:	b580      	push	{r7, lr}
    bcb2:	b082      	sub	sp, #8
    bcb4:	af00      	add	r7, sp, #0
    bcb6:	0002      	movs	r2, r0
    bcb8:	1dfb      	adds	r3, r7, #7
    bcba:	701a      	strb	r2, [r3, #0]
    bcbc:	1dbb      	adds	r3, r7, #6
    bcbe:	1c0a      	adds	r2, r1, #0
    bcc0:	701a      	strb	r2, [r3, #0]
    bcc2:	1dfb      	adds	r3, r7, #7
    bcc4:	781b      	ldrb	r3, [r3, #0]
    bcc6:	2b01      	cmp	r3, #1
    bcc8:	d008      	beq.n	bcdc <system_apb_clock_set_divider+0x2c>
    bcca:	2b02      	cmp	r3, #2
    bccc:	d00b      	beq.n	bce6 <system_apb_clock_set_divider+0x36>
    bcce:	2b00      	cmp	r3, #0
    bcd0:	d10e      	bne.n	bcf0 <system_apb_clock_set_divider+0x40>
    bcd2:	4a0b      	ldr	r2, [pc, #44]	; (bd00 <system_apb_clock_set_divider+0x50>)
    bcd4:	1dbb      	adds	r3, r7, #6
    bcd6:	781b      	ldrb	r3, [r3, #0]
    bcd8:	7253      	strb	r3, [r2, #9]
    bcda:	e00b      	b.n	bcf4 <system_apb_clock_set_divider+0x44>
    bcdc:	4a08      	ldr	r2, [pc, #32]	; (bd00 <system_apb_clock_set_divider+0x50>)
    bcde:	1dbb      	adds	r3, r7, #6
    bce0:	781b      	ldrb	r3, [r3, #0]
    bce2:	7293      	strb	r3, [r2, #10]
    bce4:	e006      	b.n	bcf4 <system_apb_clock_set_divider+0x44>
    bce6:	4a06      	ldr	r2, [pc, #24]	; (bd00 <system_apb_clock_set_divider+0x50>)
    bce8:	1dbb      	adds	r3, r7, #6
    bcea:	781b      	ldrb	r3, [r3, #0]
    bcec:	72d3      	strb	r3, [r2, #11]
    bcee:	e001      	b.n	bcf4 <system_apb_clock_set_divider+0x44>
    bcf0:	2317      	movs	r3, #23
    bcf2:	e000      	b.n	bcf6 <system_apb_clock_set_divider+0x46>
    bcf4:	2300      	movs	r3, #0
    bcf6:	0018      	movs	r0, r3
    bcf8:	46bd      	mov	sp, r7
    bcfa:	b002      	add	sp, #8
    bcfc:	bd80      	pop	{r7, pc}
    bcfe:	46c0      	nop			; (mov r8, r8)
    bd00:	40000400 	.word	0x40000400

0000bd04 <system_flash_set_waitstates>:
    bd04:	b580      	push	{r7, lr}
    bd06:	b082      	sub	sp, #8
    bd08:	af00      	add	r7, sp, #0
    bd0a:	0002      	movs	r2, r0
    bd0c:	1dfb      	adds	r3, r7, #7
    bd0e:	701a      	strb	r2, [r3, #0]
    bd10:	4a08      	ldr	r2, [pc, #32]	; (bd34 <system_flash_set_waitstates+0x30>)
    bd12:	1dfb      	adds	r3, r7, #7
    bd14:	781b      	ldrb	r3, [r3, #0]
    bd16:	210f      	movs	r1, #15
    bd18:	400b      	ands	r3, r1
    bd1a:	b2d9      	uxtb	r1, r3
    bd1c:	6853      	ldr	r3, [r2, #4]
    bd1e:	200f      	movs	r0, #15
    bd20:	4001      	ands	r1, r0
    bd22:	0049      	lsls	r1, r1, #1
    bd24:	201e      	movs	r0, #30
    bd26:	4383      	bics	r3, r0
    bd28:	430b      	orrs	r3, r1
    bd2a:	6053      	str	r3, [r2, #4]
    bd2c:	46c0      	nop			; (mov r8, r8)
    bd2e:	46bd      	mov	sp, r7
    bd30:	b002      	add	sp, #8
    bd32:	bd80      	pop	{r7, pc}
    bd34:	41004000 	.word	0x41004000

0000bd38 <_system_dfll_wait_for_sync>:
    bd38:	b580      	push	{r7, lr}
    bd3a:	af00      	add	r7, sp, #0
    bd3c:	46c0      	nop			; (mov r8, r8)
    bd3e:	4b04      	ldr	r3, [pc, #16]	; (bd50 <_system_dfll_wait_for_sync+0x18>)
    bd40:	68db      	ldr	r3, [r3, #12]
    bd42:	2210      	movs	r2, #16
    bd44:	4013      	ands	r3, r2
    bd46:	d0fa      	beq.n	bd3e <_system_dfll_wait_for_sync+0x6>
    bd48:	46c0      	nop			; (mov r8, r8)
    bd4a:	46bd      	mov	sp, r7
    bd4c:	bd80      	pop	{r7, pc}
    bd4e:	46c0      	nop			; (mov r8, r8)
    bd50:	40000800 	.word	0x40000800

0000bd54 <_system_clock_source_dfll_set_config_errata_9905>:
    bd54:	b580      	push	{r7, lr}
    bd56:	af00      	add	r7, sp, #0
    bd58:	4b0c      	ldr	r3, [pc, #48]	; (bd8c <_system_clock_source_dfll_set_config_errata_9905+0x38>)
    bd5a:	2202      	movs	r2, #2
    bd5c:	849a      	strh	r2, [r3, #36]	; 0x24
    bd5e:	4b0c      	ldr	r3, [pc, #48]	; (bd90 <_system_clock_source_dfll_set_config_errata_9905+0x3c>)
    bd60:	4798      	blx	r3
    bd62:	4a0a      	ldr	r2, [pc, #40]	; (bd8c <_system_clock_source_dfll_set_config_errata_9905+0x38>)
    bd64:	4b0b      	ldr	r3, [pc, #44]	; (bd94 <_system_clock_source_dfll_set_config_errata_9905+0x40>)
    bd66:	689b      	ldr	r3, [r3, #8]
    bd68:	62d3      	str	r3, [r2, #44]	; 0x2c
    bd6a:	4a08      	ldr	r2, [pc, #32]	; (bd8c <_system_clock_source_dfll_set_config_errata_9905+0x38>)
    bd6c:	4b09      	ldr	r3, [pc, #36]	; (bd94 <_system_clock_source_dfll_set_config_errata_9905+0x40>)
    bd6e:	685b      	ldr	r3, [r3, #4]
    bd70:	6293      	str	r3, [r2, #40]	; 0x28
    bd72:	4b06      	ldr	r3, [pc, #24]	; (bd8c <_system_clock_source_dfll_set_config_errata_9905+0x38>)
    bd74:	2200      	movs	r2, #0
    bd76:	849a      	strh	r2, [r3, #36]	; 0x24
    bd78:	4b05      	ldr	r3, [pc, #20]	; (bd90 <_system_clock_source_dfll_set_config_errata_9905+0x3c>)
    bd7a:	4798      	blx	r3
    bd7c:	4a03      	ldr	r2, [pc, #12]	; (bd8c <_system_clock_source_dfll_set_config_errata_9905+0x38>)
    bd7e:	4b05      	ldr	r3, [pc, #20]	; (bd94 <_system_clock_source_dfll_set_config_errata_9905+0x40>)
    bd80:	681b      	ldr	r3, [r3, #0]
    bd82:	b29b      	uxth	r3, r3
    bd84:	8493      	strh	r3, [r2, #36]	; 0x24
    bd86:	46c0      	nop			; (mov r8, r8)
    bd88:	46bd      	mov	sp, r7
    bd8a:	bd80      	pop	{r7, pc}
    bd8c:	40000800 	.word	0x40000800
    bd90:	0000bd39 	.word	0x0000bd39
    bd94:	200006f8 	.word	0x200006f8

0000bd98 <system_clock_source_get_hz>:
    bd98:	b580      	push	{r7, lr}
    bd9a:	b082      	sub	sp, #8
    bd9c:	af00      	add	r7, sp, #0
    bd9e:	0002      	movs	r2, r0
    bda0:	1dfb      	adds	r3, r7, #7
    bda2:	701a      	strb	r2, [r3, #0]
    bda4:	1dfb      	adds	r3, r7, #7
    bda6:	781b      	ldrb	r3, [r3, #0]
    bda8:	2b08      	cmp	r3, #8
    bdaa:	d828      	bhi.n	bdfe <system_clock_source_get_hz+0x66>
    bdac:	009a      	lsls	r2, r3, #2
    bdae:	4b16      	ldr	r3, [pc, #88]	; (be08 <system_clock_source_get_hz+0x70>)
    bdb0:	18d3      	adds	r3, r2, r3
    bdb2:	681b      	ldr	r3, [r3, #0]
    bdb4:	469f      	mov	pc, r3
    bdb6:	4b15      	ldr	r3, [pc, #84]	; (be0c <system_clock_source_get_hz+0x74>)
    bdb8:	691b      	ldr	r3, [r3, #16]
    bdba:	e021      	b.n	be00 <system_clock_source_get_hz+0x68>
    bdbc:	4b14      	ldr	r3, [pc, #80]	; (be10 <system_clock_source_get_hz+0x78>)
    bdbe:	6a1b      	ldr	r3, [r3, #32]
    bdc0:	059b      	lsls	r3, r3, #22
    bdc2:	0f9b      	lsrs	r3, r3, #30
    bdc4:	b2db      	uxtb	r3, r3
    bdc6:	001a      	movs	r2, r3
    bdc8:	4b12      	ldr	r3, [pc, #72]	; (be14 <system_clock_source_get_hz+0x7c>)
    bdca:	40d3      	lsrs	r3, r2
    bdcc:	e018      	b.n	be00 <system_clock_source_get_hz+0x68>
    bdce:	2380      	movs	r3, #128	; 0x80
    bdd0:	021b      	lsls	r3, r3, #8
    bdd2:	e015      	b.n	be00 <system_clock_source_get_hz+0x68>
    bdd4:	2380      	movs	r3, #128	; 0x80
    bdd6:	021b      	lsls	r3, r3, #8
    bdd8:	e012      	b.n	be00 <system_clock_source_get_hz+0x68>
    bdda:	4b0c      	ldr	r3, [pc, #48]	; (be0c <system_clock_source_get_hz+0x74>)
    bddc:	695b      	ldr	r3, [r3, #20]
    bdde:	e00f      	b.n	be00 <system_clock_source_get_hz+0x68>
    bde0:	4b0d      	ldr	r3, [pc, #52]	; (be18 <system_clock_source_get_hz+0x80>)
    bde2:	e00d      	b.n	be00 <system_clock_source_get_hz+0x68>
    bde4:	4a0a      	ldr	r2, [pc, #40]	; (be10 <system_clock_source_get_hz+0x78>)
    bde6:	2350      	movs	r3, #80	; 0x50
    bde8:	5cd3      	ldrb	r3, [r2, r3]
    bdea:	b2db      	uxtb	r3, r3
    bdec:	001a      	movs	r2, r3
    bdee:	2304      	movs	r3, #4
    bdf0:	4013      	ands	r3, r2
    bdf2:	d101      	bne.n	bdf8 <system_clock_source_get_hz+0x60>
    bdf4:	2300      	movs	r3, #0
    bdf6:	e003      	b.n	be00 <system_clock_source_get_hz+0x68>
    bdf8:	4b04      	ldr	r3, [pc, #16]	; (be0c <system_clock_source_get_hz+0x74>)
    bdfa:	68db      	ldr	r3, [r3, #12]
    bdfc:	e000      	b.n	be00 <system_clock_source_get_hz+0x68>
    bdfe:	2300      	movs	r3, #0
    be00:	0018      	movs	r0, r3
    be02:	46bd      	mov	sp, r7
    be04:	b002      	add	sp, #8
    be06:	bd80      	pop	{r7, pc}
    be08:	00012250 	.word	0x00012250
    be0c:	200006f8 	.word	0x200006f8
    be10:	40000800 	.word	0x40000800
    be14:	007a1200 	.word	0x007a1200
    be18:	02dc6c00 	.word	0x02dc6c00

0000be1c <system_clock_source_osc8m_set_config>:
    be1c:	b580      	push	{r7, lr}
    be1e:	b084      	sub	sp, #16
    be20:	af00      	add	r7, sp, #0
    be22:	6078      	str	r0, [r7, #4]
    be24:	4b1a      	ldr	r3, [pc, #104]	; (be90 <system_clock_source_osc8m_set_config+0x74>)
    be26:	6a1b      	ldr	r3, [r3, #32]
    be28:	60fb      	str	r3, [r7, #12]
    be2a:	687b      	ldr	r3, [r7, #4]
    be2c:	781b      	ldrb	r3, [r3, #0]
    be2e:	1c1a      	adds	r2, r3, #0
    be30:	2303      	movs	r3, #3
    be32:	4013      	ands	r3, r2
    be34:	b2da      	uxtb	r2, r3
    be36:	230d      	movs	r3, #13
    be38:	18fb      	adds	r3, r7, r3
    be3a:	2103      	movs	r1, #3
    be3c:	400a      	ands	r2, r1
    be3e:	0010      	movs	r0, r2
    be40:	781a      	ldrb	r2, [r3, #0]
    be42:	2103      	movs	r1, #3
    be44:	438a      	bics	r2, r1
    be46:	1c11      	adds	r1, r2, #0
    be48:	1c02      	adds	r2, r0, #0
    be4a:	430a      	orrs	r2, r1
    be4c:	701a      	strb	r2, [r3, #0]
    be4e:	687b      	ldr	r3, [r7, #4]
    be50:	789a      	ldrb	r2, [r3, #2]
    be52:	230c      	movs	r3, #12
    be54:	18fb      	adds	r3, r7, r3
    be56:	01d0      	lsls	r0, r2, #7
    be58:	781a      	ldrb	r2, [r3, #0]
    be5a:	217f      	movs	r1, #127	; 0x7f
    be5c:	400a      	ands	r2, r1
    be5e:	1c11      	adds	r1, r2, #0
    be60:	1c02      	adds	r2, r0, #0
    be62:	430a      	orrs	r2, r1
    be64:	701a      	strb	r2, [r3, #0]
    be66:	687b      	ldr	r3, [r7, #4]
    be68:	785a      	ldrb	r2, [r3, #1]
    be6a:	230c      	movs	r3, #12
    be6c:	18fb      	adds	r3, r7, r3
    be6e:	2101      	movs	r1, #1
    be70:	400a      	ands	r2, r1
    be72:	0190      	lsls	r0, r2, #6
    be74:	781a      	ldrb	r2, [r3, #0]
    be76:	2140      	movs	r1, #64	; 0x40
    be78:	438a      	bics	r2, r1
    be7a:	1c11      	adds	r1, r2, #0
    be7c:	1c02      	adds	r2, r0, #0
    be7e:	430a      	orrs	r2, r1
    be80:	701a      	strb	r2, [r3, #0]
    be82:	4b03      	ldr	r3, [pc, #12]	; (be90 <system_clock_source_osc8m_set_config+0x74>)
    be84:	68fa      	ldr	r2, [r7, #12]
    be86:	621a      	str	r2, [r3, #32]
    be88:	46c0      	nop			; (mov r8, r8)
    be8a:	46bd      	mov	sp, r7
    be8c:	b004      	add	sp, #16
    be8e:	bd80      	pop	{r7, pc}
    be90:	40000800 	.word	0x40000800

0000be94 <system_clock_source_osc32k_set_config>:
    be94:	b580      	push	{r7, lr}
    be96:	b084      	sub	sp, #16
    be98:	af00      	add	r7, sp, #0
    be9a:	6078      	str	r0, [r7, #4]
    be9c:	4b2f      	ldr	r3, [pc, #188]	; (bf5c <system_clock_source_osc32k_set_config+0xc8>)
    be9e:	699b      	ldr	r3, [r3, #24]
    bea0:	60fb      	str	r3, [r7, #12]
    bea2:	687b      	ldr	r3, [r7, #4]
    bea4:	785a      	ldrb	r2, [r3, #1]
    bea6:	230c      	movs	r3, #12
    bea8:	18fb      	adds	r3, r7, r3
    beaa:	2101      	movs	r1, #1
    beac:	400a      	ands	r2, r1
    beae:	00d0      	lsls	r0, r2, #3
    beb0:	781a      	ldrb	r2, [r3, #0]
    beb2:	2108      	movs	r1, #8
    beb4:	438a      	bics	r2, r1
    beb6:	1c11      	adds	r1, r2, #0
    beb8:	1c02      	adds	r2, r0, #0
    beba:	430a      	orrs	r2, r1
    bebc:	701a      	strb	r2, [r3, #0]
    bebe:	687b      	ldr	r3, [r7, #4]
    bec0:	789a      	ldrb	r2, [r3, #2]
    bec2:	230c      	movs	r3, #12
    bec4:	18fb      	adds	r3, r7, r3
    bec6:	2101      	movs	r1, #1
    bec8:	400a      	ands	r2, r1
    beca:	0090      	lsls	r0, r2, #2
    becc:	781a      	ldrb	r2, [r3, #0]
    bece:	2104      	movs	r1, #4
    bed0:	438a      	bics	r2, r1
    bed2:	1c11      	adds	r1, r2, #0
    bed4:	1c02      	adds	r2, r0, #0
    bed6:	430a      	orrs	r2, r1
    bed8:	701a      	strb	r2, [r3, #0]
    beda:	687b      	ldr	r3, [r7, #4]
    bedc:	781b      	ldrb	r3, [r3, #0]
    bede:	1c1a      	adds	r2, r3, #0
    bee0:	2307      	movs	r3, #7
    bee2:	4013      	ands	r3, r2
    bee4:	b2da      	uxtb	r2, r3
    bee6:	230d      	movs	r3, #13
    bee8:	18fb      	adds	r3, r7, r3
    beea:	2107      	movs	r1, #7
    beec:	400a      	ands	r2, r1
    beee:	0010      	movs	r0, r2
    bef0:	781a      	ldrb	r2, [r3, #0]
    bef2:	2107      	movs	r1, #7
    bef4:	438a      	bics	r2, r1
    bef6:	1c11      	adds	r1, r2, #0
    bef8:	1c02      	adds	r2, r0, #0
    befa:	430a      	orrs	r2, r1
    befc:	701a      	strb	r2, [r3, #0]
    befe:	687b      	ldr	r3, [r7, #4]
    bf00:	791a      	ldrb	r2, [r3, #4]
    bf02:	230c      	movs	r3, #12
    bf04:	18fb      	adds	r3, r7, r3
    bf06:	01d0      	lsls	r0, r2, #7
    bf08:	781a      	ldrb	r2, [r3, #0]
    bf0a:	217f      	movs	r1, #127	; 0x7f
    bf0c:	400a      	ands	r2, r1
    bf0e:	1c11      	adds	r1, r2, #0
    bf10:	1c02      	adds	r2, r0, #0
    bf12:	430a      	orrs	r2, r1
    bf14:	701a      	strb	r2, [r3, #0]
    bf16:	687b      	ldr	r3, [r7, #4]
    bf18:	78da      	ldrb	r2, [r3, #3]
    bf1a:	230c      	movs	r3, #12
    bf1c:	18fb      	adds	r3, r7, r3
    bf1e:	2101      	movs	r1, #1
    bf20:	400a      	ands	r2, r1
    bf22:	0190      	lsls	r0, r2, #6
    bf24:	781a      	ldrb	r2, [r3, #0]
    bf26:	2140      	movs	r1, #64	; 0x40
    bf28:	438a      	bics	r2, r1
    bf2a:	1c11      	adds	r1, r2, #0
    bf2c:	1c02      	adds	r2, r0, #0
    bf2e:	430a      	orrs	r2, r1
    bf30:	701a      	strb	r2, [r3, #0]
    bf32:	687b      	ldr	r3, [r7, #4]
    bf34:	795a      	ldrb	r2, [r3, #5]
    bf36:	230d      	movs	r3, #13
    bf38:	18fb      	adds	r3, r7, r3
    bf3a:	2101      	movs	r1, #1
    bf3c:	400a      	ands	r2, r1
    bf3e:	0110      	lsls	r0, r2, #4
    bf40:	781a      	ldrb	r2, [r3, #0]
    bf42:	2110      	movs	r1, #16
    bf44:	438a      	bics	r2, r1
    bf46:	1c11      	adds	r1, r2, #0
    bf48:	1c02      	adds	r2, r0, #0
    bf4a:	430a      	orrs	r2, r1
    bf4c:	701a      	strb	r2, [r3, #0]
    bf4e:	4b03      	ldr	r3, [pc, #12]	; (bf5c <system_clock_source_osc32k_set_config+0xc8>)
    bf50:	68fa      	ldr	r2, [r7, #12]
    bf52:	619a      	str	r2, [r3, #24]
    bf54:	46c0      	nop			; (mov r8, r8)
    bf56:	46bd      	mov	sp, r7
    bf58:	b004      	add	sp, #16
    bf5a:	bd80      	pop	{r7, pc}
    bf5c:	40000800 	.word	0x40000800

0000bf60 <system_clock_source_dfll_set_config>:
    bf60:	b580      	push	{r7, lr}
    bf62:	b082      	sub	sp, #8
    bf64:	af00      	add	r7, sp, #0
    bf66:	6078      	str	r0, [r7, #4]
    bf68:	687b      	ldr	r3, [r7, #4]
    bf6a:	7a1b      	ldrb	r3, [r3, #8]
    bf6c:	029b      	lsls	r3, r3, #10
    bf6e:	041b      	lsls	r3, r3, #16
    bf70:	0c1a      	lsrs	r2, r3, #16
    bf72:	687b      	ldr	r3, [r7, #4]
    bf74:	895b      	ldrh	r3, [r3, #10]
    bf76:	059b      	lsls	r3, r3, #22
    bf78:	0d9b      	lsrs	r3, r3, #22
    bf7a:	431a      	orrs	r2, r3
    bf7c:	4b2a      	ldr	r3, [pc, #168]	; (c028 <system_clock_source_dfll_set_config+0xc8>)
    bf7e:	605a      	str	r2, [r3, #4]
    bf80:	687b      	ldr	r3, [r7, #4]
    bf82:	799a      	ldrb	r2, [r3, #6]
    bf84:	687b      	ldr	r3, [r7, #4]
    bf86:	79db      	ldrb	r3, [r3, #7]
    bf88:	4313      	orrs	r3, r2
    bf8a:	b2db      	uxtb	r3, r3
    bf8c:	001a      	movs	r2, r3
    bf8e:	687b      	ldr	r3, [r7, #4]
    bf90:	885b      	ldrh	r3, [r3, #2]
    bf92:	4313      	orrs	r3, r2
    bf94:	687a      	ldr	r2, [r7, #4]
    bf96:	8892      	ldrh	r2, [r2, #4]
    bf98:	431a      	orrs	r2, r3
    bf9a:	687b      	ldr	r3, [r7, #4]
    bf9c:	785b      	ldrb	r3, [r3, #1]
    bf9e:	01db      	lsls	r3, r3, #7
    bfa0:	431a      	orrs	r2, r3
    bfa2:	4b21      	ldr	r3, [pc, #132]	; (c028 <system_clock_source_dfll_set_config+0xc8>)
    bfa4:	601a      	str	r2, [r3, #0]
    bfa6:	687b      	ldr	r3, [r7, #4]
    bfa8:	781b      	ldrb	r3, [r3, #0]
    bfaa:	2b04      	cmp	r3, #4
    bfac:	d116      	bne.n	bfdc <system_clock_source_dfll_set_config+0x7c>
    bfae:	687b      	ldr	r3, [r7, #4]
    bfb0:	7b1b      	ldrb	r3, [r3, #12]
    bfb2:	069b      	lsls	r3, r3, #26
    bfb4:	001a      	movs	r2, r3
    bfb6:	687b      	ldr	r3, [r7, #4]
    bfb8:	89db      	ldrh	r3, [r3, #14]
    bfba:	041b      	lsls	r3, r3, #16
    bfbc:	0019      	movs	r1, r3
    bfbe:	4b1b      	ldr	r3, [pc, #108]	; (c02c <system_clock_source_dfll_set_config+0xcc>)
    bfc0:	400b      	ands	r3, r1
    bfc2:	4313      	orrs	r3, r2
    bfc4:	687a      	ldr	r2, [r7, #4]
    bfc6:	8a12      	ldrh	r2, [r2, #16]
    bfc8:	431a      	orrs	r2, r3
    bfca:	4b17      	ldr	r3, [pc, #92]	; (c028 <system_clock_source_dfll_set_config+0xc8>)
    bfcc:	609a      	str	r2, [r3, #8]
    bfce:	4b16      	ldr	r3, [pc, #88]	; (c028 <system_clock_source_dfll_set_config+0xc8>)
    bfd0:	681b      	ldr	r3, [r3, #0]
    bfd2:	687a      	ldr	r2, [r7, #4]
    bfd4:	7812      	ldrb	r2, [r2, #0]
    bfd6:	431a      	orrs	r2, r3
    bfd8:	4b13      	ldr	r3, [pc, #76]	; (c028 <system_clock_source_dfll_set_config+0xc8>)
    bfda:	601a      	str	r2, [r3, #0]
    bfdc:	687b      	ldr	r3, [r7, #4]
    bfde:	781b      	ldrb	r3, [r3, #0]
    bfe0:	2b20      	cmp	r3, #32
    bfe2:	d11c      	bne.n	c01e <system_clock_source_dfll_set_config+0xbe>
    bfe4:	687b      	ldr	r3, [r7, #4]
    bfe6:	7b1b      	ldrb	r3, [r3, #12]
    bfe8:	069b      	lsls	r3, r3, #26
    bfea:	001a      	movs	r2, r3
    bfec:	687b      	ldr	r3, [r7, #4]
    bfee:	89db      	ldrh	r3, [r3, #14]
    bff0:	041b      	lsls	r3, r3, #16
    bff2:	0019      	movs	r1, r3
    bff4:	4b0d      	ldr	r3, [pc, #52]	; (c02c <system_clock_source_dfll_set_config+0xcc>)
    bff6:	400b      	ands	r3, r1
    bff8:	4313      	orrs	r3, r2
    bffa:	687a      	ldr	r2, [r7, #4]
    bffc:	8a12      	ldrh	r2, [r2, #16]
    bffe:	431a      	orrs	r2, r3
    c000:	4b09      	ldr	r3, [pc, #36]	; (c028 <system_clock_source_dfll_set_config+0xc8>)
    c002:	609a      	str	r2, [r3, #8]
    c004:	4b08      	ldr	r3, [pc, #32]	; (c028 <system_clock_source_dfll_set_config+0xc8>)
    c006:	681b      	ldr	r3, [r3, #0]
    c008:	687a      	ldr	r2, [r7, #4]
    c00a:	7812      	ldrb	r2, [r2, #0]
    c00c:	2104      	movs	r1, #4
    c00e:	430a      	orrs	r2, r1
    c010:	b2d2      	uxtb	r2, r2
    c012:	4313      	orrs	r3, r2
    c014:	2280      	movs	r2, #128	; 0x80
    c016:	00d2      	lsls	r2, r2, #3
    c018:	431a      	orrs	r2, r3
    c01a:	4b03      	ldr	r3, [pc, #12]	; (c028 <system_clock_source_dfll_set_config+0xc8>)
    c01c:	601a      	str	r2, [r3, #0]
    c01e:	46c0      	nop			; (mov r8, r8)
    c020:	46bd      	mov	sp, r7
    c022:	b002      	add	sp, #8
    c024:	bd80      	pop	{r7, pc}
    c026:	46c0      	nop			; (mov r8, r8)
    c028:	200006f8 	.word	0x200006f8
    c02c:	03ff0000 	.word	0x03ff0000

0000c030 <system_clock_source_enable>:
    c030:	b580      	push	{r7, lr}
    c032:	b082      	sub	sp, #8
    c034:	af00      	add	r7, sp, #0
    c036:	0002      	movs	r2, r0
    c038:	1dfb      	adds	r3, r7, #7
    c03a:	701a      	strb	r2, [r3, #0]
    c03c:	1dfb      	adds	r3, r7, #7
    c03e:	781b      	ldrb	r3, [r3, #0]
    c040:	2b08      	cmp	r3, #8
    c042:	d83b      	bhi.n	c0bc <system_clock_source_enable+0x8c>
    c044:	009a      	lsls	r2, r3, #2
    c046:	4b21      	ldr	r3, [pc, #132]	; (c0cc <system_clock_source_enable+0x9c>)
    c048:	18d3      	adds	r3, r2, r3
    c04a:	681b      	ldr	r3, [r3, #0]
    c04c:	469f      	mov	pc, r3
    c04e:	4b20      	ldr	r3, [pc, #128]	; (c0d0 <system_clock_source_enable+0xa0>)
    c050:	4a1f      	ldr	r2, [pc, #124]	; (c0d0 <system_clock_source_enable+0xa0>)
    c052:	6a12      	ldr	r2, [r2, #32]
    c054:	2102      	movs	r1, #2
    c056:	430a      	orrs	r2, r1
    c058:	621a      	str	r2, [r3, #32]
    c05a:	2300      	movs	r3, #0
    c05c:	e031      	b.n	c0c2 <system_clock_source_enable+0x92>
    c05e:	4b1c      	ldr	r3, [pc, #112]	; (c0d0 <system_clock_source_enable+0xa0>)
    c060:	4a1b      	ldr	r2, [pc, #108]	; (c0d0 <system_clock_source_enable+0xa0>)
    c062:	6992      	ldr	r2, [r2, #24]
    c064:	2102      	movs	r1, #2
    c066:	430a      	orrs	r2, r1
    c068:	619a      	str	r2, [r3, #24]
    c06a:	e029      	b.n	c0c0 <system_clock_source_enable+0x90>
    c06c:	4a18      	ldr	r2, [pc, #96]	; (c0d0 <system_clock_source_enable+0xa0>)
    c06e:	4b18      	ldr	r3, [pc, #96]	; (c0d0 <system_clock_source_enable+0xa0>)
    c070:	8a1b      	ldrh	r3, [r3, #16]
    c072:	b29b      	uxth	r3, r3
    c074:	2102      	movs	r1, #2
    c076:	430b      	orrs	r3, r1
    c078:	b29b      	uxth	r3, r3
    c07a:	8213      	strh	r3, [r2, #16]
    c07c:	e020      	b.n	c0c0 <system_clock_source_enable+0x90>
    c07e:	4a14      	ldr	r2, [pc, #80]	; (c0d0 <system_clock_source_enable+0xa0>)
    c080:	4b13      	ldr	r3, [pc, #76]	; (c0d0 <system_clock_source_enable+0xa0>)
    c082:	8a9b      	ldrh	r3, [r3, #20]
    c084:	b29b      	uxth	r3, r3
    c086:	2102      	movs	r1, #2
    c088:	430b      	orrs	r3, r1
    c08a:	b29b      	uxth	r3, r3
    c08c:	8293      	strh	r3, [r2, #20]
    c08e:	e017      	b.n	c0c0 <system_clock_source_enable+0x90>
    c090:	4b10      	ldr	r3, [pc, #64]	; (c0d4 <system_clock_source_enable+0xa4>)
    c092:	681b      	ldr	r3, [r3, #0]
    c094:	2202      	movs	r2, #2
    c096:	431a      	orrs	r2, r3
    c098:	4b0e      	ldr	r3, [pc, #56]	; (c0d4 <system_clock_source_enable+0xa4>)
    c09a:	601a      	str	r2, [r3, #0]
    c09c:	4b0e      	ldr	r3, [pc, #56]	; (c0d8 <system_clock_source_enable+0xa8>)
    c09e:	4798      	blx	r3
    c0a0:	e00e      	b.n	c0c0 <system_clock_source_enable+0x90>
    c0a2:	4a0b      	ldr	r2, [pc, #44]	; (c0d0 <system_clock_source_enable+0xa0>)
    c0a4:	490a      	ldr	r1, [pc, #40]	; (c0d0 <system_clock_source_enable+0xa0>)
    c0a6:	2344      	movs	r3, #68	; 0x44
    c0a8:	5ccb      	ldrb	r3, [r1, r3]
    c0aa:	b2db      	uxtb	r3, r3
    c0ac:	2102      	movs	r1, #2
    c0ae:	430b      	orrs	r3, r1
    c0b0:	b2d9      	uxtb	r1, r3
    c0b2:	2344      	movs	r3, #68	; 0x44
    c0b4:	54d1      	strb	r1, [r2, r3]
    c0b6:	e003      	b.n	c0c0 <system_clock_source_enable+0x90>
    c0b8:	2300      	movs	r3, #0
    c0ba:	e002      	b.n	c0c2 <system_clock_source_enable+0x92>
    c0bc:	2317      	movs	r3, #23
    c0be:	e000      	b.n	c0c2 <system_clock_source_enable+0x92>
    c0c0:	2300      	movs	r3, #0
    c0c2:	0018      	movs	r0, r3
    c0c4:	46bd      	mov	sp, r7
    c0c6:	b002      	add	sp, #8
    c0c8:	bd80      	pop	{r7, pc}
    c0ca:	46c0      	nop			; (mov r8, r8)
    c0cc:	00012274 	.word	0x00012274
    c0d0:	40000800 	.word	0x40000800
    c0d4:	200006f8 	.word	0x200006f8
    c0d8:	0000bd55 	.word	0x0000bd55

0000c0dc <system_clock_source_is_ready>:
    c0dc:	b580      	push	{r7, lr}
    c0de:	b084      	sub	sp, #16
    c0e0:	af00      	add	r7, sp, #0
    c0e2:	0002      	movs	r2, r0
    c0e4:	1dfb      	adds	r3, r7, #7
    c0e6:	701a      	strb	r2, [r3, #0]
    c0e8:	2300      	movs	r3, #0
    c0ea:	60fb      	str	r3, [r7, #12]
    c0ec:	1dfb      	adds	r3, r7, #7
    c0ee:	781b      	ldrb	r3, [r3, #0]
    c0f0:	2b08      	cmp	r3, #8
    c0f2:	d821      	bhi.n	c138 <system_clock_source_is_ready+0x5c>
    c0f4:	009a      	lsls	r2, r3, #2
    c0f6:	4b18      	ldr	r3, [pc, #96]	; (c158 <system_clock_source_is_ready+0x7c>)
    c0f8:	18d3      	adds	r3, r2, r3
    c0fa:	681b      	ldr	r3, [r3, #0]
    c0fc:	469f      	mov	pc, r3
    c0fe:	2308      	movs	r3, #8
    c100:	60fb      	str	r3, [r7, #12]
    c102:	e01b      	b.n	c13c <system_clock_source_is_ready+0x60>
    c104:	2304      	movs	r3, #4
    c106:	60fb      	str	r3, [r7, #12]
    c108:	e018      	b.n	c13c <system_clock_source_is_ready+0x60>
    c10a:	2301      	movs	r3, #1
    c10c:	60fb      	str	r3, [r7, #12]
    c10e:	e015      	b.n	c13c <system_clock_source_is_ready+0x60>
    c110:	2302      	movs	r3, #2
    c112:	60fb      	str	r3, [r7, #12]
    c114:	e012      	b.n	c13c <system_clock_source_is_ready+0x60>
    c116:	2310      	movs	r3, #16
    c118:	60fb      	str	r3, [r7, #12]
    c11a:	e00f      	b.n	c13c <system_clock_source_is_ready+0x60>
    c11c:	4a0f      	ldr	r2, [pc, #60]	; (c15c <system_clock_source_is_ready+0x80>)
    c11e:	2350      	movs	r3, #80	; 0x50
    c120:	5cd3      	ldrb	r3, [r2, r3]
    c122:	b2db      	uxtb	r3, r3
    c124:	001a      	movs	r2, r3
    c126:	2303      	movs	r3, #3
    c128:	4013      	ands	r3, r2
    c12a:	3b03      	subs	r3, #3
    c12c:	425a      	negs	r2, r3
    c12e:	4153      	adcs	r3, r2
    c130:	b2db      	uxtb	r3, r3
    c132:	e00c      	b.n	c14e <system_clock_source_is_ready+0x72>
    c134:	2301      	movs	r3, #1
    c136:	e00a      	b.n	c14e <system_clock_source_is_ready+0x72>
    c138:	2300      	movs	r3, #0
    c13a:	e008      	b.n	c14e <system_clock_source_is_ready+0x72>
    c13c:	4b07      	ldr	r3, [pc, #28]	; (c15c <system_clock_source_is_ready+0x80>)
    c13e:	68db      	ldr	r3, [r3, #12]
    c140:	68fa      	ldr	r2, [r7, #12]
    c142:	401a      	ands	r2, r3
    c144:	68fb      	ldr	r3, [r7, #12]
    c146:	1ad3      	subs	r3, r2, r3
    c148:	425a      	negs	r2, r3
    c14a:	4153      	adcs	r3, r2
    c14c:	b2db      	uxtb	r3, r3
    c14e:	0018      	movs	r0, r3
    c150:	46bd      	mov	sp, r7
    c152:	b004      	add	sp, #16
    c154:	bd80      	pop	{r7, pc}
    c156:	46c0      	nop			; (mov r8, r8)
    c158:	00012298 	.word	0x00012298
    c15c:	40000800 	.word	0x40000800

0000c160 <_switch_peripheral_gclk>:
    c160:	b580      	push	{r7, lr}
    c162:	b082      	sub	sp, #8
    c164:	af00      	add	r7, sp, #0
    c166:	003b      	movs	r3, r7
    c168:	2201      	movs	r2, #1
    c16a:	701a      	strb	r2, [r3, #0]
    c16c:	2300      	movs	r3, #0
    c16e:	607b      	str	r3, [r7, #4]
    c170:	e009      	b.n	c186 <_switch_peripheral_gclk+0x26>
    c172:	687b      	ldr	r3, [r7, #4]
    c174:	b2db      	uxtb	r3, r3
    c176:	003a      	movs	r2, r7
    c178:	0011      	movs	r1, r2
    c17a:	0018      	movs	r0, r3
    c17c:	4b05      	ldr	r3, [pc, #20]	; (c194 <_switch_peripheral_gclk+0x34>)
    c17e:	4798      	blx	r3
    c180:	687b      	ldr	r3, [r7, #4]
    c182:	3301      	adds	r3, #1
    c184:	607b      	str	r3, [r7, #4]
    c186:	687b      	ldr	r3, [r7, #4]
    c188:	2b24      	cmp	r3, #36	; 0x24
    c18a:	d9f2      	bls.n	c172 <_switch_peripheral_gclk+0x12>
    c18c:	46c0      	nop			; (mov r8, r8)
    c18e:	46bd      	mov	sp, r7
    c190:	b002      	add	sp, #8
    c192:	bd80      	pop	{r7, pc}
    c194:	00009079 	.word	0x00009079

0000c198 <system_clock_init>:
    c198:	b580      	push	{r7, lr}
    c19a:	b0aa      	sub	sp, #168	; 0xa8
    c19c:	af00      	add	r7, sp, #0
    c19e:	0002      	movs	r2, r0
    c1a0:	1dfb      	adds	r3, r7, #7
    c1a2:	701a      	strb	r2, [r3, #0]
    c1a4:	4b98      	ldr	r3, [pc, #608]	; (c408 <system_clock_init+0x270>)
    c1a6:	22c2      	movs	r2, #194	; 0xc2
    c1a8:	00d2      	lsls	r2, r2, #3
    c1aa:	609a      	str	r2, [r3, #8]
    c1ac:	2001      	movs	r0, #1
    c1ae:	4b97      	ldr	r3, [pc, #604]	; (c40c <system_clock_init+0x274>)
    c1b0:	4798      	blx	r3
    c1b2:	4b97      	ldr	r3, [pc, #604]	; (c410 <system_clock_init+0x278>)
    c1b4:	4798      	blx	r3
    c1b6:	4a94      	ldr	r2, [pc, #592]	; (c408 <system_clock_init+0x270>)
    c1b8:	4b96      	ldr	r3, [pc, #600]	; (c414 <system_clock_init+0x27c>)
    c1ba:	681b      	ldr	r3, [r3, #0]
    c1bc:	099b      	lsrs	r3, r3, #6
    c1be:	b2db      	uxtb	r3, r3
    c1c0:	1c19      	adds	r1, r3, #0
    c1c2:	237f      	movs	r3, #127	; 0x7f
    c1c4:	400b      	ands	r3, r1
    c1c6:	b2d9      	uxtb	r1, r3
    c1c8:	6993      	ldr	r3, [r2, #24]
    c1ca:	207f      	movs	r0, #127	; 0x7f
    c1cc:	4001      	ands	r1, r0
    c1ce:	0409      	lsls	r1, r1, #16
    c1d0:	4891      	ldr	r0, [pc, #580]	; (c418 <system_clock_init+0x280>)
    c1d2:	4003      	ands	r3, r0
    c1d4:	430b      	orrs	r3, r1
    c1d6:	6193      	str	r3, [r2, #24]
    c1d8:	239c      	movs	r3, #156	; 0x9c
    c1da:	18fb      	adds	r3, r7, r3
    c1dc:	0018      	movs	r0, r3
    c1de:	4b8f      	ldr	r3, [pc, #572]	; (c41c <system_clock_init+0x284>)
    c1e0:	4798      	blx	r3
    c1e2:	239c      	movs	r3, #156	; 0x9c
    c1e4:	18fb      	adds	r3, r7, r3
    c1e6:	2207      	movs	r2, #7
    c1e8:	701a      	strb	r2, [r3, #0]
    c1ea:	239c      	movs	r3, #156	; 0x9c
    c1ec:	18fb      	adds	r3, r7, r3
    c1ee:	2201      	movs	r2, #1
    c1f0:	705a      	strb	r2, [r3, #1]
    c1f2:	239c      	movs	r3, #156	; 0x9c
    c1f4:	18fb      	adds	r3, r7, r3
    c1f6:	2201      	movs	r2, #1
    c1f8:	709a      	strb	r2, [r3, #2]
    c1fa:	239c      	movs	r3, #156	; 0x9c
    c1fc:	18fb      	adds	r3, r7, r3
    c1fe:	2201      	movs	r2, #1
    c200:	711a      	strb	r2, [r3, #4]
    c202:	239c      	movs	r3, #156	; 0x9c
    c204:	18fb      	adds	r3, r7, r3
    c206:	2201      	movs	r2, #1
    c208:	70da      	strb	r2, [r3, #3]
    c20a:	239c      	movs	r3, #156	; 0x9c
    c20c:	18fb      	adds	r3, r7, r3
    c20e:	0018      	movs	r0, r3
    c210:	4b83      	ldr	r3, [pc, #524]	; (c420 <system_clock_init+0x288>)
    c212:	4798      	blx	r3
    c214:	2004      	movs	r0, #4
    c216:	4b83      	ldr	r3, [pc, #524]	; (c424 <system_clock_init+0x28c>)
    c218:	4798      	blx	r3
    c21a:	1dfb      	adds	r3, r7, #7
    c21c:	781b      	ldrb	r3, [r3, #0]
    c21e:	2201      	movs	r2, #1
    c220:	4053      	eors	r3, r2
    c222:	b2db      	uxtb	r3, r3
    c224:	2b00      	cmp	r3, #0
    c226:	d05c      	beq.n	c2e2 <system_clock_init+0x14a>
    c228:	2378      	movs	r3, #120	; 0x78
    c22a:	18fb      	adds	r3, r7, r3
    c22c:	0018      	movs	r0, r3
    c22e:	4b7e      	ldr	r3, [pc, #504]	; (c428 <system_clock_init+0x290>)
    c230:	4798      	blx	r3
    c232:	2378      	movs	r3, #120	; 0x78
    c234:	18fb      	adds	r3, r7, r3
    c236:	2220      	movs	r2, #32
    c238:	701a      	strb	r2, [r3, #0]
    c23a:	2378      	movs	r3, #120	; 0x78
    c23c:	18fb      	adds	r3, r7, r3
    c23e:	2200      	movs	r2, #0
    c240:	705a      	strb	r2, [r3, #1]
    c242:	4b74      	ldr	r3, [pc, #464]	; (c414 <system_clock_init+0x27c>)
    c244:	681b      	ldr	r3, [r3, #0]
    c246:	0e9b      	lsrs	r3, r3, #26
    c248:	22a4      	movs	r2, #164	; 0xa4
    c24a:	18ba      	adds	r2, r7, r2
    c24c:	6013      	str	r3, [r2, #0]
    c24e:	23a4      	movs	r3, #164	; 0xa4
    c250:	18fb      	adds	r3, r7, r3
    c252:	681b      	ldr	r3, [r3, #0]
    c254:	2b3f      	cmp	r3, #63	; 0x3f
    c256:	d103      	bne.n	c260 <system_clock_init+0xc8>
    c258:	231f      	movs	r3, #31
    c25a:	22a4      	movs	r2, #164	; 0xa4
    c25c:	18ba      	adds	r2, r7, r2
    c25e:	6013      	str	r3, [r2, #0]
    c260:	23a4      	movs	r3, #164	; 0xa4
    c262:	18fb      	adds	r3, r7, r3
    c264:	681b      	ldr	r3, [r3, #0]
    c266:	b2da      	uxtb	r2, r3
    c268:	2378      	movs	r3, #120	; 0x78
    c26a:	18fb      	adds	r3, r7, r3
    c26c:	721a      	strb	r2, [r3, #8]
    c26e:	2378      	movs	r3, #120	; 0x78
    c270:	18fb      	adds	r3, r7, r3
    c272:	2200      	movs	r2, #0
    c274:	805a      	strh	r2, [r3, #2]
    c276:	2378      	movs	r3, #120	; 0x78
    c278:	18fb      	adds	r3, r7, r3
    c27a:	2200      	movs	r2, #0
    c27c:	71da      	strb	r2, [r3, #7]
    c27e:	2378      	movs	r3, #120	; 0x78
    c280:	18fb      	adds	r3, r7, r3
    c282:	2200      	movs	r2, #0
    c284:	719a      	strb	r2, [r3, #6]
    c286:	2378      	movs	r3, #120	; 0x78
    c288:	18fb      	adds	r3, r7, r3
    c28a:	2200      	movs	r2, #0
    c28c:	809a      	strh	r2, [r3, #4]
    c28e:	2378      	movs	r3, #120	; 0x78
    c290:	18fb      	adds	r3, r7, r3
    c292:	2207      	movs	r2, #7
    c294:	731a      	strb	r2, [r3, #12]
    c296:	2378      	movs	r3, #120	; 0x78
    c298:	18fb      	adds	r3, r7, r3
    c29a:	223f      	movs	r2, #63	; 0x3f
    c29c:	81da      	strh	r2, [r3, #14]
    c29e:	2378      	movs	r3, #120	; 0x78
    c2a0:	18fb      	adds	r3, r7, r3
    c2a2:	220a      	movs	r2, #10
    c2a4:	81da      	strh	r2, [r3, #14]
    c2a6:	2378      	movs	r3, #120	; 0x78
    c2a8:	18fb      	adds	r3, r7, r3
    c2aa:	4a60      	ldr	r2, [pc, #384]	; (c42c <system_clock_init+0x294>)
    c2ac:	815a      	strh	r2, [r3, #10]
    c2ae:	2378      	movs	r3, #120	; 0x78
    c2b0:	18fb      	adds	r3, r7, r3
    c2b2:	2200      	movs	r2, #0
    c2b4:	805a      	strh	r2, [r3, #2]
    c2b6:	2378      	movs	r3, #120	; 0x78
    c2b8:	18fb      	adds	r3, r7, r3
    c2ba:	2200      	movs	r2, #0
    c2bc:	71da      	strb	r2, [r3, #7]
    c2be:	2378      	movs	r3, #120	; 0x78
    c2c0:	18fb      	adds	r3, r7, r3
    c2c2:	2200      	movs	r2, #0
    c2c4:	719a      	strb	r2, [r3, #6]
    c2c6:	2378      	movs	r3, #120	; 0x78
    c2c8:	18fb      	adds	r3, r7, r3
    c2ca:	2280      	movs	r2, #128	; 0x80
    c2cc:	0052      	lsls	r2, r2, #1
    c2ce:	809a      	strh	r2, [r3, #4]
    c2d0:	2378      	movs	r3, #120	; 0x78
    c2d2:	18fb      	adds	r3, r7, r3
    c2d4:	4a56      	ldr	r2, [pc, #344]	; (c430 <system_clock_init+0x298>)
    c2d6:	821a      	strh	r2, [r3, #16]
    c2d8:	2378      	movs	r3, #120	; 0x78
    c2da:	18fb      	adds	r3, r7, r3
    c2dc:	0018      	movs	r0, r3
    c2de:	4b55      	ldr	r3, [pc, #340]	; (c434 <system_clock_init+0x29c>)
    c2e0:	4798      	blx	r3
    c2e2:	2398      	movs	r3, #152	; 0x98
    c2e4:	18fb      	adds	r3, r7, r3
    c2e6:	0018      	movs	r0, r3
    c2e8:	4b53      	ldr	r3, [pc, #332]	; (c438 <system_clock_init+0x2a0>)
    c2ea:	4798      	blx	r3
    c2ec:	2398      	movs	r3, #152	; 0x98
    c2ee:	18fb      	adds	r3, r7, r3
    c2f0:	2200      	movs	r2, #0
    c2f2:	701a      	strb	r2, [r3, #0]
    c2f4:	2398      	movs	r3, #152	; 0x98
    c2f6:	18fb      	adds	r3, r7, r3
    c2f8:	2201      	movs	r2, #1
    c2fa:	709a      	strb	r2, [r3, #2]
    c2fc:	2398      	movs	r3, #152	; 0x98
    c2fe:	18fb      	adds	r3, r7, r3
    c300:	2200      	movs	r2, #0
    c302:	705a      	strb	r2, [r3, #1]
    c304:	2398      	movs	r3, #152	; 0x98
    c306:	18fb      	adds	r3, r7, r3
    c308:	0018      	movs	r0, r3
    c30a:	4b4c      	ldr	r3, [pc, #304]	; (c43c <system_clock_init+0x2a4>)
    c30c:	4798      	blx	r3
    c30e:	2006      	movs	r0, #6
    c310:	4b44      	ldr	r3, [pc, #272]	; (c424 <system_clock_init+0x28c>)
    c312:	4798      	blx	r3
    c314:	4b4a      	ldr	r3, [pc, #296]	; (c440 <system_clock_init+0x2a8>)
    c316:	4798      	blx	r3
    c318:	2354      	movs	r3, #84	; 0x54
    c31a:	18fb      	adds	r3, r7, r3
    c31c:	0018      	movs	r0, r3
    c31e:	4b49      	ldr	r3, [pc, #292]	; (c444 <system_clock_init+0x2ac>)
    c320:	4798      	blx	r3
    c322:	2354      	movs	r3, #84	; 0x54
    c324:	18fb      	adds	r3, r7, r3
    c326:	2204      	movs	r2, #4
    c328:	701a      	strb	r2, [r3, #0]
    c32a:	2354      	movs	r3, #84	; 0x54
    c32c:	18fb      	adds	r3, r7, r3
    c32e:	2220      	movs	r2, #32
    c330:	605a      	str	r2, [r3, #4]
    c332:	2354      	movs	r3, #84	; 0x54
    c334:	18fb      	adds	r3, r7, r3
    c336:	2201      	movs	r2, #1
    c338:	721a      	strb	r2, [r3, #8]
    c33a:	2354      	movs	r3, #84	; 0x54
    c33c:	18fb      	adds	r3, r7, r3
    c33e:	2200      	movs	r2, #0
    c340:	725a      	strb	r2, [r3, #9]
    c342:	2354      	movs	r3, #84	; 0x54
    c344:	18fb      	adds	r3, r7, r3
    c346:	0019      	movs	r1, r3
    c348:	2002      	movs	r0, #2
    c34a:	4b3f      	ldr	r3, [pc, #252]	; (c448 <system_clock_init+0x2b0>)
    c34c:	4798      	blx	r3
    c34e:	2002      	movs	r0, #2
    c350:	4b3e      	ldr	r3, [pc, #248]	; (c44c <system_clock_init+0x2b4>)
    c352:	4798      	blx	r3
    c354:	2007      	movs	r0, #7
    c356:	4b33      	ldr	r3, [pc, #204]	; (c424 <system_clock_init+0x28c>)
    c358:	4798      	blx	r3
    c35a:	46c0      	nop			; (mov r8, r8)
    c35c:	2007      	movs	r0, #7
    c35e:	4b3c      	ldr	r3, [pc, #240]	; (c450 <system_clock_init+0x2b8>)
    c360:	4798      	blx	r3
    c362:	0003      	movs	r3, r0
    c364:	001a      	movs	r2, r3
    c366:	2301      	movs	r3, #1
    c368:	4053      	eors	r3, r2
    c36a:	b2db      	uxtb	r3, r3
    c36c:	2b00      	cmp	r3, #0
    c36e:	d1f5      	bne.n	c35c <system_clock_init+0x1c4>
    c370:	4a25      	ldr	r2, [pc, #148]	; (c408 <system_clock_init+0x270>)
    c372:	8c93      	ldrh	r3, [r2, #36]	; 0x24
    c374:	2180      	movs	r1, #128	; 0x80
    c376:	430b      	orrs	r3, r1
    c378:	8493      	strh	r3, [r2, #36]	; 0x24
    c37a:	2000      	movs	r0, #0
    c37c:	4b35      	ldr	r3, [pc, #212]	; (c454 <system_clock_init+0x2bc>)
    c37e:	4798      	blx	r3
    c380:	2100      	movs	r1, #0
    c382:	2000      	movs	r0, #0
    c384:	4b34      	ldr	r3, [pc, #208]	; (c458 <system_clock_init+0x2c0>)
    c386:	4798      	blx	r3
    c388:	2100      	movs	r1, #0
    c38a:	2001      	movs	r0, #1
    c38c:	4b32      	ldr	r3, [pc, #200]	; (c458 <system_clock_init+0x2c0>)
    c38e:	4798      	blx	r3
    c390:	2100      	movs	r1, #0
    c392:	2002      	movs	r0, #2
    c394:	4b30      	ldr	r3, [pc, #192]	; (c458 <system_clock_init+0x2c0>)
    c396:	4798      	blx	r3
    c398:	238c      	movs	r3, #140	; 0x8c
    c39a:	18fb      	adds	r3, r7, r3
    c39c:	0018      	movs	r0, r3
    c39e:	4b29      	ldr	r3, [pc, #164]	; (c444 <system_clock_init+0x2ac>)
    c3a0:	4798      	blx	r3
    c3a2:	1dfb      	adds	r3, r7, #7
    c3a4:	781b      	ldrb	r3, [r3, #0]
    c3a6:	2b00      	cmp	r3, #0
    c3a8:	d010      	beq.n	c3cc <system_clock_init+0x234>
    c3aa:	238c      	movs	r3, #140	; 0x8c
    c3ac:	18fb      	adds	r3, r7, r3
    c3ae:	2206      	movs	r2, #6
    c3b0:	701a      	strb	r2, [r3, #0]
    c3b2:	238c      	movs	r3, #140	; 0x8c
    c3b4:	18fb      	adds	r3, r7, r3
    c3b6:	2202      	movs	r2, #2
    c3b8:	605a      	str	r2, [r3, #4]
    c3ba:	238c      	movs	r3, #140	; 0x8c
    c3bc:	18fb      	adds	r3, r7, r3
    c3be:	2200      	movs	r2, #0
    c3c0:	721a      	strb	r2, [r3, #8]
    c3c2:	238c      	movs	r3, #140	; 0x8c
    c3c4:	18fb      	adds	r3, r7, r3
    c3c6:	2200      	movs	r2, #0
    c3c8:	725a      	strb	r2, [r3, #9]
    c3ca:	e00f      	b.n	c3ec <system_clock_init+0x254>
    c3cc:	238c      	movs	r3, #140	; 0x8c
    c3ce:	18fb      	adds	r3, r7, r3
    c3d0:	2207      	movs	r2, #7
    c3d2:	701a      	strb	r2, [r3, #0]
    c3d4:	238c      	movs	r3, #140	; 0x8c
    c3d6:	18fb      	adds	r3, r7, r3
    c3d8:	2201      	movs	r2, #1
    c3da:	605a      	str	r2, [r3, #4]
    c3dc:	238c      	movs	r3, #140	; 0x8c
    c3de:	18fb      	adds	r3, r7, r3
    c3e0:	2200      	movs	r2, #0
    c3e2:	721a      	strb	r2, [r3, #8]
    c3e4:	238c      	movs	r3, #140	; 0x8c
    c3e6:	18fb      	adds	r3, r7, r3
    c3e8:	2200      	movs	r2, #0
    c3ea:	725a      	strb	r2, [r3, #9]
    c3ec:	238c      	movs	r3, #140	; 0x8c
    c3ee:	18fb      	adds	r3, r7, r3
    c3f0:	0019      	movs	r1, r3
    c3f2:	2000      	movs	r0, #0
    c3f4:	4b14      	ldr	r3, [pc, #80]	; (c448 <system_clock_init+0x2b0>)
    c3f6:	4798      	blx	r3
    c3f8:	2000      	movs	r0, #0
    c3fa:	4b14      	ldr	r3, [pc, #80]	; (c44c <system_clock_init+0x2b4>)
    c3fc:	4798      	blx	r3
    c3fe:	46c0      	nop			; (mov r8, r8)
    c400:	46bd      	mov	sp, r7
    c402:	b02a      	add	sp, #168	; 0xa8
    c404:	bd80      	pop	{r7, pc}
    c406:	46c0      	nop			; (mov r8, r8)
    c408:	40000800 	.word	0x40000800
    c40c:	0000bd05 	.word	0x0000bd05
    c410:	0000c161 	.word	0x0000c161
    c414:	00806024 	.word	0x00806024
    c418:	ff80ffff 	.word	0xff80ffff
    c41c:	0000bbe7 	.word	0x0000bbe7
    c420:	0000be95 	.word	0x0000be95
    c424:	0000c031 	.word	0x0000c031
    c428:	0000bc3d 	.word	0x0000bc3d
    c42c:	000001ff 	.word	0x000001ff
    c430:	ffffbb80 	.word	0xffffbb80
    c434:	0000bf61 	.word	0x0000bf61
    c438:	0000bc1b 	.word	0x0000bc1b
    c43c:	0000be1d 	.word	0x0000be1d
    c440:	00008df1 	.word	0x00008df1
    c444:	0000bbb9 	.word	0x0000bbb9
    c448:	00008e21 	.word	0x00008e21
    c44c:	00008f45 	.word	0x00008f45
    c450:	0000c0dd 	.word	0x0000c0dd
    c454:	0000bc91 	.word	0x0000bc91
    c458:	0000bcb1 	.word	0x0000bcb1

0000c45c <system_interrupt_set_priority>:
    c45c:	b590      	push	{r4, r7, lr}
    c45e:	b085      	sub	sp, #20
    c460:	af00      	add	r7, sp, #0
    c462:	0002      	movs	r2, r0
    c464:	1dfb      	adds	r3, r7, #7
    c466:	701a      	strb	r2, [r3, #0]
    c468:	1dbb      	adds	r3, r7, #6
    c46a:	1c0a      	adds	r2, r1, #0
    c46c:	701a      	strb	r2, [r3, #0]
    c46e:	230f      	movs	r3, #15
    c470:	18fb      	adds	r3, r7, r3
    c472:	2200      	movs	r2, #0
    c474:	701a      	strb	r2, [r3, #0]
    c476:	1dfb      	adds	r3, r7, #7
    c478:	781b      	ldrb	r3, [r3, #0]
    c47a:	2b7f      	cmp	r3, #127	; 0x7f
    c47c:	d83c      	bhi.n	c4f8 <system_interrupt_set_priority+0x9c>
    c47e:	1dfb      	adds	r3, r7, #7
    c480:	781b      	ldrb	r3, [r3, #0]
    c482:	b25b      	sxtb	r3, r3
    c484:	2b00      	cmp	r3, #0
    c486:	da00      	bge.n	c48a <system_interrupt_set_priority+0x2e>
    c488:	3303      	adds	r3, #3
    c48a:	109b      	asrs	r3, r3, #2
    c48c:	b25a      	sxtb	r2, r3
    c48e:	230e      	movs	r3, #14
    c490:	18fb      	adds	r3, r7, r3
    c492:	701a      	strb	r2, [r3, #0]
    c494:	1dfb      	adds	r3, r7, #7
    c496:	781b      	ldrb	r3, [r3, #0]
    c498:	b25b      	sxtb	r3, r3
    c49a:	4a22      	ldr	r2, [pc, #136]	; (c524 <system_interrupt_set_priority+0xc8>)
    c49c:	4013      	ands	r3, r2
    c49e:	d504      	bpl.n	c4aa <system_interrupt_set_priority+0x4e>
    c4a0:	3b01      	subs	r3, #1
    c4a2:	2204      	movs	r2, #4
    c4a4:	4252      	negs	r2, r2
    c4a6:	4313      	orrs	r3, r2
    c4a8:	3301      	adds	r3, #1
    c4aa:	b25b      	sxtb	r3, r3
    c4ac:	b2db      	uxtb	r3, r3
    c4ae:	00db      	lsls	r3, r3, #3
    c4b0:	b2da      	uxtb	r2, r3
    c4b2:	230d      	movs	r3, #13
    c4b4:	18fb      	adds	r3, r7, r3
    c4b6:	3206      	adds	r2, #6
    c4b8:	701a      	strb	r2, [r3, #0]
    c4ba:	4c1b      	ldr	r4, [pc, #108]	; (c528 <system_interrupt_set_priority+0xcc>)
    c4bc:	230e      	movs	r3, #14
    c4be:	18fb      	adds	r3, r7, r3
    c4c0:	781b      	ldrb	r3, [r3, #0]
    c4c2:	4919      	ldr	r1, [pc, #100]	; (c528 <system_interrupt_set_priority+0xcc>)
    c4c4:	220e      	movs	r2, #14
    c4c6:	18ba      	adds	r2, r7, r2
    c4c8:	7812      	ldrb	r2, [r2, #0]
    c4ca:	32c0      	adds	r2, #192	; 0xc0
    c4cc:	0092      	lsls	r2, r2, #2
    c4ce:	5852      	ldr	r2, [r2, r1]
    c4d0:	210d      	movs	r1, #13
    c4d2:	1879      	adds	r1, r7, r1
    c4d4:	7809      	ldrb	r1, [r1, #0]
    c4d6:	2003      	movs	r0, #3
    c4d8:	4088      	lsls	r0, r1
    c4da:	0001      	movs	r1, r0
    c4dc:	43c9      	mvns	r1, r1
    c4de:	400a      	ands	r2, r1
    c4e0:	1db9      	adds	r1, r7, #6
    c4e2:	7808      	ldrb	r0, [r1, #0]
    c4e4:	210d      	movs	r1, #13
    c4e6:	1879      	adds	r1, r7, r1
    c4e8:	7809      	ldrb	r1, [r1, #0]
    c4ea:	4088      	lsls	r0, r1
    c4ec:	0001      	movs	r1, r0
    c4ee:	430a      	orrs	r2, r1
    c4f0:	33c0      	adds	r3, #192	; 0xc0
    c4f2:	009b      	lsls	r3, r3, #2
    c4f4:	511a      	str	r2, [r3, r4]
    c4f6:	e00e      	b.n	c516 <system_interrupt_set_priority+0xba>
    c4f8:	1dfb      	adds	r3, r7, #7
    c4fa:	781b      	ldrb	r3, [r3, #0]
    c4fc:	b25b      	sxtb	r3, r3
    c4fe:	3301      	adds	r3, #1
    c500:	d105      	bne.n	c50e <system_interrupt_set_priority+0xb2>
    c502:	4b0a      	ldr	r3, [pc, #40]	; (c52c <system_interrupt_set_priority+0xd0>)
    c504:	1dba      	adds	r2, r7, #6
    c506:	7812      	ldrb	r2, [r2, #0]
    c508:	0792      	lsls	r2, r2, #30
    c50a:	621a      	str	r2, [r3, #32]
    c50c:	e003      	b.n	c516 <system_interrupt_set_priority+0xba>
    c50e:	230f      	movs	r3, #15
    c510:	18fb      	adds	r3, r7, r3
    c512:	2217      	movs	r2, #23
    c514:	701a      	strb	r2, [r3, #0]
    c516:	230f      	movs	r3, #15
    c518:	18fb      	adds	r3, r7, r3
    c51a:	781b      	ldrb	r3, [r3, #0]
    c51c:	0018      	movs	r0, r3
    c51e:	46bd      	mov	sp, r7
    c520:	b005      	add	sp, #20
    c522:	bd90      	pop	{r4, r7, pc}
    c524:	80000003 	.word	0x80000003
    c528:	e000e100 	.word	0xe000e100
    c52c:	e000ed00 	.word	0xe000ed00

0000c530 <system_interrupt_enable>:
    c530:	b580      	push	{r7, lr}
    c532:	b082      	sub	sp, #8
    c534:	af00      	add	r7, sp, #0
    c536:	0002      	movs	r2, r0
    c538:	1dfb      	adds	r3, r7, #7
    c53a:	701a      	strb	r2, [r3, #0]
    c53c:	4b06      	ldr	r3, [pc, #24]	; (c558 <system_interrupt_enable+0x28>)
    c53e:	1dfa      	adds	r2, r7, #7
    c540:	7812      	ldrb	r2, [r2, #0]
    c542:	0011      	movs	r1, r2
    c544:	221f      	movs	r2, #31
    c546:	400a      	ands	r2, r1
    c548:	2101      	movs	r1, #1
    c54a:	4091      	lsls	r1, r2
    c54c:	000a      	movs	r2, r1
    c54e:	601a      	str	r2, [r3, #0]
    c550:	46c0      	nop			; (mov r8, r8)
    c552:	46bd      	mov	sp, r7
    c554:	b002      	add	sp, #8
    c556:	bd80      	pop	{r7, pc}
    c558:	e000e100 	.word	0xe000e100

0000c55c <system_interrupt_disable>:
    c55c:	b580      	push	{r7, lr}
    c55e:	b082      	sub	sp, #8
    c560:	af00      	add	r7, sp, #0
    c562:	0002      	movs	r2, r0
    c564:	1dfb      	adds	r3, r7, #7
    c566:	701a      	strb	r2, [r3, #0]
    c568:	4a07      	ldr	r2, [pc, #28]	; (c588 <system_interrupt_disable+0x2c>)
    c56a:	1dfb      	adds	r3, r7, #7
    c56c:	781b      	ldrb	r3, [r3, #0]
    c56e:	0019      	movs	r1, r3
    c570:	231f      	movs	r3, #31
    c572:	400b      	ands	r3, r1
    c574:	2101      	movs	r1, #1
    c576:	4099      	lsls	r1, r3
    c578:	000b      	movs	r3, r1
    c57a:	0019      	movs	r1, r3
    c57c:	2380      	movs	r3, #128	; 0x80
    c57e:	50d1      	str	r1, [r2, r3]
    c580:	46c0      	nop			; (mov r8, r8)
    c582:	46bd      	mov	sp, r7
    c584:	b002      	add	sp, #8
    c586:	bd80      	pop	{r7, pc}
    c588:	e000e100 	.word	0xe000e100

0000c58c <fnEIC_Handler_Enable_Input_Digital>:
    c58c:	b580      	push	{r7, lr}
    c58e:	af00      	add	r7, sp, #0
    c590:	4b0b      	ldr	r3, [pc, #44]	; (c5c0 <fnEIC_Handler_Enable_Input_Digital+0x34>)
    c592:	2220      	movs	r2, #32
    c594:	60da      	str	r2, [r3, #12]
    c596:	4b0b      	ldr	r3, [pc, #44]	; (c5c4 <fnEIC_Handler_Enable_Input_Digital+0x38>)
    c598:	781b      	ldrb	r3, [r3, #0]
    c59a:	b2db      	uxtb	r3, r3
    c59c:	2201      	movs	r2, #1
    c59e:	4053      	eors	r3, r2
    c5a0:	b2db      	uxtb	r3, r3
    c5a2:	2b00      	cmp	r3, #0
    c5a4:	d002      	beq.n	c5ac <fnEIC_Handler_Enable_Input_Digital+0x20>
    c5a6:	4b06      	ldr	r3, [pc, #24]	; (c5c0 <fnEIC_Handler_Enable_Input_Digital+0x34>)
    c5a8:	2240      	movs	r2, #64	; 0x40
    c5aa:	60da      	str	r2, [r3, #12]
    c5ac:	4b06      	ldr	r3, [pc, #24]	; (c5c8 <fnEIC_Handler_Enable_Input_Digital+0x3c>)
    c5ae:	2201      	movs	r2, #1
    c5b0:	701a      	strb	r2, [r3, #0]
    c5b2:	2004      	movs	r0, #4
    c5b4:	4b05      	ldr	r3, [pc, #20]	; (c5cc <fnEIC_Handler_Enable_Input_Digital+0x40>)
    c5b6:	4798      	blx	r3
    c5b8:	46c0      	nop			; (mov r8, r8)
    c5ba:	46bd      	mov	sp, r7
    c5bc:	bd80      	pop	{r7, pc}
    c5be:	46c0      	nop			; (mov r8, r8)
    c5c0:	40001800 	.word	0x40001800
    c5c4:	20000712 	.word	0x20000712
    c5c8:	20000710 	.word	0x20000710
    c5cc:	0000c531 	.word	0x0000c531

0000c5d0 <fnEIC_Handler_Disable_Input_Digital>:
    c5d0:	b580      	push	{r7, lr}
    c5d2:	af00      	add	r7, sp, #0
    c5d4:	4b06      	ldr	r3, [pc, #24]	; (c5f0 <fnEIC_Handler_Disable_Input_Digital+0x20>)
    c5d6:	2220      	movs	r2, #32
    c5d8:	609a      	str	r2, [r3, #8]
    c5da:	4b05      	ldr	r3, [pc, #20]	; (c5f0 <fnEIC_Handler_Disable_Input_Digital+0x20>)
    c5dc:	2240      	movs	r2, #64	; 0x40
    c5de:	609a      	str	r2, [r3, #8]
    c5e0:	4b04      	ldr	r3, [pc, #16]	; (c5f4 <fnEIC_Handler_Disable_Input_Digital+0x24>)
    c5e2:	2200      	movs	r2, #0
    c5e4:	701a      	strb	r2, [r3, #0]
    c5e6:	4b04      	ldr	r3, [pc, #16]	; (c5f8 <fnEIC_Handler_Disable_Input_Digital+0x28>)
    c5e8:	4798      	blx	r3
    c5ea:	46c0      	nop			; (mov r8, r8)
    c5ec:	46bd      	mov	sp, r7
    c5ee:	bd80      	pop	{r7, pc}
    c5f0:	40001800 	.word	0x40001800
    c5f4:	20000710 	.word	0x20000710
    c5f8:	0000c5fd 	.word	0x0000c5fd

0000c5fc <fnEIC_Disable_Int>:
    c5fc:	b580      	push	{r7, lr}
    c5fe:	af00      	add	r7, sp, #0
    c600:	4b0b      	ldr	r3, [pc, #44]	; (c630 <fnEIC_Disable_Int+0x34>)
    c602:	781b      	ldrb	r3, [r3, #0]
    c604:	b2db      	uxtb	r3, r3
    c606:	2201      	movs	r2, #1
    c608:	4053      	eors	r3, r2
    c60a:	b2db      	uxtb	r3, r3
    c60c:	2b00      	cmp	r3, #0
    c60e:	d00b      	beq.n	c628 <fnEIC_Disable_Int+0x2c>
    c610:	4b08      	ldr	r3, [pc, #32]	; (c634 <fnEIC_Disable_Int+0x38>)
    c612:	781b      	ldrb	r3, [r3, #0]
    c614:	b2db      	uxtb	r3, r3
    c616:	2201      	movs	r2, #1
    c618:	4053      	eors	r3, r2
    c61a:	b2db      	uxtb	r3, r3
    c61c:	2b00      	cmp	r3, #0
    c61e:	d003      	beq.n	c628 <fnEIC_Disable_Int+0x2c>
    c620:	2004      	movs	r0, #4
    c622:	4b05      	ldr	r3, [pc, #20]	; (c638 <fnEIC_Disable_Int+0x3c>)
    c624:	4798      	blx	r3
    c626:	46c0      	nop			; (mov r8, r8)
    c628:	46c0      	nop			; (mov r8, r8)
    c62a:	46bd      	mov	sp, r7
    c62c:	bd80      	pop	{r7, pc}
    c62e:	46c0      	nop			; (mov r8, r8)
    c630:	20000710 	.word	0x20000710
    c634:	20000711 	.word	0x20000711
    c638:	0000c55d 	.word	0x0000c55d

0000c63c <EIC_Handler>:
    c63c:	b580      	push	{r7, lr}
    c63e:	af00      	add	r7, sp, #0
    c640:	4b1c      	ldr	r3, [pc, #112]	; (c6b4 <EIC_Handler+0x78>)
    c642:	691b      	ldr	r3, [r3, #16]
    c644:	2204      	movs	r2, #4
    c646:	4013      	ands	r3, r2
    c648:	d007      	beq.n	c65a <EIC_Handler+0x1e>
    c64a:	4b1a      	ldr	r3, [pc, #104]	; (c6b4 <EIC_Handler+0x78>)
    c64c:	2204      	movs	r2, #4
    c64e:	611a      	str	r2, [r3, #16]
    c650:	4a19      	ldr	r2, [pc, #100]	; (c6b8 <EIC_Handler+0x7c>)
    c652:	8813      	ldrh	r3, [r2, #0]
    c654:	2140      	movs	r1, #64	; 0x40
    c656:	430b      	orrs	r3, r1
    c658:	8013      	strh	r3, [r2, #0]
    c65a:	4b16      	ldr	r3, [pc, #88]	; (c6b4 <EIC_Handler+0x78>)
    c65c:	691b      	ldr	r3, [r3, #16]
    c65e:	2208      	movs	r2, #8
    c660:	4013      	ands	r3, r2
    c662:	d007      	beq.n	c674 <EIC_Handler+0x38>
    c664:	4b13      	ldr	r3, [pc, #76]	; (c6b4 <EIC_Handler+0x78>)
    c666:	2208      	movs	r2, #8
    c668:	611a      	str	r2, [r3, #16]
    c66a:	4a13      	ldr	r2, [pc, #76]	; (c6b8 <EIC_Handler+0x7c>)
    c66c:	8813      	ldrh	r3, [r2, #0]
    c66e:	2180      	movs	r1, #128	; 0x80
    c670:	430b      	orrs	r3, r1
    c672:	8013      	strh	r3, [r2, #0]
    c674:	4b0f      	ldr	r3, [pc, #60]	; (c6b4 <EIC_Handler+0x78>)
    c676:	691b      	ldr	r3, [r3, #16]
    c678:	2220      	movs	r2, #32
    c67a:	4013      	ands	r3, r2
    c67c:	d004      	beq.n	c688 <EIC_Handler+0x4c>
    c67e:	4b0d      	ldr	r3, [pc, #52]	; (c6b4 <EIC_Handler+0x78>)
    c680:	2220      	movs	r2, #32
    c682:	611a      	str	r2, [r3, #16]
    c684:	4b0d      	ldr	r3, [pc, #52]	; (c6bc <EIC_Handler+0x80>)
    c686:	4798      	blx	r3
    c688:	4b0a      	ldr	r3, [pc, #40]	; (c6b4 <EIC_Handler+0x78>)
    c68a:	691b      	ldr	r3, [r3, #16]
    c68c:	2240      	movs	r2, #64	; 0x40
    c68e:	4013      	ands	r3, r2
    c690:	d00c      	beq.n	c6ac <EIC_Handler+0x70>
    c692:	4b08      	ldr	r3, [pc, #32]	; (c6b4 <EIC_Handler+0x78>)
    c694:	2240      	movs	r2, #64	; 0x40
    c696:	611a      	str	r2, [r3, #16]
    c698:	4b09      	ldr	r3, [pc, #36]	; (c6c0 <EIC_Handler+0x84>)
    c69a:	781b      	ldrb	r3, [r3, #0]
    c69c:	b2db      	uxtb	r3, r3
    c69e:	2201      	movs	r2, #1
    c6a0:	4053      	eors	r3, r2
    c6a2:	b2db      	uxtb	r3, r3
    c6a4:	2b00      	cmp	r3, #0
    c6a6:	d001      	beq.n	c6ac <EIC_Handler+0x70>
    c6a8:	4b04      	ldr	r3, [pc, #16]	; (c6bc <EIC_Handler+0x80>)
    c6aa:	4798      	blx	r3
    c6ac:	46c0      	nop			; (mov r8, r8)
    c6ae:	46bd      	mov	sp, r7
    c6b0:	bd80      	pop	{r7, pc}
    c6b2:	46c0      	nop			; (mov r8, r8)
    c6b4:	40001800 	.word	0x40001800
    c6b8:	20000b68 	.word	0x20000b68
    c6bc:	0000b879 	.word	0x0000b879
    c6c0:	20000712 	.word	0x20000712

0000c6c4 <expandKey>:
    c6c4:	b580      	push	{r7, lr}
    c6c6:	b084      	sub	sp, #16
    c6c8:	af00      	add	r7, sp, #0
    c6ca:	6078      	str	r0, [r7, #4]
    c6cc:	6039      	str	r1, [r7, #0]
    c6ce:	230e      	movs	r3, #14
    c6d0:	18fb      	adds	r3, r7, r3
    c6d2:	2200      	movs	r2, #0
    c6d4:	801a      	strh	r2, [r3, #0]
    c6d6:	e012      	b.n	c6fe <expandKey+0x3a>
    c6d8:	230e      	movs	r3, #14
    c6da:	18fb      	adds	r3, r7, r3
    c6dc:	881b      	ldrh	r3, [r3, #0]
    c6de:	687a      	ldr	r2, [r7, #4]
    c6e0:	18d3      	adds	r3, r2, r3
    c6e2:	220e      	movs	r2, #14
    c6e4:	18ba      	adds	r2, r7, r2
    c6e6:	8812      	ldrh	r2, [r2, #0]
    c6e8:	6839      	ldr	r1, [r7, #0]
    c6ea:	188a      	adds	r2, r1, r2
    c6ec:	7812      	ldrb	r2, [r2, #0]
    c6ee:	701a      	strb	r2, [r3, #0]
    c6f0:	230e      	movs	r3, #14
    c6f2:	18fb      	adds	r3, r7, r3
    c6f4:	881a      	ldrh	r2, [r3, #0]
    c6f6:	230e      	movs	r3, #14
    c6f8:	18fb      	adds	r3, r7, r3
    c6fa:	3201      	adds	r2, #1
    c6fc:	801a      	strh	r2, [r3, #0]
    c6fe:	230e      	movs	r3, #14
    c700:	18fb      	adds	r3, r7, r3
    c702:	881b      	ldrh	r3, [r3, #0]
    c704:	2b0f      	cmp	r3, #15
    c706:	d9e7      	bls.n	c6d8 <expandKey+0x14>
    c708:	230e      	movs	r3, #14
    c70a:	18fb      	adds	r3, r7, r3
    c70c:	2201      	movs	r2, #1
    c70e:	801a      	strh	r2, [r3, #0]
    c710:	e1d4      	b.n	cabc <expandKey+0x3f8>
    c712:	230e      	movs	r3, #14
    c714:	18fb      	adds	r3, r7, r3
    c716:	881b      	ldrh	r3, [r3, #0]
    c718:	011b      	lsls	r3, r3, #4
    c71a:	3b04      	subs	r3, #4
    c71c:	687a      	ldr	r2, [r7, #4]
    c71e:	18d3      	adds	r3, r2, r3
    c720:	781a      	ldrb	r2, [r3, #0]
    c722:	230c      	movs	r3, #12
    c724:	18fb      	adds	r3, r7, r3
    c726:	801a      	strh	r2, [r3, #0]
    c728:	230e      	movs	r3, #14
    c72a:	18fb      	adds	r3, r7, r3
    c72c:	881b      	ldrh	r3, [r3, #0]
    c72e:	011b      	lsls	r3, r3, #4
    c730:	001a      	movs	r2, r3
    c732:	687b      	ldr	r3, [r7, #4]
    c734:	189b      	adds	r3, r3, r2
    c736:	220e      	movs	r2, #14
    c738:	18ba      	adds	r2, r7, r2
    c73a:	8812      	ldrh	r2, [r2, #0]
    c73c:	0112      	lsls	r2, r2, #4
    c73e:	3a03      	subs	r2, #3
    c740:	6879      	ldr	r1, [r7, #4]
    c742:	188a      	adds	r2, r1, r2
    c744:	7812      	ldrb	r2, [r2, #0]
    c746:	0011      	movs	r1, r2
    c748:	4ada      	ldr	r2, [pc, #872]	; (cab4 <expandKey+0x3f0>)
    c74a:	5c51      	ldrb	r1, [r2, r1]
    c74c:	220e      	movs	r2, #14
    c74e:	18ba      	adds	r2, r7, r2
    c750:	8812      	ldrh	r2, [r2, #0]
    c752:	3a01      	subs	r2, #1
    c754:	0112      	lsls	r2, r2, #4
    c756:	0010      	movs	r0, r2
    c758:	687a      	ldr	r2, [r7, #4]
    c75a:	1812      	adds	r2, r2, r0
    c75c:	7812      	ldrb	r2, [r2, #0]
    c75e:	404a      	eors	r2, r1
    c760:	b2d1      	uxtb	r1, r2
    c762:	220e      	movs	r2, #14
    c764:	18ba      	adds	r2, r7, r2
    c766:	8812      	ldrh	r2, [r2, #0]
    c768:	48d3      	ldr	r0, [pc, #844]	; (cab8 <expandKey+0x3f4>)
    c76a:	5c82      	ldrb	r2, [r0, r2]
    c76c:	404a      	eors	r2, r1
    c76e:	b2d2      	uxtb	r2, r2
    c770:	701a      	strb	r2, [r3, #0]
    c772:	230e      	movs	r3, #14
    c774:	18fb      	adds	r3, r7, r3
    c776:	881b      	ldrh	r3, [r3, #0]
    c778:	011b      	lsls	r3, r3, #4
    c77a:	3301      	adds	r3, #1
    c77c:	687a      	ldr	r2, [r7, #4]
    c77e:	18d3      	adds	r3, r2, r3
    c780:	220e      	movs	r2, #14
    c782:	18ba      	adds	r2, r7, r2
    c784:	8812      	ldrh	r2, [r2, #0]
    c786:	0112      	lsls	r2, r2, #4
    c788:	3a02      	subs	r2, #2
    c78a:	6879      	ldr	r1, [r7, #4]
    c78c:	188a      	adds	r2, r1, r2
    c78e:	7812      	ldrb	r2, [r2, #0]
    c790:	0011      	movs	r1, r2
    c792:	4ac8      	ldr	r2, [pc, #800]	; (cab4 <expandKey+0x3f0>)
    c794:	5c51      	ldrb	r1, [r2, r1]
    c796:	220e      	movs	r2, #14
    c798:	18ba      	adds	r2, r7, r2
    c79a:	8812      	ldrh	r2, [r2, #0]
    c79c:	3a01      	subs	r2, #1
    c79e:	0112      	lsls	r2, r2, #4
    c7a0:	3201      	adds	r2, #1
    c7a2:	6878      	ldr	r0, [r7, #4]
    c7a4:	1882      	adds	r2, r0, r2
    c7a6:	7812      	ldrb	r2, [r2, #0]
    c7a8:	404a      	eors	r2, r1
    c7aa:	b2d2      	uxtb	r2, r2
    c7ac:	701a      	strb	r2, [r3, #0]
    c7ae:	230e      	movs	r3, #14
    c7b0:	18fb      	adds	r3, r7, r3
    c7b2:	881b      	ldrh	r3, [r3, #0]
    c7b4:	011b      	lsls	r3, r3, #4
    c7b6:	3302      	adds	r3, #2
    c7b8:	687a      	ldr	r2, [r7, #4]
    c7ba:	18d3      	adds	r3, r2, r3
    c7bc:	220e      	movs	r2, #14
    c7be:	18ba      	adds	r2, r7, r2
    c7c0:	8812      	ldrh	r2, [r2, #0]
    c7c2:	0112      	lsls	r2, r2, #4
    c7c4:	3a01      	subs	r2, #1
    c7c6:	6879      	ldr	r1, [r7, #4]
    c7c8:	188a      	adds	r2, r1, r2
    c7ca:	7812      	ldrb	r2, [r2, #0]
    c7cc:	0011      	movs	r1, r2
    c7ce:	4ab9      	ldr	r2, [pc, #740]	; (cab4 <expandKey+0x3f0>)
    c7d0:	5c51      	ldrb	r1, [r2, r1]
    c7d2:	220e      	movs	r2, #14
    c7d4:	18ba      	adds	r2, r7, r2
    c7d6:	8812      	ldrh	r2, [r2, #0]
    c7d8:	3a01      	subs	r2, #1
    c7da:	0112      	lsls	r2, r2, #4
    c7dc:	3202      	adds	r2, #2
    c7de:	6878      	ldr	r0, [r7, #4]
    c7e0:	1882      	adds	r2, r0, r2
    c7e2:	7812      	ldrb	r2, [r2, #0]
    c7e4:	404a      	eors	r2, r1
    c7e6:	b2d2      	uxtb	r2, r2
    c7e8:	701a      	strb	r2, [r3, #0]
    c7ea:	230e      	movs	r3, #14
    c7ec:	18fb      	adds	r3, r7, r3
    c7ee:	881b      	ldrh	r3, [r3, #0]
    c7f0:	011b      	lsls	r3, r3, #4
    c7f2:	3303      	adds	r3, #3
    c7f4:	687a      	ldr	r2, [r7, #4]
    c7f6:	18d3      	adds	r3, r2, r3
    c7f8:	220c      	movs	r2, #12
    c7fa:	18ba      	adds	r2, r7, r2
    c7fc:	8812      	ldrh	r2, [r2, #0]
    c7fe:	49ad      	ldr	r1, [pc, #692]	; (cab4 <expandKey+0x3f0>)
    c800:	5c89      	ldrb	r1, [r1, r2]
    c802:	220e      	movs	r2, #14
    c804:	18ba      	adds	r2, r7, r2
    c806:	8812      	ldrh	r2, [r2, #0]
    c808:	3a01      	subs	r2, #1
    c80a:	0112      	lsls	r2, r2, #4
    c80c:	3203      	adds	r2, #3
    c80e:	6878      	ldr	r0, [r7, #4]
    c810:	1882      	adds	r2, r0, r2
    c812:	7812      	ldrb	r2, [r2, #0]
    c814:	404a      	eors	r2, r1
    c816:	b2d2      	uxtb	r2, r2
    c818:	701a      	strb	r2, [r3, #0]
    c81a:	230e      	movs	r3, #14
    c81c:	18fb      	adds	r3, r7, r3
    c81e:	881b      	ldrh	r3, [r3, #0]
    c820:	011b      	lsls	r3, r3, #4
    c822:	3304      	adds	r3, #4
    c824:	687a      	ldr	r2, [r7, #4]
    c826:	18d3      	adds	r3, r2, r3
    c828:	220e      	movs	r2, #14
    c82a:	18ba      	adds	r2, r7, r2
    c82c:	8812      	ldrh	r2, [r2, #0]
    c82e:	3a01      	subs	r2, #1
    c830:	0112      	lsls	r2, r2, #4
    c832:	3204      	adds	r2, #4
    c834:	6879      	ldr	r1, [r7, #4]
    c836:	188a      	adds	r2, r1, r2
    c838:	7811      	ldrb	r1, [r2, #0]
    c83a:	220e      	movs	r2, #14
    c83c:	18ba      	adds	r2, r7, r2
    c83e:	8812      	ldrh	r2, [r2, #0]
    c840:	0112      	lsls	r2, r2, #4
    c842:	0010      	movs	r0, r2
    c844:	687a      	ldr	r2, [r7, #4]
    c846:	1812      	adds	r2, r2, r0
    c848:	7812      	ldrb	r2, [r2, #0]
    c84a:	404a      	eors	r2, r1
    c84c:	b2d2      	uxtb	r2, r2
    c84e:	701a      	strb	r2, [r3, #0]
    c850:	230e      	movs	r3, #14
    c852:	18fb      	adds	r3, r7, r3
    c854:	881b      	ldrh	r3, [r3, #0]
    c856:	011b      	lsls	r3, r3, #4
    c858:	3305      	adds	r3, #5
    c85a:	687a      	ldr	r2, [r7, #4]
    c85c:	18d3      	adds	r3, r2, r3
    c85e:	220e      	movs	r2, #14
    c860:	18ba      	adds	r2, r7, r2
    c862:	8812      	ldrh	r2, [r2, #0]
    c864:	3a01      	subs	r2, #1
    c866:	0112      	lsls	r2, r2, #4
    c868:	3205      	adds	r2, #5
    c86a:	6879      	ldr	r1, [r7, #4]
    c86c:	188a      	adds	r2, r1, r2
    c86e:	7811      	ldrb	r1, [r2, #0]
    c870:	220e      	movs	r2, #14
    c872:	18ba      	adds	r2, r7, r2
    c874:	8812      	ldrh	r2, [r2, #0]
    c876:	0112      	lsls	r2, r2, #4
    c878:	3201      	adds	r2, #1
    c87a:	6878      	ldr	r0, [r7, #4]
    c87c:	1882      	adds	r2, r0, r2
    c87e:	7812      	ldrb	r2, [r2, #0]
    c880:	404a      	eors	r2, r1
    c882:	b2d2      	uxtb	r2, r2
    c884:	701a      	strb	r2, [r3, #0]
    c886:	230e      	movs	r3, #14
    c888:	18fb      	adds	r3, r7, r3
    c88a:	881b      	ldrh	r3, [r3, #0]
    c88c:	011b      	lsls	r3, r3, #4
    c88e:	3306      	adds	r3, #6
    c890:	687a      	ldr	r2, [r7, #4]
    c892:	18d3      	adds	r3, r2, r3
    c894:	220e      	movs	r2, #14
    c896:	18ba      	adds	r2, r7, r2
    c898:	8812      	ldrh	r2, [r2, #0]
    c89a:	3a01      	subs	r2, #1
    c89c:	0112      	lsls	r2, r2, #4
    c89e:	3206      	adds	r2, #6
    c8a0:	6879      	ldr	r1, [r7, #4]
    c8a2:	188a      	adds	r2, r1, r2
    c8a4:	7811      	ldrb	r1, [r2, #0]
    c8a6:	220e      	movs	r2, #14
    c8a8:	18ba      	adds	r2, r7, r2
    c8aa:	8812      	ldrh	r2, [r2, #0]
    c8ac:	0112      	lsls	r2, r2, #4
    c8ae:	3202      	adds	r2, #2
    c8b0:	6878      	ldr	r0, [r7, #4]
    c8b2:	1882      	adds	r2, r0, r2
    c8b4:	7812      	ldrb	r2, [r2, #0]
    c8b6:	404a      	eors	r2, r1
    c8b8:	b2d2      	uxtb	r2, r2
    c8ba:	701a      	strb	r2, [r3, #0]
    c8bc:	230e      	movs	r3, #14
    c8be:	18fb      	adds	r3, r7, r3
    c8c0:	881b      	ldrh	r3, [r3, #0]
    c8c2:	011b      	lsls	r3, r3, #4
    c8c4:	3307      	adds	r3, #7
    c8c6:	687a      	ldr	r2, [r7, #4]
    c8c8:	18d3      	adds	r3, r2, r3
    c8ca:	220e      	movs	r2, #14
    c8cc:	18ba      	adds	r2, r7, r2
    c8ce:	8812      	ldrh	r2, [r2, #0]
    c8d0:	3a01      	subs	r2, #1
    c8d2:	0112      	lsls	r2, r2, #4
    c8d4:	3207      	adds	r2, #7
    c8d6:	6879      	ldr	r1, [r7, #4]
    c8d8:	188a      	adds	r2, r1, r2
    c8da:	7811      	ldrb	r1, [r2, #0]
    c8dc:	220e      	movs	r2, #14
    c8de:	18ba      	adds	r2, r7, r2
    c8e0:	8812      	ldrh	r2, [r2, #0]
    c8e2:	0112      	lsls	r2, r2, #4
    c8e4:	3203      	adds	r2, #3
    c8e6:	6878      	ldr	r0, [r7, #4]
    c8e8:	1882      	adds	r2, r0, r2
    c8ea:	7812      	ldrb	r2, [r2, #0]
    c8ec:	404a      	eors	r2, r1
    c8ee:	b2d2      	uxtb	r2, r2
    c8f0:	701a      	strb	r2, [r3, #0]
    c8f2:	230e      	movs	r3, #14
    c8f4:	18fb      	adds	r3, r7, r3
    c8f6:	881b      	ldrh	r3, [r3, #0]
    c8f8:	011b      	lsls	r3, r3, #4
    c8fa:	3308      	adds	r3, #8
    c8fc:	687a      	ldr	r2, [r7, #4]
    c8fe:	18d3      	adds	r3, r2, r3
    c900:	220e      	movs	r2, #14
    c902:	18ba      	adds	r2, r7, r2
    c904:	8812      	ldrh	r2, [r2, #0]
    c906:	3a01      	subs	r2, #1
    c908:	0112      	lsls	r2, r2, #4
    c90a:	3208      	adds	r2, #8
    c90c:	6879      	ldr	r1, [r7, #4]
    c90e:	188a      	adds	r2, r1, r2
    c910:	7811      	ldrb	r1, [r2, #0]
    c912:	220e      	movs	r2, #14
    c914:	18ba      	adds	r2, r7, r2
    c916:	8812      	ldrh	r2, [r2, #0]
    c918:	0112      	lsls	r2, r2, #4
    c91a:	3204      	adds	r2, #4
    c91c:	6878      	ldr	r0, [r7, #4]
    c91e:	1882      	adds	r2, r0, r2
    c920:	7812      	ldrb	r2, [r2, #0]
    c922:	404a      	eors	r2, r1
    c924:	b2d2      	uxtb	r2, r2
    c926:	701a      	strb	r2, [r3, #0]
    c928:	230e      	movs	r3, #14
    c92a:	18fb      	adds	r3, r7, r3
    c92c:	881b      	ldrh	r3, [r3, #0]
    c92e:	011b      	lsls	r3, r3, #4
    c930:	3309      	adds	r3, #9
    c932:	687a      	ldr	r2, [r7, #4]
    c934:	18d3      	adds	r3, r2, r3
    c936:	220e      	movs	r2, #14
    c938:	18ba      	adds	r2, r7, r2
    c93a:	8812      	ldrh	r2, [r2, #0]
    c93c:	3a01      	subs	r2, #1
    c93e:	0112      	lsls	r2, r2, #4
    c940:	3209      	adds	r2, #9
    c942:	6879      	ldr	r1, [r7, #4]
    c944:	188a      	adds	r2, r1, r2
    c946:	7811      	ldrb	r1, [r2, #0]
    c948:	220e      	movs	r2, #14
    c94a:	18ba      	adds	r2, r7, r2
    c94c:	8812      	ldrh	r2, [r2, #0]
    c94e:	0112      	lsls	r2, r2, #4
    c950:	3205      	adds	r2, #5
    c952:	6878      	ldr	r0, [r7, #4]
    c954:	1882      	adds	r2, r0, r2
    c956:	7812      	ldrb	r2, [r2, #0]
    c958:	404a      	eors	r2, r1
    c95a:	b2d2      	uxtb	r2, r2
    c95c:	701a      	strb	r2, [r3, #0]
    c95e:	230e      	movs	r3, #14
    c960:	18fb      	adds	r3, r7, r3
    c962:	881b      	ldrh	r3, [r3, #0]
    c964:	011b      	lsls	r3, r3, #4
    c966:	330a      	adds	r3, #10
    c968:	687a      	ldr	r2, [r7, #4]
    c96a:	18d3      	adds	r3, r2, r3
    c96c:	220e      	movs	r2, #14
    c96e:	18ba      	adds	r2, r7, r2
    c970:	8812      	ldrh	r2, [r2, #0]
    c972:	3a01      	subs	r2, #1
    c974:	0112      	lsls	r2, r2, #4
    c976:	320a      	adds	r2, #10
    c978:	6879      	ldr	r1, [r7, #4]
    c97a:	188a      	adds	r2, r1, r2
    c97c:	7811      	ldrb	r1, [r2, #0]
    c97e:	220e      	movs	r2, #14
    c980:	18ba      	adds	r2, r7, r2
    c982:	8812      	ldrh	r2, [r2, #0]
    c984:	0112      	lsls	r2, r2, #4
    c986:	3206      	adds	r2, #6
    c988:	6878      	ldr	r0, [r7, #4]
    c98a:	1882      	adds	r2, r0, r2
    c98c:	7812      	ldrb	r2, [r2, #0]
    c98e:	404a      	eors	r2, r1
    c990:	b2d2      	uxtb	r2, r2
    c992:	701a      	strb	r2, [r3, #0]
    c994:	230e      	movs	r3, #14
    c996:	18fb      	adds	r3, r7, r3
    c998:	881b      	ldrh	r3, [r3, #0]
    c99a:	011b      	lsls	r3, r3, #4
    c99c:	330b      	adds	r3, #11
    c99e:	687a      	ldr	r2, [r7, #4]
    c9a0:	18d3      	adds	r3, r2, r3
    c9a2:	220e      	movs	r2, #14
    c9a4:	18ba      	adds	r2, r7, r2
    c9a6:	8812      	ldrh	r2, [r2, #0]
    c9a8:	3a01      	subs	r2, #1
    c9aa:	0112      	lsls	r2, r2, #4
    c9ac:	320b      	adds	r2, #11
    c9ae:	6879      	ldr	r1, [r7, #4]
    c9b0:	188a      	adds	r2, r1, r2
    c9b2:	7811      	ldrb	r1, [r2, #0]
    c9b4:	220e      	movs	r2, #14
    c9b6:	18ba      	adds	r2, r7, r2
    c9b8:	8812      	ldrh	r2, [r2, #0]
    c9ba:	0112      	lsls	r2, r2, #4
    c9bc:	3207      	adds	r2, #7
    c9be:	6878      	ldr	r0, [r7, #4]
    c9c0:	1882      	adds	r2, r0, r2
    c9c2:	7812      	ldrb	r2, [r2, #0]
    c9c4:	404a      	eors	r2, r1
    c9c6:	b2d2      	uxtb	r2, r2
    c9c8:	701a      	strb	r2, [r3, #0]
    c9ca:	230e      	movs	r3, #14
    c9cc:	18fb      	adds	r3, r7, r3
    c9ce:	881b      	ldrh	r3, [r3, #0]
    c9d0:	011b      	lsls	r3, r3, #4
    c9d2:	330c      	adds	r3, #12
    c9d4:	687a      	ldr	r2, [r7, #4]
    c9d6:	18d3      	adds	r3, r2, r3
    c9d8:	220e      	movs	r2, #14
    c9da:	18ba      	adds	r2, r7, r2
    c9dc:	8812      	ldrh	r2, [r2, #0]
    c9de:	3a01      	subs	r2, #1
    c9e0:	0112      	lsls	r2, r2, #4
    c9e2:	320c      	adds	r2, #12
    c9e4:	6879      	ldr	r1, [r7, #4]
    c9e6:	188a      	adds	r2, r1, r2
    c9e8:	7811      	ldrb	r1, [r2, #0]
    c9ea:	220e      	movs	r2, #14
    c9ec:	18ba      	adds	r2, r7, r2
    c9ee:	8812      	ldrh	r2, [r2, #0]
    c9f0:	0112      	lsls	r2, r2, #4
    c9f2:	3208      	adds	r2, #8
    c9f4:	6878      	ldr	r0, [r7, #4]
    c9f6:	1882      	adds	r2, r0, r2
    c9f8:	7812      	ldrb	r2, [r2, #0]
    c9fa:	404a      	eors	r2, r1
    c9fc:	b2d2      	uxtb	r2, r2
    c9fe:	701a      	strb	r2, [r3, #0]
    ca00:	230e      	movs	r3, #14
    ca02:	18fb      	adds	r3, r7, r3
    ca04:	881b      	ldrh	r3, [r3, #0]
    ca06:	011b      	lsls	r3, r3, #4
    ca08:	330d      	adds	r3, #13
    ca0a:	687a      	ldr	r2, [r7, #4]
    ca0c:	18d3      	adds	r3, r2, r3
    ca0e:	220e      	movs	r2, #14
    ca10:	18ba      	adds	r2, r7, r2
    ca12:	8812      	ldrh	r2, [r2, #0]
    ca14:	3a01      	subs	r2, #1
    ca16:	0112      	lsls	r2, r2, #4
    ca18:	320d      	adds	r2, #13
    ca1a:	6879      	ldr	r1, [r7, #4]
    ca1c:	188a      	adds	r2, r1, r2
    ca1e:	7811      	ldrb	r1, [r2, #0]
    ca20:	220e      	movs	r2, #14
    ca22:	18ba      	adds	r2, r7, r2
    ca24:	8812      	ldrh	r2, [r2, #0]
    ca26:	0112      	lsls	r2, r2, #4
    ca28:	3209      	adds	r2, #9
    ca2a:	6878      	ldr	r0, [r7, #4]
    ca2c:	1882      	adds	r2, r0, r2
    ca2e:	7812      	ldrb	r2, [r2, #0]
    ca30:	404a      	eors	r2, r1
    ca32:	b2d2      	uxtb	r2, r2
    ca34:	701a      	strb	r2, [r3, #0]
    ca36:	230e      	movs	r3, #14
    ca38:	18fb      	adds	r3, r7, r3
    ca3a:	881b      	ldrh	r3, [r3, #0]
    ca3c:	011b      	lsls	r3, r3, #4
    ca3e:	330e      	adds	r3, #14
    ca40:	687a      	ldr	r2, [r7, #4]
    ca42:	18d3      	adds	r3, r2, r3
    ca44:	220e      	movs	r2, #14
    ca46:	18ba      	adds	r2, r7, r2
    ca48:	8812      	ldrh	r2, [r2, #0]
    ca4a:	3a01      	subs	r2, #1
    ca4c:	0112      	lsls	r2, r2, #4
    ca4e:	320e      	adds	r2, #14
    ca50:	6879      	ldr	r1, [r7, #4]
    ca52:	188a      	adds	r2, r1, r2
    ca54:	7811      	ldrb	r1, [r2, #0]
    ca56:	220e      	movs	r2, #14
    ca58:	18ba      	adds	r2, r7, r2
    ca5a:	8812      	ldrh	r2, [r2, #0]
    ca5c:	0112      	lsls	r2, r2, #4
    ca5e:	320a      	adds	r2, #10
    ca60:	6878      	ldr	r0, [r7, #4]
    ca62:	1882      	adds	r2, r0, r2
    ca64:	7812      	ldrb	r2, [r2, #0]
    ca66:	404a      	eors	r2, r1
    ca68:	b2d2      	uxtb	r2, r2
    ca6a:	701a      	strb	r2, [r3, #0]
    ca6c:	230e      	movs	r3, #14
    ca6e:	18fb      	adds	r3, r7, r3
    ca70:	881b      	ldrh	r3, [r3, #0]
    ca72:	011b      	lsls	r3, r3, #4
    ca74:	330f      	adds	r3, #15
    ca76:	687a      	ldr	r2, [r7, #4]
    ca78:	18d3      	adds	r3, r2, r3
    ca7a:	220e      	movs	r2, #14
    ca7c:	18ba      	adds	r2, r7, r2
    ca7e:	8812      	ldrh	r2, [r2, #0]
    ca80:	3a01      	subs	r2, #1
    ca82:	0112      	lsls	r2, r2, #4
    ca84:	320f      	adds	r2, #15
    ca86:	6879      	ldr	r1, [r7, #4]
    ca88:	188a      	adds	r2, r1, r2
    ca8a:	7811      	ldrb	r1, [r2, #0]
    ca8c:	220e      	movs	r2, #14
    ca8e:	18ba      	adds	r2, r7, r2
    ca90:	8812      	ldrh	r2, [r2, #0]
    ca92:	0112      	lsls	r2, r2, #4
    ca94:	320b      	adds	r2, #11
    ca96:	6878      	ldr	r0, [r7, #4]
    ca98:	1882      	adds	r2, r0, r2
    ca9a:	7812      	ldrb	r2, [r2, #0]
    ca9c:	404a      	eors	r2, r1
    ca9e:	b2d2      	uxtb	r2, r2
    caa0:	701a      	strb	r2, [r3, #0]
    caa2:	230e      	movs	r3, #14
    caa4:	18fb      	adds	r3, r7, r3
    caa6:	881a      	ldrh	r2, [r3, #0]
    caa8:	230e      	movs	r3, #14
    caaa:	18fb      	adds	r3, r7, r3
    caac:	3201      	adds	r2, #1
    caae:	801a      	strh	r2, [r3, #0]
    cab0:	e004      	b.n	cabc <expandKey+0x3f8>
    cab2:	46c0      	nop			; (mov r8, r8)
    cab4:	000122bc 	.word	0x000122bc
    cab8:	000124bc 	.word	0x000124bc
    cabc:	230e      	movs	r3, #14
    cabe:	18fb      	adds	r3, r7, r3
    cac0:	881b      	ldrh	r3, [r3, #0]
    cac2:	2b0a      	cmp	r3, #10
    cac4:	d800      	bhi.n	cac8 <expandKey+0x404>
    cac6:	e624      	b.n	c712 <expandKey+0x4e>
    cac8:	46c0      	nop			; (mov r8, r8)
    caca:	46bd      	mov	sp, r7
    cacc:	b004      	add	sp, #16
    cace:	bd80      	pop	{r7, pc}

0000cad0 <galois_mul2>:
    cad0:	b580      	push	{r7, lr}
    cad2:	b082      	sub	sp, #8
    cad4:	af00      	add	r7, sp, #0
    cad6:	0002      	movs	r2, r0
    cad8:	1dfb      	adds	r3, r7, #7
    cada:	701a      	strb	r2, [r3, #0]
    cadc:	1dfb      	adds	r3, r7, #7
    cade:	781b      	ldrb	r3, [r3, #0]
    cae0:	b25b      	sxtb	r3, r3
    cae2:	2b00      	cmp	r3, #0
    cae4:	da0a      	bge.n	cafc <galois_mul2+0x2c>
    cae6:	1dfa      	adds	r2, r7, #7
    cae8:	1dfb      	adds	r3, r7, #7
    caea:	781b      	ldrb	r3, [r3, #0]
    caec:	18db      	adds	r3, r3, r3
    caee:	7013      	strb	r3, [r2, #0]
    caf0:	1dfb      	adds	r3, r7, #7
    caf2:	781b      	ldrb	r3, [r3, #0]
    caf4:	221b      	movs	r2, #27
    caf6:	4053      	eors	r3, r2
    caf8:	b2db      	uxtb	r3, r3
    cafa:	e003      	b.n	cb04 <galois_mul2+0x34>
    cafc:	1dfb      	adds	r3, r7, #7
    cafe:	781b      	ldrb	r3, [r3, #0]
    cb00:	18db      	adds	r3, r3, r3
    cb02:	b2db      	uxtb	r3, r3
    cb04:	0018      	movs	r0, r3
    cb06:	46bd      	mov	sp, r7
    cb08:	b002      	add	sp, #8
    cb0a:	bd80      	pop	{r7, pc}

0000cb0c <aes_decr>:
    cb0c:	b590      	push	{r4, r7, lr}
    cb0e:	b085      	sub	sp, #20
    cb10:	af00      	add	r7, sp, #0
    cb12:	6078      	str	r0, [r7, #4]
    cb14:	6039      	str	r1, [r7, #0]
    cb16:	230f      	movs	r3, #15
    cb18:	18fb      	adds	r3, r7, r3
    cb1a:	2209      	movs	r2, #9
    cb1c:	701a      	strb	r2, [r3, #0]
    cb1e:	687b      	ldr	r3, [r7, #4]
    cb20:	781a      	ldrb	r2, [r3, #0]
    cb22:	683b      	ldr	r3, [r7, #0]
    cb24:	33a0      	adds	r3, #160	; 0xa0
    cb26:	781b      	ldrb	r3, [r3, #0]
    cb28:	4053      	eors	r3, r2
    cb2a:	b2da      	uxtb	r2, r3
    cb2c:	687b      	ldr	r3, [r7, #4]
    cb2e:	701a      	strb	r2, [r3, #0]
    cb30:	687b      	ldr	r3, [r7, #4]
    cb32:	3301      	adds	r3, #1
    cb34:	687a      	ldr	r2, [r7, #4]
    cb36:	3201      	adds	r2, #1
    cb38:	7811      	ldrb	r1, [r2, #0]
    cb3a:	683a      	ldr	r2, [r7, #0]
    cb3c:	32a1      	adds	r2, #161	; 0xa1
    cb3e:	7812      	ldrb	r2, [r2, #0]
    cb40:	404a      	eors	r2, r1
    cb42:	b2d2      	uxtb	r2, r2
    cb44:	701a      	strb	r2, [r3, #0]
    cb46:	687b      	ldr	r3, [r7, #4]
    cb48:	3302      	adds	r3, #2
    cb4a:	687a      	ldr	r2, [r7, #4]
    cb4c:	3202      	adds	r2, #2
    cb4e:	7811      	ldrb	r1, [r2, #0]
    cb50:	683a      	ldr	r2, [r7, #0]
    cb52:	32a2      	adds	r2, #162	; 0xa2
    cb54:	7812      	ldrb	r2, [r2, #0]
    cb56:	404a      	eors	r2, r1
    cb58:	b2d2      	uxtb	r2, r2
    cb5a:	701a      	strb	r2, [r3, #0]
    cb5c:	687b      	ldr	r3, [r7, #4]
    cb5e:	3303      	adds	r3, #3
    cb60:	687a      	ldr	r2, [r7, #4]
    cb62:	3203      	adds	r2, #3
    cb64:	7811      	ldrb	r1, [r2, #0]
    cb66:	683a      	ldr	r2, [r7, #0]
    cb68:	32a3      	adds	r2, #163	; 0xa3
    cb6a:	7812      	ldrb	r2, [r2, #0]
    cb6c:	404a      	eors	r2, r1
    cb6e:	b2d2      	uxtb	r2, r2
    cb70:	701a      	strb	r2, [r3, #0]
    cb72:	687b      	ldr	r3, [r7, #4]
    cb74:	3304      	adds	r3, #4
    cb76:	687a      	ldr	r2, [r7, #4]
    cb78:	3204      	adds	r2, #4
    cb7a:	7811      	ldrb	r1, [r2, #0]
    cb7c:	683a      	ldr	r2, [r7, #0]
    cb7e:	32a4      	adds	r2, #164	; 0xa4
    cb80:	7812      	ldrb	r2, [r2, #0]
    cb82:	404a      	eors	r2, r1
    cb84:	b2d2      	uxtb	r2, r2
    cb86:	701a      	strb	r2, [r3, #0]
    cb88:	687b      	ldr	r3, [r7, #4]
    cb8a:	3305      	adds	r3, #5
    cb8c:	687a      	ldr	r2, [r7, #4]
    cb8e:	3205      	adds	r2, #5
    cb90:	7811      	ldrb	r1, [r2, #0]
    cb92:	683a      	ldr	r2, [r7, #0]
    cb94:	32a5      	adds	r2, #165	; 0xa5
    cb96:	7812      	ldrb	r2, [r2, #0]
    cb98:	404a      	eors	r2, r1
    cb9a:	b2d2      	uxtb	r2, r2
    cb9c:	701a      	strb	r2, [r3, #0]
    cb9e:	687b      	ldr	r3, [r7, #4]
    cba0:	3306      	adds	r3, #6
    cba2:	687a      	ldr	r2, [r7, #4]
    cba4:	3206      	adds	r2, #6
    cba6:	7811      	ldrb	r1, [r2, #0]
    cba8:	683a      	ldr	r2, [r7, #0]
    cbaa:	32a6      	adds	r2, #166	; 0xa6
    cbac:	7812      	ldrb	r2, [r2, #0]
    cbae:	404a      	eors	r2, r1
    cbb0:	b2d2      	uxtb	r2, r2
    cbb2:	701a      	strb	r2, [r3, #0]
    cbb4:	687b      	ldr	r3, [r7, #4]
    cbb6:	3307      	adds	r3, #7
    cbb8:	687a      	ldr	r2, [r7, #4]
    cbba:	3207      	adds	r2, #7
    cbbc:	7811      	ldrb	r1, [r2, #0]
    cbbe:	683a      	ldr	r2, [r7, #0]
    cbc0:	32a7      	adds	r2, #167	; 0xa7
    cbc2:	7812      	ldrb	r2, [r2, #0]
    cbc4:	404a      	eors	r2, r1
    cbc6:	b2d2      	uxtb	r2, r2
    cbc8:	701a      	strb	r2, [r3, #0]
    cbca:	687b      	ldr	r3, [r7, #4]
    cbcc:	3308      	adds	r3, #8
    cbce:	687a      	ldr	r2, [r7, #4]
    cbd0:	3208      	adds	r2, #8
    cbd2:	7811      	ldrb	r1, [r2, #0]
    cbd4:	683a      	ldr	r2, [r7, #0]
    cbd6:	32a8      	adds	r2, #168	; 0xa8
    cbd8:	7812      	ldrb	r2, [r2, #0]
    cbda:	404a      	eors	r2, r1
    cbdc:	b2d2      	uxtb	r2, r2
    cbde:	701a      	strb	r2, [r3, #0]
    cbe0:	687b      	ldr	r3, [r7, #4]
    cbe2:	3309      	adds	r3, #9
    cbe4:	687a      	ldr	r2, [r7, #4]
    cbe6:	3209      	adds	r2, #9
    cbe8:	7811      	ldrb	r1, [r2, #0]
    cbea:	683a      	ldr	r2, [r7, #0]
    cbec:	32a9      	adds	r2, #169	; 0xa9
    cbee:	7812      	ldrb	r2, [r2, #0]
    cbf0:	404a      	eors	r2, r1
    cbf2:	b2d2      	uxtb	r2, r2
    cbf4:	701a      	strb	r2, [r3, #0]
    cbf6:	687b      	ldr	r3, [r7, #4]
    cbf8:	330a      	adds	r3, #10
    cbfa:	687a      	ldr	r2, [r7, #4]
    cbfc:	320a      	adds	r2, #10
    cbfe:	7811      	ldrb	r1, [r2, #0]
    cc00:	683a      	ldr	r2, [r7, #0]
    cc02:	32aa      	adds	r2, #170	; 0xaa
    cc04:	7812      	ldrb	r2, [r2, #0]
    cc06:	404a      	eors	r2, r1
    cc08:	b2d2      	uxtb	r2, r2
    cc0a:	701a      	strb	r2, [r3, #0]
    cc0c:	687b      	ldr	r3, [r7, #4]
    cc0e:	330b      	adds	r3, #11
    cc10:	687a      	ldr	r2, [r7, #4]
    cc12:	320b      	adds	r2, #11
    cc14:	7811      	ldrb	r1, [r2, #0]
    cc16:	683a      	ldr	r2, [r7, #0]
    cc18:	32ab      	adds	r2, #171	; 0xab
    cc1a:	7812      	ldrb	r2, [r2, #0]
    cc1c:	404a      	eors	r2, r1
    cc1e:	b2d2      	uxtb	r2, r2
    cc20:	701a      	strb	r2, [r3, #0]
    cc22:	687b      	ldr	r3, [r7, #4]
    cc24:	330c      	adds	r3, #12
    cc26:	687a      	ldr	r2, [r7, #4]
    cc28:	320c      	adds	r2, #12
    cc2a:	7811      	ldrb	r1, [r2, #0]
    cc2c:	683a      	ldr	r2, [r7, #0]
    cc2e:	32ac      	adds	r2, #172	; 0xac
    cc30:	7812      	ldrb	r2, [r2, #0]
    cc32:	404a      	eors	r2, r1
    cc34:	b2d2      	uxtb	r2, r2
    cc36:	701a      	strb	r2, [r3, #0]
    cc38:	687b      	ldr	r3, [r7, #4]
    cc3a:	330d      	adds	r3, #13
    cc3c:	687a      	ldr	r2, [r7, #4]
    cc3e:	320d      	adds	r2, #13
    cc40:	7811      	ldrb	r1, [r2, #0]
    cc42:	683a      	ldr	r2, [r7, #0]
    cc44:	32ad      	adds	r2, #173	; 0xad
    cc46:	7812      	ldrb	r2, [r2, #0]
    cc48:	404a      	eors	r2, r1
    cc4a:	b2d2      	uxtb	r2, r2
    cc4c:	701a      	strb	r2, [r3, #0]
    cc4e:	687b      	ldr	r3, [r7, #4]
    cc50:	330e      	adds	r3, #14
    cc52:	687a      	ldr	r2, [r7, #4]
    cc54:	320e      	adds	r2, #14
    cc56:	7811      	ldrb	r1, [r2, #0]
    cc58:	683a      	ldr	r2, [r7, #0]
    cc5a:	32ae      	adds	r2, #174	; 0xae
    cc5c:	7812      	ldrb	r2, [r2, #0]
    cc5e:	404a      	eors	r2, r1
    cc60:	b2d2      	uxtb	r2, r2
    cc62:	701a      	strb	r2, [r3, #0]
    cc64:	687b      	ldr	r3, [r7, #4]
    cc66:	330f      	adds	r3, #15
    cc68:	687a      	ldr	r2, [r7, #4]
    cc6a:	320f      	adds	r2, #15
    cc6c:	7811      	ldrb	r1, [r2, #0]
    cc6e:	683a      	ldr	r2, [r7, #0]
    cc70:	32af      	adds	r2, #175	; 0xaf
    cc72:	7812      	ldrb	r2, [r2, #0]
    cc74:	404a      	eors	r2, r1
    cc76:	b2d2      	uxtb	r2, r2
    cc78:	701a      	strb	r2, [r3, #0]
    cc7a:	687b      	ldr	r3, [r7, #4]
    cc7c:	781b      	ldrb	r3, [r3, #0]
    cc7e:	001a      	movs	r2, r3
    cc80:	4baa      	ldr	r3, [pc, #680]	; (cf2c <aes_decr+0x420>)
    cc82:	5c9a      	ldrb	r2, [r3, r2]
    cc84:	230f      	movs	r3, #15
    cc86:	18fb      	adds	r3, r7, r3
    cc88:	781b      	ldrb	r3, [r3, #0]
    cc8a:	b25b      	sxtb	r3, r3
    cc8c:	011b      	lsls	r3, r3, #4
    cc8e:	0019      	movs	r1, r3
    cc90:	683b      	ldr	r3, [r7, #0]
    cc92:	185b      	adds	r3, r3, r1
    cc94:	781b      	ldrb	r3, [r3, #0]
    cc96:	4053      	eors	r3, r2
    cc98:	b2da      	uxtb	r2, r3
    cc9a:	687b      	ldr	r3, [r7, #4]
    cc9c:	701a      	strb	r2, [r3, #0]
    cc9e:	687b      	ldr	r3, [r7, #4]
    cca0:	3304      	adds	r3, #4
    cca2:	687a      	ldr	r2, [r7, #4]
    cca4:	3204      	adds	r2, #4
    cca6:	7812      	ldrb	r2, [r2, #0]
    cca8:	0011      	movs	r1, r2
    ccaa:	4aa0      	ldr	r2, [pc, #640]	; (cf2c <aes_decr+0x420>)
    ccac:	5c51      	ldrb	r1, [r2, r1]
    ccae:	220f      	movs	r2, #15
    ccb0:	18ba      	adds	r2, r7, r2
    ccb2:	7812      	ldrb	r2, [r2, #0]
    ccb4:	b252      	sxtb	r2, r2
    ccb6:	0112      	lsls	r2, r2, #4
    ccb8:	3204      	adds	r2, #4
    ccba:	6838      	ldr	r0, [r7, #0]
    ccbc:	1882      	adds	r2, r0, r2
    ccbe:	7812      	ldrb	r2, [r2, #0]
    ccc0:	404a      	eors	r2, r1
    ccc2:	b2d2      	uxtb	r2, r2
    ccc4:	701a      	strb	r2, [r3, #0]
    ccc6:	687b      	ldr	r3, [r7, #4]
    ccc8:	3308      	adds	r3, #8
    ccca:	687a      	ldr	r2, [r7, #4]
    cccc:	3208      	adds	r2, #8
    ccce:	7812      	ldrb	r2, [r2, #0]
    ccd0:	0011      	movs	r1, r2
    ccd2:	4a96      	ldr	r2, [pc, #600]	; (cf2c <aes_decr+0x420>)
    ccd4:	5c51      	ldrb	r1, [r2, r1]
    ccd6:	220f      	movs	r2, #15
    ccd8:	18ba      	adds	r2, r7, r2
    ccda:	7812      	ldrb	r2, [r2, #0]
    ccdc:	b252      	sxtb	r2, r2
    ccde:	0112      	lsls	r2, r2, #4
    cce0:	3208      	adds	r2, #8
    cce2:	6838      	ldr	r0, [r7, #0]
    cce4:	1882      	adds	r2, r0, r2
    cce6:	7812      	ldrb	r2, [r2, #0]
    cce8:	404a      	eors	r2, r1
    ccea:	b2d2      	uxtb	r2, r2
    ccec:	701a      	strb	r2, [r3, #0]
    ccee:	687b      	ldr	r3, [r7, #4]
    ccf0:	330c      	adds	r3, #12
    ccf2:	687a      	ldr	r2, [r7, #4]
    ccf4:	320c      	adds	r2, #12
    ccf6:	7812      	ldrb	r2, [r2, #0]
    ccf8:	0011      	movs	r1, r2
    ccfa:	4a8c      	ldr	r2, [pc, #560]	; (cf2c <aes_decr+0x420>)
    ccfc:	5c51      	ldrb	r1, [r2, r1]
    ccfe:	220f      	movs	r2, #15
    cd00:	18ba      	adds	r2, r7, r2
    cd02:	7812      	ldrb	r2, [r2, #0]
    cd04:	b252      	sxtb	r2, r2
    cd06:	0112      	lsls	r2, r2, #4
    cd08:	320c      	adds	r2, #12
    cd0a:	6838      	ldr	r0, [r7, #0]
    cd0c:	1882      	adds	r2, r0, r2
    cd0e:	7812      	ldrb	r2, [r2, #0]
    cd10:	404a      	eors	r2, r1
    cd12:	b2d2      	uxtb	r2, r2
    cd14:	701a      	strb	r2, [r3, #0]
    cd16:	687b      	ldr	r3, [r7, #4]
    cd18:	330d      	adds	r3, #13
    cd1a:	781b      	ldrb	r3, [r3, #0]
    cd1c:	001a      	movs	r2, r3
    cd1e:	4b83      	ldr	r3, [pc, #524]	; (cf2c <aes_decr+0x420>)
    cd20:	5c99      	ldrb	r1, [r3, r2]
    cd22:	230f      	movs	r3, #15
    cd24:	18fb      	adds	r3, r7, r3
    cd26:	781b      	ldrb	r3, [r3, #0]
    cd28:	b25b      	sxtb	r3, r3
    cd2a:	011b      	lsls	r3, r3, #4
    cd2c:	3301      	adds	r3, #1
    cd2e:	683a      	ldr	r2, [r7, #0]
    cd30:	18d3      	adds	r3, r2, r3
    cd32:	781a      	ldrb	r2, [r3, #0]
    cd34:	230e      	movs	r3, #14
    cd36:	18fb      	adds	r3, r7, r3
    cd38:	404a      	eors	r2, r1
    cd3a:	701a      	strb	r2, [r3, #0]
    cd3c:	687b      	ldr	r3, [r7, #4]
    cd3e:	330d      	adds	r3, #13
    cd40:	687a      	ldr	r2, [r7, #4]
    cd42:	3209      	adds	r2, #9
    cd44:	7812      	ldrb	r2, [r2, #0]
    cd46:	0011      	movs	r1, r2
    cd48:	4a78      	ldr	r2, [pc, #480]	; (cf2c <aes_decr+0x420>)
    cd4a:	5c51      	ldrb	r1, [r2, r1]
    cd4c:	220f      	movs	r2, #15
    cd4e:	18ba      	adds	r2, r7, r2
    cd50:	7812      	ldrb	r2, [r2, #0]
    cd52:	b252      	sxtb	r2, r2
    cd54:	0112      	lsls	r2, r2, #4
    cd56:	320d      	adds	r2, #13
    cd58:	6838      	ldr	r0, [r7, #0]
    cd5a:	1882      	adds	r2, r0, r2
    cd5c:	7812      	ldrb	r2, [r2, #0]
    cd5e:	404a      	eors	r2, r1
    cd60:	b2d2      	uxtb	r2, r2
    cd62:	701a      	strb	r2, [r3, #0]
    cd64:	687b      	ldr	r3, [r7, #4]
    cd66:	3309      	adds	r3, #9
    cd68:	687a      	ldr	r2, [r7, #4]
    cd6a:	3205      	adds	r2, #5
    cd6c:	7812      	ldrb	r2, [r2, #0]
    cd6e:	0011      	movs	r1, r2
    cd70:	4a6e      	ldr	r2, [pc, #440]	; (cf2c <aes_decr+0x420>)
    cd72:	5c51      	ldrb	r1, [r2, r1]
    cd74:	220f      	movs	r2, #15
    cd76:	18ba      	adds	r2, r7, r2
    cd78:	7812      	ldrb	r2, [r2, #0]
    cd7a:	b252      	sxtb	r2, r2
    cd7c:	0112      	lsls	r2, r2, #4
    cd7e:	3209      	adds	r2, #9
    cd80:	6838      	ldr	r0, [r7, #0]
    cd82:	1882      	adds	r2, r0, r2
    cd84:	7812      	ldrb	r2, [r2, #0]
    cd86:	404a      	eors	r2, r1
    cd88:	b2d2      	uxtb	r2, r2
    cd8a:	701a      	strb	r2, [r3, #0]
    cd8c:	687b      	ldr	r3, [r7, #4]
    cd8e:	3305      	adds	r3, #5
    cd90:	687a      	ldr	r2, [r7, #4]
    cd92:	3201      	adds	r2, #1
    cd94:	7812      	ldrb	r2, [r2, #0]
    cd96:	0011      	movs	r1, r2
    cd98:	4a64      	ldr	r2, [pc, #400]	; (cf2c <aes_decr+0x420>)
    cd9a:	5c51      	ldrb	r1, [r2, r1]
    cd9c:	220f      	movs	r2, #15
    cd9e:	18ba      	adds	r2, r7, r2
    cda0:	7812      	ldrb	r2, [r2, #0]
    cda2:	b252      	sxtb	r2, r2
    cda4:	0112      	lsls	r2, r2, #4
    cda6:	3205      	adds	r2, #5
    cda8:	6838      	ldr	r0, [r7, #0]
    cdaa:	1882      	adds	r2, r0, r2
    cdac:	7812      	ldrb	r2, [r2, #0]
    cdae:	404a      	eors	r2, r1
    cdb0:	b2d2      	uxtb	r2, r2
    cdb2:	701a      	strb	r2, [r3, #0]
    cdb4:	687b      	ldr	r3, [r7, #4]
    cdb6:	3301      	adds	r3, #1
    cdb8:	220e      	movs	r2, #14
    cdba:	18ba      	adds	r2, r7, r2
    cdbc:	7812      	ldrb	r2, [r2, #0]
    cdbe:	701a      	strb	r2, [r3, #0]
    cdc0:	687b      	ldr	r3, [r7, #4]
    cdc2:	3302      	adds	r3, #2
    cdc4:	781b      	ldrb	r3, [r3, #0]
    cdc6:	001a      	movs	r2, r3
    cdc8:	4b58      	ldr	r3, [pc, #352]	; (cf2c <aes_decr+0x420>)
    cdca:	5c99      	ldrb	r1, [r3, r2]
    cdcc:	230f      	movs	r3, #15
    cdce:	18fb      	adds	r3, r7, r3
    cdd0:	781b      	ldrb	r3, [r3, #0]
    cdd2:	b25b      	sxtb	r3, r3
    cdd4:	011b      	lsls	r3, r3, #4
    cdd6:	330a      	adds	r3, #10
    cdd8:	683a      	ldr	r2, [r7, #0]
    cdda:	18d3      	adds	r3, r2, r3
    cddc:	781a      	ldrb	r2, [r3, #0]
    cdde:	230e      	movs	r3, #14
    cde0:	18fb      	adds	r3, r7, r3
    cde2:	404a      	eors	r2, r1
    cde4:	701a      	strb	r2, [r3, #0]
    cde6:	687b      	ldr	r3, [r7, #4]
    cde8:	3306      	adds	r3, #6
    cdea:	781b      	ldrb	r3, [r3, #0]
    cdec:	001a      	movs	r2, r3
    cdee:	4b4f      	ldr	r3, [pc, #316]	; (cf2c <aes_decr+0x420>)
    cdf0:	5c99      	ldrb	r1, [r3, r2]
    cdf2:	230f      	movs	r3, #15
    cdf4:	18fb      	adds	r3, r7, r3
    cdf6:	781b      	ldrb	r3, [r3, #0]
    cdf8:	b25b      	sxtb	r3, r3
    cdfa:	011b      	lsls	r3, r3, #4
    cdfc:	330e      	adds	r3, #14
    cdfe:	683a      	ldr	r2, [r7, #0]
    ce00:	18d3      	adds	r3, r2, r3
    ce02:	781a      	ldrb	r2, [r3, #0]
    ce04:	230d      	movs	r3, #13
    ce06:	18fb      	adds	r3, r7, r3
    ce08:	404a      	eors	r2, r1
    ce0a:	701a      	strb	r2, [r3, #0]
    ce0c:	687b      	ldr	r3, [r7, #4]
    ce0e:	3302      	adds	r3, #2
    ce10:	687a      	ldr	r2, [r7, #4]
    ce12:	320a      	adds	r2, #10
    ce14:	7812      	ldrb	r2, [r2, #0]
    ce16:	0011      	movs	r1, r2
    ce18:	4a44      	ldr	r2, [pc, #272]	; (cf2c <aes_decr+0x420>)
    ce1a:	5c51      	ldrb	r1, [r2, r1]
    ce1c:	220f      	movs	r2, #15
    ce1e:	18ba      	adds	r2, r7, r2
    ce20:	7812      	ldrb	r2, [r2, #0]
    ce22:	b252      	sxtb	r2, r2
    ce24:	0112      	lsls	r2, r2, #4
    ce26:	3202      	adds	r2, #2
    ce28:	6838      	ldr	r0, [r7, #0]
    ce2a:	1882      	adds	r2, r0, r2
    ce2c:	7812      	ldrb	r2, [r2, #0]
    ce2e:	404a      	eors	r2, r1
    ce30:	b2d2      	uxtb	r2, r2
    ce32:	701a      	strb	r2, [r3, #0]
    ce34:	687b      	ldr	r3, [r7, #4]
    ce36:	3306      	adds	r3, #6
    ce38:	687a      	ldr	r2, [r7, #4]
    ce3a:	320e      	adds	r2, #14
    ce3c:	7812      	ldrb	r2, [r2, #0]
    ce3e:	0011      	movs	r1, r2
    ce40:	4a3a      	ldr	r2, [pc, #232]	; (cf2c <aes_decr+0x420>)
    ce42:	5c51      	ldrb	r1, [r2, r1]
    ce44:	220f      	movs	r2, #15
    ce46:	18ba      	adds	r2, r7, r2
    ce48:	7812      	ldrb	r2, [r2, #0]
    ce4a:	b252      	sxtb	r2, r2
    ce4c:	0112      	lsls	r2, r2, #4
    ce4e:	3206      	adds	r2, #6
    ce50:	6838      	ldr	r0, [r7, #0]
    ce52:	1882      	adds	r2, r0, r2
    ce54:	7812      	ldrb	r2, [r2, #0]
    ce56:	404a      	eors	r2, r1
    ce58:	b2d2      	uxtb	r2, r2
    ce5a:	701a      	strb	r2, [r3, #0]
    ce5c:	687b      	ldr	r3, [r7, #4]
    ce5e:	330a      	adds	r3, #10
    ce60:	220e      	movs	r2, #14
    ce62:	18ba      	adds	r2, r7, r2
    ce64:	7812      	ldrb	r2, [r2, #0]
    ce66:	701a      	strb	r2, [r3, #0]
    ce68:	687b      	ldr	r3, [r7, #4]
    ce6a:	330e      	adds	r3, #14
    ce6c:	220d      	movs	r2, #13
    ce6e:	18ba      	adds	r2, r7, r2
    ce70:	7812      	ldrb	r2, [r2, #0]
    ce72:	701a      	strb	r2, [r3, #0]
    ce74:	687b      	ldr	r3, [r7, #4]
    ce76:	3303      	adds	r3, #3
    ce78:	781b      	ldrb	r3, [r3, #0]
    ce7a:	001a      	movs	r2, r3
    ce7c:	4b2b      	ldr	r3, [pc, #172]	; (cf2c <aes_decr+0x420>)
    ce7e:	5c99      	ldrb	r1, [r3, r2]
    ce80:	230f      	movs	r3, #15
    ce82:	18fb      	adds	r3, r7, r3
    ce84:	781b      	ldrb	r3, [r3, #0]
    ce86:	b25b      	sxtb	r3, r3
    ce88:	011b      	lsls	r3, r3, #4
    ce8a:	330f      	adds	r3, #15
    ce8c:	683a      	ldr	r2, [r7, #0]
    ce8e:	18d3      	adds	r3, r2, r3
    ce90:	781a      	ldrb	r2, [r3, #0]
    ce92:	230e      	movs	r3, #14
    ce94:	18fb      	adds	r3, r7, r3
    ce96:	404a      	eors	r2, r1
    ce98:	701a      	strb	r2, [r3, #0]
    ce9a:	687b      	ldr	r3, [r7, #4]
    ce9c:	3303      	adds	r3, #3
    ce9e:	687a      	ldr	r2, [r7, #4]
    cea0:	3207      	adds	r2, #7
    cea2:	7812      	ldrb	r2, [r2, #0]
    cea4:	0011      	movs	r1, r2
    cea6:	4a21      	ldr	r2, [pc, #132]	; (cf2c <aes_decr+0x420>)
    cea8:	5c51      	ldrb	r1, [r2, r1]
    ceaa:	220f      	movs	r2, #15
    ceac:	18ba      	adds	r2, r7, r2
    ceae:	7812      	ldrb	r2, [r2, #0]
    ceb0:	b252      	sxtb	r2, r2
    ceb2:	0112      	lsls	r2, r2, #4
    ceb4:	3203      	adds	r2, #3
    ceb6:	6838      	ldr	r0, [r7, #0]
    ceb8:	1882      	adds	r2, r0, r2
    ceba:	7812      	ldrb	r2, [r2, #0]
    cebc:	404a      	eors	r2, r1
    cebe:	b2d2      	uxtb	r2, r2
    cec0:	701a      	strb	r2, [r3, #0]
    cec2:	687b      	ldr	r3, [r7, #4]
    cec4:	3307      	adds	r3, #7
    cec6:	687a      	ldr	r2, [r7, #4]
    cec8:	320b      	adds	r2, #11
    ceca:	7812      	ldrb	r2, [r2, #0]
    cecc:	0011      	movs	r1, r2
    cece:	4a17      	ldr	r2, [pc, #92]	; (cf2c <aes_decr+0x420>)
    ced0:	5c51      	ldrb	r1, [r2, r1]
    ced2:	220f      	movs	r2, #15
    ced4:	18ba      	adds	r2, r7, r2
    ced6:	7812      	ldrb	r2, [r2, #0]
    ced8:	b252      	sxtb	r2, r2
    ceda:	0112      	lsls	r2, r2, #4
    cedc:	3207      	adds	r2, #7
    cede:	6838      	ldr	r0, [r7, #0]
    cee0:	1882      	adds	r2, r0, r2
    cee2:	7812      	ldrb	r2, [r2, #0]
    cee4:	404a      	eors	r2, r1
    cee6:	b2d2      	uxtb	r2, r2
    cee8:	701a      	strb	r2, [r3, #0]
    ceea:	687b      	ldr	r3, [r7, #4]
    ceec:	330b      	adds	r3, #11
    ceee:	687a      	ldr	r2, [r7, #4]
    cef0:	320f      	adds	r2, #15
    cef2:	7812      	ldrb	r2, [r2, #0]
    cef4:	0011      	movs	r1, r2
    cef6:	4a0d      	ldr	r2, [pc, #52]	; (cf2c <aes_decr+0x420>)
    cef8:	5c51      	ldrb	r1, [r2, r1]
    cefa:	220f      	movs	r2, #15
    cefc:	18ba      	adds	r2, r7, r2
    cefe:	7812      	ldrb	r2, [r2, #0]
    cf00:	b252      	sxtb	r2, r2
    cf02:	0112      	lsls	r2, r2, #4
    cf04:	320b      	adds	r2, #11
    cf06:	6838      	ldr	r0, [r7, #0]
    cf08:	1882      	adds	r2, r0, r2
    cf0a:	7812      	ldrb	r2, [r2, #0]
    cf0c:	404a      	eors	r2, r1
    cf0e:	b2d2      	uxtb	r2, r2
    cf10:	701a      	strb	r2, [r3, #0]
    cf12:	687b      	ldr	r3, [r7, #4]
    cf14:	330f      	adds	r3, #15
    cf16:	220e      	movs	r2, #14
    cf18:	18ba      	adds	r2, r7, r2
    cf1a:	7812      	ldrb	r2, [r2, #0]
    cf1c:	701a      	strb	r2, [r3, #0]
    cf1e:	230f      	movs	r3, #15
    cf20:	18fb      	adds	r3, r7, r3
    cf22:	2208      	movs	r2, #8
    cf24:	701a      	strb	r2, [r3, #0]
    cf26:	f000 fd4d 	bl	d9c4 <aes_decr+0xeb8>
    cf2a:	46c0      	nop			; (mov r8, r8)
    cf2c:	000123bc 	.word	0x000123bc
    cf30:	687b      	ldr	r3, [r7, #4]
    cf32:	781a      	ldrb	r2, [r3, #0]
    cf34:	687b      	ldr	r3, [r7, #4]
    cf36:	3302      	adds	r3, #2
    cf38:	781b      	ldrb	r3, [r3, #0]
    cf3a:	4053      	eors	r3, r2
    cf3c:	b2db      	uxtb	r3, r3
    cf3e:	0018      	movs	r0, r3
    cf40:	4bfe      	ldr	r3, [pc, #1016]	; (d33c <aes_decr+0x830>)
    cf42:	4798      	blx	r3
    cf44:	0003      	movs	r3, r0
    cf46:	220e      	movs	r2, #14
    cf48:	18bc      	adds	r4, r7, r2
    cf4a:	0018      	movs	r0, r3
    cf4c:	4bfb      	ldr	r3, [pc, #1004]	; (d33c <aes_decr+0x830>)
    cf4e:	4798      	blx	r3
    cf50:	0003      	movs	r3, r0
    cf52:	7023      	strb	r3, [r4, #0]
    cf54:	687b      	ldr	r3, [r7, #4]
    cf56:	3301      	adds	r3, #1
    cf58:	781a      	ldrb	r2, [r3, #0]
    cf5a:	687b      	ldr	r3, [r7, #4]
    cf5c:	3303      	adds	r3, #3
    cf5e:	781b      	ldrb	r3, [r3, #0]
    cf60:	4053      	eors	r3, r2
    cf62:	b2db      	uxtb	r3, r3
    cf64:	0018      	movs	r0, r3
    cf66:	4bf5      	ldr	r3, [pc, #980]	; (d33c <aes_decr+0x830>)
    cf68:	4798      	blx	r3
    cf6a:	0003      	movs	r3, r0
    cf6c:	220d      	movs	r2, #13
    cf6e:	18bc      	adds	r4, r7, r2
    cf70:	0018      	movs	r0, r3
    cf72:	4bf2      	ldr	r3, [pc, #968]	; (d33c <aes_decr+0x830>)
    cf74:	4798      	blx	r3
    cf76:	0003      	movs	r3, r0
    cf78:	7023      	strb	r3, [r4, #0]
    cf7a:	687b      	ldr	r3, [r7, #4]
    cf7c:	781a      	ldrb	r2, [r3, #0]
    cf7e:	230e      	movs	r3, #14
    cf80:	18fb      	adds	r3, r7, r3
    cf82:	781b      	ldrb	r3, [r3, #0]
    cf84:	4053      	eors	r3, r2
    cf86:	b2da      	uxtb	r2, r3
    cf88:	687b      	ldr	r3, [r7, #4]
    cf8a:	701a      	strb	r2, [r3, #0]
    cf8c:	687b      	ldr	r3, [r7, #4]
    cf8e:	3301      	adds	r3, #1
    cf90:	687a      	ldr	r2, [r7, #4]
    cf92:	3201      	adds	r2, #1
    cf94:	7811      	ldrb	r1, [r2, #0]
    cf96:	220d      	movs	r2, #13
    cf98:	18ba      	adds	r2, r7, r2
    cf9a:	7812      	ldrb	r2, [r2, #0]
    cf9c:	404a      	eors	r2, r1
    cf9e:	b2d2      	uxtb	r2, r2
    cfa0:	701a      	strb	r2, [r3, #0]
    cfa2:	687b      	ldr	r3, [r7, #4]
    cfa4:	3302      	adds	r3, #2
    cfa6:	687a      	ldr	r2, [r7, #4]
    cfa8:	3202      	adds	r2, #2
    cfaa:	7811      	ldrb	r1, [r2, #0]
    cfac:	220e      	movs	r2, #14
    cfae:	18ba      	adds	r2, r7, r2
    cfb0:	7812      	ldrb	r2, [r2, #0]
    cfb2:	404a      	eors	r2, r1
    cfb4:	b2d2      	uxtb	r2, r2
    cfb6:	701a      	strb	r2, [r3, #0]
    cfb8:	687b      	ldr	r3, [r7, #4]
    cfba:	3303      	adds	r3, #3
    cfbc:	687a      	ldr	r2, [r7, #4]
    cfbe:	3203      	adds	r2, #3
    cfc0:	7811      	ldrb	r1, [r2, #0]
    cfc2:	220d      	movs	r2, #13
    cfc4:	18ba      	adds	r2, r7, r2
    cfc6:	7812      	ldrb	r2, [r2, #0]
    cfc8:	404a      	eors	r2, r1
    cfca:	b2d2      	uxtb	r2, r2
    cfcc:	701a      	strb	r2, [r3, #0]
    cfce:	687b      	ldr	r3, [r7, #4]
    cfd0:	3304      	adds	r3, #4
    cfd2:	781a      	ldrb	r2, [r3, #0]
    cfd4:	687b      	ldr	r3, [r7, #4]
    cfd6:	3306      	adds	r3, #6
    cfd8:	781b      	ldrb	r3, [r3, #0]
    cfda:	4053      	eors	r3, r2
    cfdc:	b2db      	uxtb	r3, r3
    cfde:	0018      	movs	r0, r3
    cfe0:	4bd6      	ldr	r3, [pc, #856]	; (d33c <aes_decr+0x830>)
    cfe2:	4798      	blx	r3
    cfe4:	0003      	movs	r3, r0
    cfe6:	220e      	movs	r2, #14
    cfe8:	18bc      	adds	r4, r7, r2
    cfea:	0018      	movs	r0, r3
    cfec:	4bd3      	ldr	r3, [pc, #844]	; (d33c <aes_decr+0x830>)
    cfee:	4798      	blx	r3
    cff0:	0003      	movs	r3, r0
    cff2:	7023      	strb	r3, [r4, #0]
    cff4:	687b      	ldr	r3, [r7, #4]
    cff6:	3305      	adds	r3, #5
    cff8:	781a      	ldrb	r2, [r3, #0]
    cffa:	687b      	ldr	r3, [r7, #4]
    cffc:	3307      	adds	r3, #7
    cffe:	781b      	ldrb	r3, [r3, #0]
    d000:	4053      	eors	r3, r2
    d002:	b2db      	uxtb	r3, r3
    d004:	0018      	movs	r0, r3
    d006:	4bcd      	ldr	r3, [pc, #820]	; (d33c <aes_decr+0x830>)
    d008:	4798      	blx	r3
    d00a:	0003      	movs	r3, r0
    d00c:	220d      	movs	r2, #13
    d00e:	18bc      	adds	r4, r7, r2
    d010:	0018      	movs	r0, r3
    d012:	4bca      	ldr	r3, [pc, #808]	; (d33c <aes_decr+0x830>)
    d014:	4798      	blx	r3
    d016:	0003      	movs	r3, r0
    d018:	7023      	strb	r3, [r4, #0]
    d01a:	687b      	ldr	r3, [r7, #4]
    d01c:	3304      	adds	r3, #4
    d01e:	687a      	ldr	r2, [r7, #4]
    d020:	3204      	adds	r2, #4
    d022:	7811      	ldrb	r1, [r2, #0]
    d024:	220e      	movs	r2, #14
    d026:	18ba      	adds	r2, r7, r2
    d028:	7812      	ldrb	r2, [r2, #0]
    d02a:	404a      	eors	r2, r1
    d02c:	b2d2      	uxtb	r2, r2
    d02e:	701a      	strb	r2, [r3, #0]
    d030:	687b      	ldr	r3, [r7, #4]
    d032:	3305      	adds	r3, #5
    d034:	687a      	ldr	r2, [r7, #4]
    d036:	3205      	adds	r2, #5
    d038:	7811      	ldrb	r1, [r2, #0]
    d03a:	220d      	movs	r2, #13
    d03c:	18ba      	adds	r2, r7, r2
    d03e:	7812      	ldrb	r2, [r2, #0]
    d040:	404a      	eors	r2, r1
    d042:	b2d2      	uxtb	r2, r2
    d044:	701a      	strb	r2, [r3, #0]
    d046:	687b      	ldr	r3, [r7, #4]
    d048:	3306      	adds	r3, #6
    d04a:	687a      	ldr	r2, [r7, #4]
    d04c:	3206      	adds	r2, #6
    d04e:	7811      	ldrb	r1, [r2, #0]
    d050:	220e      	movs	r2, #14
    d052:	18ba      	adds	r2, r7, r2
    d054:	7812      	ldrb	r2, [r2, #0]
    d056:	404a      	eors	r2, r1
    d058:	b2d2      	uxtb	r2, r2
    d05a:	701a      	strb	r2, [r3, #0]
    d05c:	687b      	ldr	r3, [r7, #4]
    d05e:	3307      	adds	r3, #7
    d060:	687a      	ldr	r2, [r7, #4]
    d062:	3207      	adds	r2, #7
    d064:	7811      	ldrb	r1, [r2, #0]
    d066:	220d      	movs	r2, #13
    d068:	18ba      	adds	r2, r7, r2
    d06a:	7812      	ldrb	r2, [r2, #0]
    d06c:	404a      	eors	r2, r1
    d06e:	b2d2      	uxtb	r2, r2
    d070:	701a      	strb	r2, [r3, #0]
    d072:	687b      	ldr	r3, [r7, #4]
    d074:	3308      	adds	r3, #8
    d076:	781a      	ldrb	r2, [r3, #0]
    d078:	687b      	ldr	r3, [r7, #4]
    d07a:	330a      	adds	r3, #10
    d07c:	781b      	ldrb	r3, [r3, #0]
    d07e:	4053      	eors	r3, r2
    d080:	b2db      	uxtb	r3, r3
    d082:	0018      	movs	r0, r3
    d084:	4bad      	ldr	r3, [pc, #692]	; (d33c <aes_decr+0x830>)
    d086:	4798      	blx	r3
    d088:	0003      	movs	r3, r0
    d08a:	220e      	movs	r2, #14
    d08c:	18bc      	adds	r4, r7, r2
    d08e:	0018      	movs	r0, r3
    d090:	4baa      	ldr	r3, [pc, #680]	; (d33c <aes_decr+0x830>)
    d092:	4798      	blx	r3
    d094:	0003      	movs	r3, r0
    d096:	7023      	strb	r3, [r4, #0]
    d098:	687b      	ldr	r3, [r7, #4]
    d09a:	3309      	adds	r3, #9
    d09c:	781a      	ldrb	r2, [r3, #0]
    d09e:	687b      	ldr	r3, [r7, #4]
    d0a0:	330b      	adds	r3, #11
    d0a2:	781b      	ldrb	r3, [r3, #0]
    d0a4:	4053      	eors	r3, r2
    d0a6:	b2db      	uxtb	r3, r3
    d0a8:	0018      	movs	r0, r3
    d0aa:	4ba4      	ldr	r3, [pc, #656]	; (d33c <aes_decr+0x830>)
    d0ac:	4798      	blx	r3
    d0ae:	0003      	movs	r3, r0
    d0b0:	220d      	movs	r2, #13
    d0b2:	18bc      	adds	r4, r7, r2
    d0b4:	0018      	movs	r0, r3
    d0b6:	4ba1      	ldr	r3, [pc, #644]	; (d33c <aes_decr+0x830>)
    d0b8:	4798      	blx	r3
    d0ba:	0003      	movs	r3, r0
    d0bc:	7023      	strb	r3, [r4, #0]
    d0be:	687b      	ldr	r3, [r7, #4]
    d0c0:	3308      	adds	r3, #8
    d0c2:	687a      	ldr	r2, [r7, #4]
    d0c4:	3208      	adds	r2, #8
    d0c6:	7811      	ldrb	r1, [r2, #0]
    d0c8:	220e      	movs	r2, #14
    d0ca:	18ba      	adds	r2, r7, r2
    d0cc:	7812      	ldrb	r2, [r2, #0]
    d0ce:	404a      	eors	r2, r1
    d0d0:	b2d2      	uxtb	r2, r2
    d0d2:	701a      	strb	r2, [r3, #0]
    d0d4:	687b      	ldr	r3, [r7, #4]
    d0d6:	3309      	adds	r3, #9
    d0d8:	687a      	ldr	r2, [r7, #4]
    d0da:	3209      	adds	r2, #9
    d0dc:	7811      	ldrb	r1, [r2, #0]
    d0de:	220d      	movs	r2, #13
    d0e0:	18ba      	adds	r2, r7, r2
    d0e2:	7812      	ldrb	r2, [r2, #0]
    d0e4:	404a      	eors	r2, r1
    d0e6:	b2d2      	uxtb	r2, r2
    d0e8:	701a      	strb	r2, [r3, #0]
    d0ea:	687b      	ldr	r3, [r7, #4]
    d0ec:	330a      	adds	r3, #10
    d0ee:	687a      	ldr	r2, [r7, #4]
    d0f0:	320a      	adds	r2, #10
    d0f2:	7811      	ldrb	r1, [r2, #0]
    d0f4:	220e      	movs	r2, #14
    d0f6:	18ba      	adds	r2, r7, r2
    d0f8:	7812      	ldrb	r2, [r2, #0]
    d0fa:	404a      	eors	r2, r1
    d0fc:	b2d2      	uxtb	r2, r2
    d0fe:	701a      	strb	r2, [r3, #0]
    d100:	687b      	ldr	r3, [r7, #4]
    d102:	330b      	adds	r3, #11
    d104:	687a      	ldr	r2, [r7, #4]
    d106:	320b      	adds	r2, #11
    d108:	7811      	ldrb	r1, [r2, #0]
    d10a:	220d      	movs	r2, #13
    d10c:	18ba      	adds	r2, r7, r2
    d10e:	7812      	ldrb	r2, [r2, #0]
    d110:	404a      	eors	r2, r1
    d112:	b2d2      	uxtb	r2, r2
    d114:	701a      	strb	r2, [r3, #0]
    d116:	687b      	ldr	r3, [r7, #4]
    d118:	330c      	adds	r3, #12
    d11a:	781a      	ldrb	r2, [r3, #0]
    d11c:	687b      	ldr	r3, [r7, #4]
    d11e:	330e      	adds	r3, #14
    d120:	781b      	ldrb	r3, [r3, #0]
    d122:	4053      	eors	r3, r2
    d124:	b2db      	uxtb	r3, r3
    d126:	0018      	movs	r0, r3
    d128:	4b84      	ldr	r3, [pc, #528]	; (d33c <aes_decr+0x830>)
    d12a:	4798      	blx	r3
    d12c:	0003      	movs	r3, r0
    d12e:	220e      	movs	r2, #14
    d130:	18bc      	adds	r4, r7, r2
    d132:	0018      	movs	r0, r3
    d134:	4b81      	ldr	r3, [pc, #516]	; (d33c <aes_decr+0x830>)
    d136:	4798      	blx	r3
    d138:	0003      	movs	r3, r0
    d13a:	7023      	strb	r3, [r4, #0]
    d13c:	687b      	ldr	r3, [r7, #4]
    d13e:	330d      	adds	r3, #13
    d140:	781a      	ldrb	r2, [r3, #0]
    d142:	687b      	ldr	r3, [r7, #4]
    d144:	330f      	adds	r3, #15
    d146:	781b      	ldrb	r3, [r3, #0]
    d148:	4053      	eors	r3, r2
    d14a:	b2db      	uxtb	r3, r3
    d14c:	0018      	movs	r0, r3
    d14e:	4b7b      	ldr	r3, [pc, #492]	; (d33c <aes_decr+0x830>)
    d150:	4798      	blx	r3
    d152:	0003      	movs	r3, r0
    d154:	220d      	movs	r2, #13
    d156:	18bc      	adds	r4, r7, r2
    d158:	0018      	movs	r0, r3
    d15a:	4b78      	ldr	r3, [pc, #480]	; (d33c <aes_decr+0x830>)
    d15c:	4798      	blx	r3
    d15e:	0003      	movs	r3, r0
    d160:	7023      	strb	r3, [r4, #0]
    d162:	687b      	ldr	r3, [r7, #4]
    d164:	330c      	adds	r3, #12
    d166:	687a      	ldr	r2, [r7, #4]
    d168:	320c      	adds	r2, #12
    d16a:	7811      	ldrb	r1, [r2, #0]
    d16c:	220e      	movs	r2, #14
    d16e:	18ba      	adds	r2, r7, r2
    d170:	7812      	ldrb	r2, [r2, #0]
    d172:	404a      	eors	r2, r1
    d174:	b2d2      	uxtb	r2, r2
    d176:	701a      	strb	r2, [r3, #0]
    d178:	687b      	ldr	r3, [r7, #4]
    d17a:	330d      	adds	r3, #13
    d17c:	687a      	ldr	r2, [r7, #4]
    d17e:	320d      	adds	r2, #13
    d180:	7811      	ldrb	r1, [r2, #0]
    d182:	220d      	movs	r2, #13
    d184:	18ba      	adds	r2, r7, r2
    d186:	7812      	ldrb	r2, [r2, #0]
    d188:	404a      	eors	r2, r1
    d18a:	b2d2      	uxtb	r2, r2
    d18c:	701a      	strb	r2, [r3, #0]
    d18e:	687b      	ldr	r3, [r7, #4]
    d190:	330e      	adds	r3, #14
    d192:	687a      	ldr	r2, [r7, #4]
    d194:	320e      	adds	r2, #14
    d196:	7811      	ldrb	r1, [r2, #0]
    d198:	220e      	movs	r2, #14
    d19a:	18ba      	adds	r2, r7, r2
    d19c:	7812      	ldrb	r2, [r2, #0]
    d19e:	404a      	eors	r2, r1
    d1a0:	b2d2      	uxtb	r2, r2
    d1a2:	701a      	strb	r2, [r3, #0]
    d1a4:	687b      	ldr	r3, [r7, #4]
    d1a6:	330f      	adds	r3, #15
    d1a8:	687a      	ldr	r2, [r7, #4]
    d1aa:	320f      	adds	r2, #15
    d1ac:	7811      	ldrb	r1, [r2, #0]
    d1ae:	220d      	movs	r2, #13
    d1b0:	18ba      	adds	r2, r7, r2
    d1b2:	7812      	ldrb	r2, [r2, #0]
    d1b4:	404a      	eors	r2, r1
    d1b6:	b2d2      	uxtb	r2, r2
    d1b8:	701a      	strb	r2, [r3, #0]
    d1ba:	687b      	ldr	r3, [r7, #4]
    d1bc:	781a      	ldrb	r2, [r3, #0]
    d1be:	687b      	ldr	r3, [r7, #4]
    d1c0:	3301      	adds	r3, #1
    d1c2:	781b      	ldrb	r3, [r3, #0]
    d1c4:	4053      	eors	r3, r2
    d1c6:	b2da      	uxtb	r2, r3
    d1c8:	687b      	ldr	r3, [r7, #4]
    d1ca:	3302      	adds	r3, #2
    d1cc:	781b      	ldrb	r3, [r3, #0]
    d1ce:	4053      	eors	r3, r2
    d1d0:	b2d9      	uxtb	r1, r3
    d1d2:	687b      	ldr	r3, [r7, #4]
    d1d4:	3303      	adds	r3, #3
    d1d6:	781a      	ldrb	r2, [r3, #0]
    d1d8:	230e      	movs	r3, #14
    d1da:	18fb      	adds	r3, r7, r3
    d1dc:	404a      	eors	r2, r1
    d1de:	701a      	strb	r2, [r3, #0]
    d1e0:	230d      	movs	r3, #13
    d1e2:	18fb      	adds	r3, r7, r3
    d1e4:	687a      	ldr	r2, [r7, #4]
    d1e6:	7812      	ldrb	r2, [r2, #0]
    d1e8:	701a      	strb	r2, [r3, #0]
    d1ea:	687b      	ldr	r3, [r7, #4]
    d1ec:	7819      	ldrb	r1, [r3, #0]
    d1ee:	687b      	ldr	r3, [r7, #4]
    d1f0:	3301      	adds	r3, #1
    d1f2:	781a      	ldrb	r2, [r3, #0]
    d1f4:	230c      	movs	r3, #12
    d1f6:	18fb      	adds	r3, r7, r3
    d1f8:	404a      	eors	r2, r1
    d1fa:	701a      	strb	r2, [r3, #0]
    d1fc:	230c      	movs	r3, #12
    d1fe:	18fc      	adds	r4, r7, r3
    d200:	230c      	movs	r3, #12
    d202:	18fb      	adds	r3, r7, r3
    d204:	781b      	ldrb	r3, [r3, #0]
    d206:	0018      	movs	r0, r3
    d208:	4b4c      	ldr	r3, [pc, #304]	; (d33c <aes_decr+0x830>)
    d20a:	4798      	blx	r3
    d20c:	0003      	movs	r3, r0
    d20e:	7023      	strb	r3, [r4, #0]
    d210:	687b      	ldr	r3, [r7, #4]
    d212:	781a      	ldrb	r2, [r3, #0]
    d214:	230c      	movs	r3, #12
    d216:	18fb      	adds	r3, r7, r3
    d218:	781b      	ldrb	r3, [r3, #0]
    d21a:	4053      	eors	r3, r2
    d21c:	b2da      	uxtb	r2, r3
    d21e:	230e      	movs	r3, #14
    d220:	18fb      	adds	r3, r7, r3
    d222:	781b      	ldrb	r3, [r3, #0]
    d224:	4053      	eors	r3, r2
    d226:	b2da      	uxtb	r2, r3
    d228:	687b      	ldr	r3, [r7, #4]
    d22a:	701a      	strb	r2, [r3, #0]
    d22c:	687b      	ldr	r3, [r7, #4]
    d22e:	3301      	adds	r3, #1
    d230:	7819      	ldrb	r1, [r3, #0]
    d232:	687b      	ldr	r3, [r7, #4]
    d234:	3302      	adds	r3, #2
    d236:	781a      	ldrb	r2, [r3, #0]
    d238:	230c      	movs	r3, #12
    d23a:	18fb      	adds	r3, r7, r3
    d23c:	404a      	eors	r2, r1
    d23e:	701a      	strb	r2, [r3, #0]
    d240:	230c      	movs	r3, #12
    d242:	18fc      	adds	r4, r7, r3
    d244:	230c      	movs	r3, #12
    d246:	18fb      	adds	r3, r7, r3
    d248:	781b      	ldrb	r3, [r3, #0]
    d24a:	0018      	movs	r0, r3
    d24c:	4b3b      	ldr	r3, [pc, #236]	; (d33c <aes_decr+0x830>)
    d24e:	4798      	blx	r3
    d250:	0003      	movs	r3, r0
    d252:	7023      	strb	r3, [r4, #0]
    d254:	687b      	ldr	r3, [r7, #4]
    d256:	3301      	adds	r3, #1
    d258:	687a      	ldr	r2, [r7, #4]
    d25a:	3201      	adds	r2, #1
    d25c:	7811      	ldrb	r1, [r2, #0]
    d25e:	220c      	movs	r2, #12
    d260:	18ba      	adds	r2, r7, r2
    d262:	7812      	ldrb	r2, [r2, #0]
    d264:	404a      	eors	r2, r1
    d266:	b2d1      	uxtb	r1, r2
    d268:	220e      	movs	r2, #14
    d26a:	18ba      	adds	r2, r7, r2
    d26c:	7812      	ldrb	r2, [r2, #0]
    d26e:	404a      	eors	r2, r1
    d270:	b2d2      	uxtb	r2, r2
    d272:	701a      	strb	r2, [r3, #0]
    d274:	687b      	ldr	r3, [r7, #4]
    d276:	3302      	adds	r3, #2
    d278:	7819      	ldrb	r1, [r3, #0]
    d27a:	687b      	ldr	r3, [r7, #4]
    d27c:	3303      	adds	r3, #3
    d27e:	781a      	ldrb	r2, [r3, #0]
    d280:	230c      	movs	r3, #12
    d282:	18fb      	adds	r3, r7, r3
    d284:	404a      	eors	r2, r1
    d286:	701a      	strb	r2, [r3, #0]
    d288:	230c      	movs	r3, #12
    d28a:	18fc      	adds	r4, r7, r3
    d28c:	230c      	movs	r3, #12
    d28e:	18fb      	adds	r3, r7, r3
    d290:	781b      	ldrb	r3, [r3, #0]
    d292:	0018      	movs	r0, r3
    d294:	4b29      	ldr	r3, [pc, #164]	; (d33c <aes_decr+0x830>)
    d296:	4798      	blx	r3
    d298:	0003      	movs	r3, r0
    d29a:	7023      	strb	r3, [r4, #0]
    d29c:	687b      	ldr	r3, [r7, #4]
    d29e:	3302      	adds	r3, #2
    d2a0:	687a      	ldr	r2, [r7, #4]
    d2a2:	3202      	adds	r2, #2
    d2a4:	7811      	ldrb	r1, [r2, #0]
    d2a6:	220c      	movs	r2, #12
    d2a8:	18ba      	adds	r2, r7, r2
    d2aa:	7812      	ldrb	r2, [r2, #0]
    d2ac:	404a      	eors	r2, r1
    d2ae:	b2d1      	uxtb	r1, r2
    d2b0:	220e      	movs	r2, #14
    d2b2:	18ba      	adds	r2, r7, r2
    d2b4:	7812      	ldrb	r2, [r2, #0]
    d2b6:	404a      	eors	r2, r1
    d2b8:	b2d2      	uxtb	r2, r2
    d2ba:	701a      	strb	r2, [r3, #0]
    d2bc:	687b      	ldr	r3, [r7, #4]
    d2be:	3303      	adds	r3, #3
    d2c0:	7819      	ldrb	r1, [r3, #0]
    d2c2:	230c      	movs	r3, #12
    d2c4:	18fb      	adds	r3, r7, r3
    d2c6:	220d      	movs	r2, #13
    d2c8:	18ba      	adds	r2, r7, r2
    d2ca:	7812      	ldrb	r2, [r2, #0]
    d2cc:	404a      	eors	r2, r1
    d2ce:	701a      	strb	r2, [r3, #0]
    d2d0:	230c      	movs	r3, #12
    d2d2:	18fc      	adds	r4, r7, r3
    d2d4:	230c      	movs	r3, #12
    d2d6:	18fb      	adds	r3, r7, r3
    d2d8:	781b      	ldrb	r3, [r3, #0]
    d2da:	0018      	movs	r0, r3
    d2dc:	4b17      	ldr	r3, [pc, #92]	; (d33c <aes_decr+0x830>)
    d2de:	4798      	blx	r3
    d2e0:	0003      	movs	r3, r0
    d2e2:	7023      	strb	r3, [r4, #0]
    d2e4:	687b      	ldr	r3, [r7, #4]
    d2e6:	3303      	adds	r3, #3
    d2e8:	687a      	ldr	r2, [r7, #4]
    d2ea:	3203      	adds	r2, #3
    d2ec:	7811      	ldrb	r1, [r2, #0]
    d2ee:	220c      	movs	r2, #12
    d2f0:	18ba      	adds	r2, r7, r2
    d2f2:	7812      	ldrb	r2, [r2, #0]
    d2f4:	404a      	eors	r2, r1
    d2f6:	b2d1      	uxtb	r1, r2
    d2f8:	220e      	movs	r2, #14
    d2fa:	18ba      	adds	r2, r7, r2
    d2fc:	7812      	ldrb	r2, [r2, #0]
    d2fe:	404a      	eors	r2, r1
    d300:	b2d2      	uxtb	r2, r2
    d302:	701a      	strb	r2, [r3, #0]
    d304:	687b      	ldr	r3, [r7, #4]
    d306:	3304      	adds	r3, #4
    d308:	781a      	ldrb	r2, [r3, #0]
    d30a:	687b      	ldr	r3, [r7, #4]
    d30c:	3305      	adds	r3, #5
    d30e:	781b      	ldrb	r3, [r3, #0]
    d310:	4053      	eors	r3, r2
    d312:	b2da      	uxtb	r2, r3
    d314:	687b      	ldr	r3, [r7, #4]
    d316:	3306      	adds	r3, #6
    d318:	781b      	ldrb	r3, [r3, #0]
    d31a:	4053      	eors	r3, r2
    d31c:	b2d9      	uxtb	r1, r3
    d31e:	687b      	ldr	r3, [r7, #4]
    d320:	3307      	adds	r3, #7
    d322:	781a      	ldrb	r2, [r3, #0]
    d324:	230e      	movs	r3, #14
    d326:	18fb      	adds	r3, r7, r3
    d328:	404a      	eors	r2, r1
    d32a:	701a      	strb	r2, [r3, #0]
    d32c:	230d      	movs	r3, #13
    d32e:	18fb      	adds	r3, r7, r3
    d330:	687a      	ldr	r2, [r7, #4]
    d332:	7912      	ldrb	r2, [r2, #4]
    d334:	701a      	strb	r2, [r3, #0]
    d336:	687b      	ldr	r3, [r7, #4]
    d338:	e002      	b.n	d340 <aes_decr+0x834>
    d33a:	46c0      	nop			; (mov r8, r8)
    d33c:	0000cad1 	.word	0x0000cad1
    d340:	3304      	adds	r3, #4
    d342:	7819      	ldrb	r1, [r3, #0]
    d344:	687b      	ldr	r3, [r7, #4]
    d346:	3305      	adds	r3, #5
    d348:	781a      	ldrb	r2, [r3, #0]
    d34a:	230c      	movs	r3, #12
    d34c:	18fb      	adds	r3, r7, r3
    d34e:	404a      	eors	r2, r1
    d350:	701a      	strb	r2, [r3, #0]
    d352:	230c      	movs	r3, #12
    d354:	18fc      	adds	r4, r7, r3
    d356:	230c      	movs	r3, #12
    d358:	18fb      	adds	r3, r7, r3
    d35a:	781b      	ldrb	r3, [r3, #0]
    d35c:	0018      	movs	r0, r3
    d35e:	4bfe      	ldr	r3, [pc, #1016]	; (d758 <aes_decr+0xc4c>)
    d360:	4798      	blx	r3
    d362:	0003      	movs	r3, r0
    d364:	7023      	strb	r3, [r4, #0]
    d366:	687b      	ldr	r3, [r7, #4]
    d368:	3304      	adds	r3, #4
    d36a:	687a      	ldr	r2, [r7, #4]
    d36c:	3204      	adds	r2, #4
    d36e:	7811      	ldrb	r1, [r2, #0]
    d370:	220c      	movs	r2, #12
    d372:	18ba      	adds	r2, r7, r2
    d374:	7812      	ldrb	r2, [r2, #0]
    d376:	404a      	eors	r2, r1
    d378:	b2d1      	uxtb	r1, r2
    d37a:	220e      	movs	r2, #14
    d37c:	18ba      	adds	r2, r7, r2
    d37e:	7812      	ldrb	r2, [r2, #0]
    d380:	404a      	eors	r2, r1
    d382:	b2d2      	uxtb	r2, r2
    d384:	701a      	strb	r2, [r3, #0]
    d386:	687b      	ldr	r3, [r7, #4]
    d388:	3305      	adds	r3, #5
    d38a:	7819      	ldrb	r1, [r3, #0]
    d38c:	687b      	ldr	r3, [r7, #4]
    d38e:	3306      	adds	r3, #6
    d390:	781a      	ldrb	r2, [r3, #0]
    d392:	230c      	movs	r3, #12
    d394:	18fb      	adds	r3, r7, r3
    d396:	404a      	eors	r2, r1
    d398:	701a      	strb	r2, [r3, #0]
    d39a:	230c      	movs	r3, #12
    d39c:	18fc      	adds	r4, r7, r3
    d39e:	230c      	movs	r3, #12
    d3a0:	18fb      	adds	r3, r7, r3
    d3a2:	781b      	ldrb	r3, [r3, #0]
    d3a4:	0018      	movs	r0, r3
    d3a6:	4bec      	ldr	r3, [pc, #944]	; (d758 <aes_decr+0xc4c>)
    d3a8:	4798      	blx	r3
    d3aa:	0003      	movs	r3, r0
    d3ac:	7023      	strb	r3, [r4, #0]
    d3ae:	687b      	ldr	r3, [r7, #4]
    d3b0:	3305      	adds	r3, #5
    d3b2:	687a      	ldr	r2, [r7, #4]
    d3b4:	3205      	adds	r2, #5
    d3b6:	7811      	ldrb	r1, [r2, #0]
    d3b8:	220c      	movs	r2, #12
    d3ba:	18ba      	adds	r2, r7, r2
    d3bc:	7812      	ldrb	r2, [r2, #0]
    d3be:	404a      	eors	r2, r1
    d3c0:	b2d1      	uxtb	r1, r2
    d3c2:	220e      	movs	r2, #14
    d3c4:	18ba      	adds	r2, r7, r2
    d3c6:	7812      	ldrb	r2, [r2, #0]
    d3c8:	404a      	eors	r2, r1
    d3ca:	b2d2      	uxtb	r2, r2
    d3cc:	701a      	strb	r2, [r3, #0]
    d3ce:	687b      	ldr	r3, [r7, #4]
    d3d0:	3306      	adds	r3, #6
    d3d2:	7819      	ldrb	r1, [r3, #0]
    d3d4:	687b      	ldr	r3, [r7, #4]
    d3d6:	3307      	adds	r3, #7
    d3d8:	781a      	ldrb	r2, [r3, #0]
    d3da:	230c      	movs	r3, #12
    d3dc:	18fb      	adds	r3, r7, r3
    d3de:	404a      	eors	r2, r1
    d3e0:	701a      	strb	r2, [r3, #0]
    d3e2:	230c      	movs	r3, #12
    d3e4:	18fc      	adds	r4, r7, r3
    d3e6:	230c      	movs	r3, #12
    d3e8:	18fb      	adds	r3, r7, r3
    d3ea:	781b      	ldrb	r3, [r3, #0]
    d3ec:	0018      	movs	r0, r3
    d3ee:	4bda      	ldr	r3, [pc, #872]	; (d758 <aes_decr+0xc4c>)
    d3f0:	4798      	blx	r3
    d3f2:	0003      	movs	r3, r0
    d3f4:	7023      	strb	r3, [r4, #0]
    d3f6:	687b      	ldr	r3, [r7, #4]
    d3f8:	3306      	adds	r3, #6
    d3fa:	687a      	ldr	r2, [r7, #4]
    d3fc:	3206      	adds	r2, #6
    d3fe:	7811      	ldrb	r1, [r2, #0]
    d400:	220c      	movs	r2, #12
    d402:	18ba      	adds	r2, r7, r2
    d404:	7812      	ldrb	r2, [r2, #0]
    d406:	404a      	eors	r2, r1
    d408:	b2d1      	uxtb	r1, r2
    d40a:	220e      	movs	r2, #14
    d40c:	18ba      	adds	r2, r7, r2
    d40e:	7812      	ldrb	r2, [r2, #0]
    d410:	404a      	eors	r2, r1
    d412:	b2d2      	uxtb	r2, r2
    d414:	701a      	strb	r2, [r3, #0]
    d416:	687b      	ldr	r3, [r7, #4]
    d418:	3307      	adds	r3, #7
    d41a:	7819      	ldrb	r1, [r3, #0]
    d41c:	230c      	movs	r3, #12
    d41e:	18fb      	adds	r3, r7, r3
    d420:	220d      	movs	r2, #13
    d422:	18ba      	adds	r2, r7, r2
    d424:	7812      	ldrb	r2, [r2, #0]
    d426:	404a      	eors	r2, r1
    d428:	701a      	strb	r2, [r3, #0]
    d42a:	230c      	movs	r3, #12
    d42c:	18fc      	adds	r4, r7, r3
    d42e:	230c      	movs	r3, #12
    d430:	18fb      	adds	r3, r7, r3
    d432:	781b      	ldrb	r3, [r3, #0]
    d434:	0018      	movs	r0, r3
    d436:	4bc8      	ldr	r3, [pc, #800]	; (d758 <aes_decr+0xc4c>)
    d438:	4798      	blx	r3
    d43a:	0003      	movs	r3, r0
    d43c:	7023      	strb	r3, [r4, #0]
    d43e:	687b      	ldr	r3, [r7, #4]
    d440:	3307      	adds	r3, #7
    d442:	687a      	ldr	r2, [r7, #4]
    d444:	3207      	adds	r2, #7
    d446:	7811      	ldrb	r1, [r2, #0]
    d448:	220c      	movs	r2, #12
    d44a:	18ba      	adds	r2, r7, r2
    d44c:	7812      	ldrb	r2, [r2, #0]
    d44e:	404a      	eors	r2, r1
    d450:	b2d1      	uxtb	r1, r2
    d452:	220e      	movs	r2, #14
    d454:	18ba      	adds	r2, r7, r2
    d456:	7812      	ldrb	r2, [r2, #0]
    d458:	404a      	eors	r2, r1
    d45a:	b2d2      	uxtb	r2, r2
    d45c:	701a      	strb	r2, [r3, #0]
    d45e:	687b      	ldr	r3, [r7, #4]
    d460:	3308      	adds	r3, #8
    d462:	781a      	ldrb	r2, [r3, #0]
    d464:	687b      	ldr	r3, [r7, #4]
    d466:	3309      	adds	r3, #9
    d468:	781b      	ldrb	r3, [r3, #0]
    d46a:	4053      	eors	r3, r2
    d46c:	b2da      	uxtb	r2, r3
    d46e:	687b      	ldr	r3, [r7, #4]
    d470:	330a      	adds	r3, #10
    d472:	781b      	ldrb	r3, [r3, #0]
    d474:	4053      	eors	r3, r2
    d476:	b2d9      	uxtb	r1, r3
    d478:	687b      	ldr	r3, [r7, #4]
    d47a:	330b      	adds	r3, #11
    d47c:	781a      	ldrb	r2, [r3, #0]
    d47e:	230e      	movs	r3, #14
    d480:	18fb      	adds	r3, r7, r3
    d482:	404a      	eors	r2, r1
    d484:	701a      	strb	r2, [r3, #0]
    d486:	230d      	movs	r3, #13
    d488:	18fb      	adds	r3, r7, r3
    d48a:	687a      	ldr	r2, [r7, #4]
    d48c:	7a12      	ldrb	r2, [r2, #8]
    d48e:	701a      	strb	r2, [r3, #0]
    d490:	687b      	ldr	r3, [r7, #4]
    d492:	3308      	adds	r3, #8
    d494:	7819      	ldrb	r1, [r3, #0]
    d496:	687b      	ldr	r3, [r7, #4]
    d498:	3309      	adds	r3, #9
    d49a:	781a      	ldrb	r2, [r3, #0]
    d49c:	230c      	movs	r3, #12
    d49e:	18fb      	adds	r3, r7, r3
    d4a0:	404a      	eors	r2, r1
    d4a2:	701a      	strb	r2, [r3, #0]
    d4a4:	230c      	movs	r3, #12
    d4a6:	18fc      	adds	r4, r7, r3
    d4a8:	230c      	movs	r3, #12
    d4aa:	18fb      	adds	r3, r7, r3
    d4ac:	781b      	ldrb	r3, [r3, #0]
    d4ae:	0018      	movs	r0, r3
    d4b0:	4ba9      	ldr	r3, [pc, #676]	; (d758 <aes_decr+0xc4c>)
    d4b2:	4798      	blx	r3
    d4b4:	0003      	movs	r3, r0
    d4b6:	7023      	strb	r3, [r4, #0]
    d4b8:	687b      	ldr	r3, [r7, #4]
    d4ba:	3308      	adds	r3, #8
    d4bc:	687a      	ldr	r2, [r7, #4]
    d4be:	3208      	adds	r2, #8
    d4c0:	7811      	ldrb	r1, [r2, #0]
    d4c2:	220c      	movs	r2, #12
    d4c4:	18ba      	adds	r2, r7, r2
    d4c6:	7812      	ldrb	r2, [r2, #0]
    d4c8:	404a      	eors	r2, r1
    d4ca:	b2d1      	uxtb	r1, r2
    d4cc:	220e      	movs	r2, #14
    d4ce:	18ba      	adds	r2, r7, r2
    d4d0:	7812      	ldrb	r2, [r2, #0]
    d4d2:	404a      	eors	r2, r1
    d4d4:	b2d2      	uxtb	r2, r2
    d4d6:	701a      	strb	r2, [r3, #0]
    d4d8:	687b      	ldr	r3, [r7, #4]
    d4da:	3309      	adds	r3, #9
    d4dc:	7819      	ldrb	r1, [r3, #0]
    d4de:	687b      	ldr	r3, [r7, #4]
    d4e0:	330a      	adds	r3, #10
    d4e2:	781a      	ldrb	r2, [r3, #0]
    d4e4:	230c      	movs	r3, #12
    d4e6:	18fb      	adds	r3, r7, r3
    d4e8:	404a      	eors	r2, r1
    d4ea:	701a      	strb	r2, [r3, #0]
    d4ec:	230c      	movs	r3, #12
    d4ee:	18fc      	adds	r4, r7, r3
    d4f0:	230c      	movs	r3, #12
    d4f2:	18fb      	adds	r3, r7, r3
    d4f4:	781b      	ldrb	r3, [r3, #0]
    d4f6:	0018      	movs	r0, r3
    d4f8:	4b97      	ldr	r3, [pc, #604]	; (d758 <aes_decr+0xc4c>)
    d4fa:	4798      	blx	r3
    d4fc:	0003      	movs	r3, r0
    d4fe:	7023      	strb	r3, [r4, #0]
    d500:	687b      	ldr	r3, [r7, #4]
    d502:	3309      	adds	r3, #9
    d504:	687a      	ldr	r2, [r7, #4]
    d506:	3209      	adds	r2, #9
    d508:	7811      	ldrb	r1, [r2, #0]
    d50a:	220c      	movs	r2, #12
    d50c:	18ba      	adds	r2, r7, r2
    d50e:	7812      	ldrb	r2, [r2, #0]
    d510:	404a      	eors	r2, r1
    d512:	b2d1      	uxtb	r1, r2
    d514:	220e      	movs	r2, #14
    d516:	18ba      	adds	r2, r7, r2
    d518:	7812      	ldrb	r2, [r2, #0]
    d51a:	404a      	eors	r2, r1
    d51c:	b2d2      	uxtb	r2, r2
    d51e:	701a      	strb	r2, [r3, #0]
    d520:	687b      	ldr	r3, [r7, #4]
    d522:	330a      	adds	r3, #10
    d524:	7819      	ldrb	r1, [r3, #0]
    d526:	687b      	ldr	r3, [r7, #4]
    d528:	330b      	adds	r3, #11
    d52a:	781a      	ldrb	r2, [r3, #0]
    d52c:	230c      	movs	r3, #12
    d52e:	18fb      	adds	r3, r7, r3
    d530:	404a      	eors	r2, r1
    d532:	701a      	strb	r2, [r3, #0]
    d534:	230c      	movs	r3, #12
    d536:	18fc      	adds	r4, r7, r3
    d538:	230c      	movs	r3, #12
    d53a:	18fb      	adds	r3, r7, r3
    d53c:	781b      	ldrb	r3, [r3, #0]
    d53e:	0018      	movs	r0, r3
    d540:	4b85      	ldr	r3, [pc, #532]	; (d758 <aes_decr+0xc4c>)
    d542:	4798      	blx	r3
    d544:	0003      	movs	r3, r0
    d546:	7023      	strb	r3, [r4, #0]
    d548:	687b      	ldr	r3, [r7, #4]
    d54a:	330a      	adds	r3, #10
    d54c:	687a      	ldr	r2, [r7, #4]
    d54e:	320a      	adds	r2, #10
    d550:	7811      	ldrb	r1, [r2, #0]
    d552:	220c      	movs	r2, #12
    d554:	18ba      	adds	r2, r7, r2
    d556:	7812      	ldrb	r2, [r2, #0]
    d558:	404a      	eors	r2, r1
    d55a:	b2d1      	uxtb	r1, r2
    d55c:	220e      	movs	r2, #14
    d55e:	18ba      	adds	r2, r7, r2
    d560:	7812      	ldrb	r2, [r2, #0]
    d562:	404a      	eors	r2, r1
    d564:	b2d2      	uxtb	r2, r2
    d566:	701a      	strb	r2, [r3, #0]
    d568:	687b      	ldr	r3, [r7, #4]
    d56a:	330b      	adds	r3, #11
    d56c:	7819      	ldrb	r1, [r3, #0]
    d56e:	230c      	movs	r3, #12
    d570:	18fb      	adds	r3, r7, r3
    d572:	220d      	movs	r2, #13
    d574:	18ba      	adds	r2, r7, r2
    d576:	7812      	ldrb	r2, [r2, #0]
    d578:	404a      	eors	r2, r1
    d57a:	701a      	strb	r2, [r3, #0]
    d57c:	230c      	movs	r3, #12
    d57e:	18fc      	adds	r4, r7, r3
    d580:	230c      	movs	r3, #12
    d582:	18fb      	adds	r3, r7, r3
    d584:	781b      	ldrb	r3, [r3, #0]
    d586:	0018      	movs	r0, r3
    d588:	4b73      	ldr	r3, [pc, #460]	; (d758 <aes_decr+0xc4c>)
    d58a:	4798      	blx	r3
    d58c:	0003      	movs	r3, r0
    d58e:	7023      	strb	r3, [r4, #0]
    d590:	687b      	ldr	r3, [r7, #4]
    d592:	330b      	adds	r3, #11
    d594:	687a      	ldr	r2, [r7, #4]
    d596:	320b      	adds	r2, #11
    d598:	7811      	ldrb	r1, [r2, #0]
    d59a:	220c      	movs	r2, #12
    d59c:	18ba      	adds	r2, r7, r2
    d59e:	7812      	ldrb	r2, [r2, #0]
    d5a0:	404a      	eors	r2, r1
    d5a2:	b2d1      	uxtb	r1, r2
    d5a4:	220e      	movs	r2, #14
    d5a6:	18ba      	adds	r2, r7, r2
    d5a8:	7812      	ldrb	r2, [r2, #0]
    d5aa:	404a      	eors	r2, r1
    d5ac:	b2d2      	uxtb	r2, r2
    d5ae:	701a      	strb	r2, [r3, #0]
    d5b0:	687b      	ldr	r3, [r7, #4]
    d5b2:	330c      	adds	r3, #12
    d5b4:	781a      	ldrb	r2, [r3, #0]
    d5b6:	687b      	ldr	r3, [r7, #4]
    d5b8:	330d      	adds	r3, #13
    d5ba:	781b      	ldrb	r3, [r3, #0]
    d5bc:	4053      	eors	r3, r2
    d5be:	b2da      	uxtb	r2, r3
    d5c0:	687b      	ldr	r3, [r7, #4]
    d5c2:	330e      	adds	r3, #14
    d5c4:	781b      	ldrb	r3, [r3, #0]
    d5c6:	4053      	eors	r3, r2
    d5c8:	b2d9      	uxtb	r1, r3
    d5ca:	687b      	ldr	r3, [r7, #4]
    d5cc:	330f      	adds	r3, #15
    d5ce:	781a      	ldrb	r2, [r3, #0]
    d5d0:	230e      	movs	r3, #14
    d5d2:	18fb      	adds	r3, r7, r3
    d5d4:	404a      	eors	r2, r1
    d5d6:	701a      	strb	r2, [r3, #0]
    d5d8:	230d      	movs	r3, #13
    d5da:	18fb      	adds	r3, r7, r3
    d5dc:	687a      	ldr	r2, [r7, #4]
    d5de:	7b12      	ldrb	r2, [r2, #12]
    d5e0:	701a      	strb	r2, [r3, #0]
    d5e2:	687b      	ldr	r3, [r7, #4]
    d5e4:	330c      	adds	r3, #12
    d5e6:	7819      	ldrb	r1, [r3, #0]
    d5e8:	687b      	ldr	r3, [r7, #4]
    d5ea:	330d      	adds	r3, #13
    d5ec:	781a      	ldrb	r2, [r3, #0]
    d5ee:	230c      	movs	r3, #12
    d5f0:	18fb      	adds	r3, r7, r3
    d5f2:	404a      	eors	r2, r1
    d5f4:	701a      	strb	r2, [r3, #0]
    d5f6:	230c      	movs	r3, #12
    d5f8:	18fc      	adds	r4, r7, r3
    d5fa:	230c      	movs	r3, #12
    d5fc:	18fb      	adds	r3, r7, r3
    d5fe:	781b      	ldrb	r3, [r3, #0]
    d600:	0018      	movs	r0, r3
    d602:	4b55      	ldr	r3, [pc, #340]	; (d758 <aes_decr+0xc4c>)
    d604:	4798      	blx	r3
    d606:	0003      	movs	r3, r0
    d608:	7023      	strb	r3, [r4, #0]
    d60a:	687b      	ldr	r3, [r7, #4]
    d60c:	330c      	adds	r3, #12
    d60e:	687a      	ldr	r2, [r7, #4]
    d610:	320c      	adds	r2, #12
    d612:	7811      	ldrb	r1, [r2, #0]
    d614:	220c      	movs	r2, #12
    d616:	18ba      	adds	r2, r7, r2
    d618:	7812      	ldrb	r2, [r2, #0]
    d61a:	404a      	eors	r2, r1
    d61c:	b2d1      	uxtb	r1, r2
    d61e:	220e      	movs	r2, #14
    d620:	18ba      	adds	r2, r7, r2
    d622:	7812      	ldrb	r2, [r2, #0]
    d624:	404a      	eors	r2, r1
    d626:	b2d2      	uxtb	r2, r2
    d628:	701a      	strb	r2, [r3, #0]
    d62a:	687b      	ldr	r3, [r7, #4]
    d62c:	330d      	adds	r3, #13
    d62e:	7819      	ldrb	r1, [r3, #0]
    d630:	687b      	ldr	r3, [r7, #4]
    d632:	330e      	adds	r3, #14
    d634:	781a      	ldrb	r2, [r3, #0]
    d636:	230c      	movs	r3, #12
    d638:	18fb      	adds	r3, r7, r3
    d63a:	404a      	eors	r2, r1
    d63c:	701a      	strb	r2, [r3, #0]
    d63e:	230c      	movs	r3, #12
    d640:	18fc      	adds	r4, r7, r3
    d642:	230c      	movs	r3, #12
    d644:	18fb      	adds	r3, r7, r3
    d646:	781b      	ldrb	r3, [r3, #0]
    d648:	0018      	movs	r0, r3
    d64a:	4b43      	ldr	r3, [pc, #268]	; (d758 <aes_decr+0xc4c>)
    d64c:	4798      	blx	r3
    d64e:	0003      	movs	r3, r0
    d650:	7023      	strb	r3, [r4, #0]
    d652:	687b      	ldr	r3, [r7, #4]
    d654:	330d      	adds	r3, #13
    d656:	687a      	ldr	r2, [r7, #4]
    d658:	320d      	adds	r2, #13
    d65a:	7811      	ldrb	r1, [r2, #0]
    d65c:	220c      	movs	r2, #12
    d65e:	18ba      	adds	r2, r7, r2
    d660:	7812      	ldrb	r2, [r2, #0]
    d662:	404a      	eors	r2, r1
    d664:	b2d1      	uxtb	r1, r2
    d666:	220e      	movs	r2, #14
    d668:	18ba      	adds	r2, r7, r2
    d66a:	7812      	ldrb	r2, [r2, #0]
    d66c:	404a      	eors	r2, r1
    d66e:	b2d2      	uxtb	r2, r2
    d670:	701a      	strb	r2, [r3, #0]
    d672:	687b      	ldr	r3, [r7, #4]
    d674:	330e      	adds	r3, #14
    d676:	7819      	ldrb	r1, [r3, #0]
    d678:	687b      	ldr	r3, [r7, #4]
    d67a:	330f      	adds	r3, #15
    d67c:	781a      	ldrb	r2, [r3, #0]
    d67e:	230c      	movs	r3, #12
    d680:	18fb      	adds	r3, r7, r3
    d682:	404a      	eors	r2, r1
    d684:	701a      	strb	r2, [r3, #0]
    d686:	230c      	movs	r3, #12
    d688:	18fc      	adds	r4, r7, r3
    d68a:	230c      	movs	r3, #12
    d68c:	18fb      	adds	r3, r7, r3
    d68e:	781b      	ldrb	r3, [r3, #0]
    d690:	0018      	movs	r0, r3
    d692:	4b31      	ldr	r3, [pc, #196]	; (d758 <aes_decr+0xc4c>)
    d694:	4798      	blx	r3
    d696:	0003      	movs	r3, r0
    d698:	7023      	strb	r3, [r4, #0]
    d69a:	687b      	ldr	r3, [r7, #4]
    d69c:	330e      	adds	r3, #14
    d69e:	687a      	ldr	r2, [r7, #4]
    d6a0:	320e      	adds	r2, #14
    d6a2:	7811      	ldrb	r1, [r2, #0]
    d6a4:	220c      	movs	r2, #12
    d6a6:	18ba      	adds	r2, r7, r2
    d6a8:	7812      	ldrb	r2, [r2, #0]
    d6aa:	404a      	eors	r2, r1
    d6ac:	b2d1      	uxtb	r1, r2
    d6ae:	220e      	movs	r2, #14
    d6b0:	18ba      	adds	r2, r7, r2
    d6b2:	7812      	ldrb	r2, [r2, #0]
    d6b4:	404a      	eors	r2, r1
    d6b6:	b2d2      	uxtb	r2, r2
    d6b8:	701a      	strb	r2, [r3, #0]
    d6ba:	687b      	ldr	r3, [r7, #4]
    d6bc:	330f      	adds	r3, #15
    d6be:	7819      	ldrb	r1, [r3, #0]
    d6c0:	230c      	movs	r3, #12
    d6c2:	18fb      	adds	r3, r7, r3
    d6c4:	220d      	movs	r2, #13
    d6c6:	18ba      	adds	r2, r7, r2
    d6c8:	7812      	ldrb	r2, [r2, #0]
    d6ca:	404a      	eors	r2, r1
    d6cc:	701a      	strb	r2, [r3, #0]
    d6ce:	230c      	movs	r3, #12
    d6d0:	18fc      	adds	r4, r7, r3
    d6d2:	230c      	movs	r3, #12
    d6d4:	18fb      	adds	r3, r7, r3
    d6d6:	781b      	ldrb	r3, [r3, #0]
    d6d8:	0018      	movs	r0, r3
    d6da:	4b1f      	ldr	r3, [pc, #124]	; (d758 <aes_decr+0xc4c>)
    d6dc:	4798      	blx	r3
    d6de:	0003      	movs	r3, r0
    d6e0:	7023      	strb	r3, [r4, #0]
    d6e2:	687b      	ldr	r3, [r7, #4]
    d6e4:	330f      	adds	r3, #15
    d6e6:	687a      	ldr	r2, [r7, #4]
    d6e8:	320f      	adds	r2, #15
    d6ea:	7811      	ldrb	r1, [r2, #0]
    d6ec:	220c      	movs	r2, #12
    d6ee:	18ba      	adds	r2, r7, r2
    d6f0:	7812      	ldrb	r2, [r2, #0]
    d6f2:	404a      	eors	r2, r1
    d6f4:	b2d1      	uxtb	r1, r2
    d6f6:	220e      	movs	r2, #14
    d6f8:	18ba      	adds	r2, r7, r2
    d6fa:	7812      	ldrb	r2, [r2, #0]
    d6fc:	404a      	eors	r2, r1
    d6fe:	b2d2      	uxtb	r2, r2
    d700:	701a      	strb	r2, [r3, #0]
    d702:	687b      	ldr	r3, [r7, #4]
    d704:	781b      	ldrb	r3, [r3, #0]
    d706:	001a      	movs	r2, r3
    d708:	4b14      	ldr	r3, [pc, #80]	; (d75c <aes_decr+0xc50>)
    d70a:	5c9a      	ldrb	r2, [r3, r2]
    d70c:	230f      	movs	r3, #15
    d70e:	18fb      	adds	r3, r7, r3
    d710:	781b      	ldrb	r3, [r3, #0]
    d712:	b25b      	sxtb	r3, r3
    d714:	011b      	lsls	r3, r3, #4
    d716:	0019      	movs	r1, r3
    d718:	683b      	ldr	r3, [r7, #0]
    d71a:	185b      	adds	r3, r3, r1
    d71c:	781b      	ldrb	r3, [r3, #0]
    d71e:	4053      	eors	r3, r2
    d720:	b2da      	uxtb	r2, r3
    d722:	687b      	ldr	r3, [r7, #4]
    d724:	701a      	strb	r2, [r3, #0]
    d726:	687b      	ldr	r3, [r7, #4]
    d728:	3304      	adds	r3, #4
    d72a:	687a      	ldr	r2, [r7, #4]
    d72c:	3204      	adds	r2, #4
    d72e:	7812      	ldrb	r2, [r2, #0]
    d730:	0011      	movs	r1, r2
    d732:	4a0a      	ldr	r2, [pc, #40]	; (d75c <aes_decr+0xc50>)
    d734:	5c51      	ldrb	r1, [r2, r1]
    d736:	220f      	movs	r2, #15
    d738:	18ba      	adds	r2, r7, r2
    d73a:	7812      	ldrb	r2, [r2, #0]
    d73c:	b252      	sxtb	r2, r2
    d73e:	0112      	lsls	r2, r2, #4
    d740:	3204      	adds	r2, #4
    d742:	6838      	ldr	r0, [r7, #0]
    d744:	1882      	adds	r2, r0, r2
    d746:	7812      	ldrb	r2, [r2, #0]
    d748:	404a      	eors	r2, r1
    d74a:	b2d2      	uxtb	r2, r2
    d74c:	701a      	strb	r2, [r3, #0]
    d74e:	687b      	ldr	r3, [r7, #4]
    d750:	3308      	adds	r3, #8
    d752:	687a      	ldr	r2, [r7, #4]
    d754:	3208      	adds	r2, #8
    d756:	e003      	b.n	d760 <aes_decr+0xc54>
    d758:	0000cad1 	.word	0x0000cad1
    d75c:	000123bc 	.word	0x000123bc
    d760:	7812      	ldrb	r2, [r2, #0]
    d762:	0011      	movs	r1, r2
    d764:	4a9d      	ldr	r2, [pc, #628]	; (d9dc <aes_decr+0xed0>)
    d766:	5c51      	ldrb	r1, [r2, r1]
    d768:	220f      	movs	r2, #15
    d76a:	18ba      	adds	r2, r7, r2
    d76c:	7812      	ldrb	r2, [r2, #0]
    d76e:	b252      	sxtb	r2, r2
    d770:	0112      	lsls	r2, r2, #4
    d772:	3208      	adds	r2, #8
    d774:	6838      	ldr	r0, [r7, #0]
    d776:	1882      	adds	r2, r0, r2
    d778:	7812      	ldrb	r2, [r2, #0]
    d77a:	404a      	eors	r2, r1
    d77c:	b2d2      	uxtb	r2, r2
    d77e:	701a      	strb	r2, [r3, #0]
    d780:	687b      	ldr	r3, [r7, #4]
    d782:	330c      	adds	r3, #12
    d784:	687a      	ldr	r2, [r7, #4]
    d786:	320c      	adds	r2, #12
    d788:	7812      	ldrb	r2, [r2, #0]
    d78a:	0011      	movs	r1, r2
    d78c:	4a93      	ldr	r2, [pc, #588]	; (d9dc <aes_decr+0xed0>)
    d78e:	5c51      	ldrb	r1, [r2, r1]
    d790:	220f      	movs	r2, #15
    d792:	18ba      	adds	r2, r7, r2
    d794:	7812      	ldrb	r2, [r2, #0]
    d796:	b252      	sxtb	r2, r2
    d798:	0112      	lsls	r2, r2, #4
    d79a:	320c      	adds	r2, #12
    d79c:	6838      	ldr	r0, [r7, #0]
    d79e:	1882      	adds	r2, r0, r2
    d7a0:	7812      	ldrb	r2, [r2, #0]
    d7a2:	404a      	eors	r2, r1
    d7a4:	b2d2      	uxtb	r2, r2
    d7a6:	701a      	strb	r2, [r3, #0]
    d7a8:	687b      	ldr	r3, [r7, #4]
    d7aa:	330d      	adds	r3, #13
    d7ac:	781b      	ldrb	r3, [r3, #0]
    d7ae:	001a      	movs	r2, r3
    d7b0:	4b8a      	ldr	r3, [pc, #552]	; (d9dc <aes_decr+0xed0>)
    d7b2:	5c99      	ldrb	r1, [r3, r2]
    d7b4:	230f      	movs	r3, #15
    d7b6:	18fb      	adds	r3, r7, r3
    d7b8:	781b      	ldrb	r3, [r3, #0]
    d7ba:	b25b      	sxtb	r3, r3
    d7bc:	011b      	lsls	r3, r3, #4
    d7be:	3301      	adds	r3, #1
    d7c0:	683a      	ldr	r2, [r7, #0]
    d7c2:	18d3      	adds	r3, r2, r3
    d7c4:	781a      	ldrb	r2, [r3, #0]
    d7c6:	230e      	movs	r3, #14
    d7c8:	18fb      	adds	r3, r7, r3
    d7ca:	404a      	eors	r2, r1
    d7cc:	701a      	strb	r2, [r3, #0]
    d7ce:	687b      	ldr	r3, [r7, #4]
    d7d0:	330d      	adds	r3, #13
    d7d2:	687a      	ldr	r2, [r7, #4]
    d7d4:	3209      	adds	r2, #9
    d7d6:	7812      	ldrb	r2, [r2, #0]
    d7d8:	0011      	movs	r1, r2
    d7da:	4a80      	ldr	r2, [pc, #512]	; (d9dc <aes_decr+0xed0>)
    d7dc:	5c51      	ldrb	r1, [r2, r1]
    d7de:	220f      	movs	r2, #15
    d7e0:	18ba      	adds	r2, r7, r2
    d7e2:	7812      	ldrb	r2, [r2, #0]
    d7e4:	b252      	sxtb	r2, r2
    d7e6:	0112      	lsls	r2, r2, #4
    d7e8:	320d      	adds	r2, #13
    d7ea:	6838      	ldr	r0, [r7, #0]
    d7ec:	1882      	adds	r2, r0, r2
    d7ee:	7812      	ldrb	r2, [r2, #0]
    d7f0:	404a      	eors	r2, r1
    d7f2:	b2d2      	uxtb	r2, r2
    d7f4:	701a      	strb	r2, [r3, #0]
    d7f6:	687b      	ldr	r3, [r7, #4]
    d7f8:	3309      	adds	r3, #9
    d7fa:	687a      	ldr	r2, [r7, #4]
    d7fc:	3205      	adds	r2, #5
    d7fe:	7812      	ldrb	r2, [r2, #0]
    d800:	0011      	movs	r1, r2
    d802:	4a76      	ldr	r2, [pc, #472]	; (d9dc <aes_decr+0xed0>)
    d804:	5c51      	ldrb	r1, [r2, r1]
    d806:	220f      	movs	r2, #15
    d808:	18ba      	adds	r2, r7, r2
    d80a:	7812      	ldrb	r2, [r2, #0]
    d80c:	b252      	sxtb	r2, r2
    d80e:	0112      	lsls	r2, r2, #4
    d810:	3209      	adds	r2, #9
    d812:	6838      	ldr	r0, [r7, #0]
    d814:	1882      	adds	r2, r0, r2
    d816:	7812      	ldrb	r2, [r2, #0]
    d818:	404a      	eors	r2, r1
    d81a:	b2d2      	uxtb	r2, r2
    d81c:	701a      	strb	r2, [r3, #0]
    d81e:	687b      	ldr	r3, [r7, #4]
    d820:	3305      	adds	r3, #5
    d822:	687a      	ldr	r2, [r7, #4]
    d824:	3201      	adds	r2, #1
    d826:	7812      	ldrb	r2, [r2, #0]
    d828:	0011      	movs	r1, r2
    d82a:	4a6c      	ldr	r2, [pc, #432]	; (d9dc <aes_decr+0xed0>)
    d82c:	5c51      	ldrb	r1, [r2, r1]
    d82e:	220f      	movs	r2, #15
    d830:	18ba      	adds	r2, r7, r2
    d832:	7812      	ldrb	r2, [r2, #0]
    d834:	b252      	sxtb	r2, r2
    d836:	0112      	lsls	r2, r2, #4
    d838:	3205      	adds	r2, #5
    d83a:	6838      	ldr	r0, [r7, #0]
    d83c:	1882      	adds	r2, r0, r2
    d83e:	7812      	ldrb	r2, [r2, #0]
    d840:	404a      	eors	r2, r1
    d842:	b2d2      	uxtb	r2, r2
    d844:	701a      	strb	r2, [r3, #0]
    d846:	687b      	ldr	r3, [r7, #4]
    d848:	3301      	adds	r3, #1
    d84a:	220e      	movs	r2, #14
    d84c:	18ba      	adds	r2, r7, r2
    d84e:	7812      	ldrb	r2, [r2, #0]
    d850:	701a      	strb	r2, [r3, #0]
    d852:	687b      	ldr	r3, [r7, #4]
    d854:	3302      	adds	r3, #2
    d856:	781b      	ldrb	r3, [r3, #0]
    d858:	001a      	movs	r2, r3
    d85a:	4b60      	ldr	r3, [pc, #384]	; (d9dc <aes_decr+0xed0>)
    d85c:	5c99      	ldrb	r1, [r3, r2]
    d85e:	230f      	movs	r3, #15
    d860:	18fb      	adds	r3, r7, r3
    d862:	781b      	ldrb	r3, [r3, #0]
    d864:	b25b      	sxtb	r3, r3
    d866:	011b      	lsls	r3, r3, #4
    d868:	330a      	adds	r3, #10
    d86a:	683a      	ldr	r2, [r7, #0]
    d86c:	18d3      	adds	r3, r2, r3
    d86e:	781a      	ldrb	r2, [r3, #0]
    d870:	230e      	movs	r3, #14
    d872:	18fb      	adds	r3, r7, r3
    d874:	404a      	eors	r2, r1
    d876:	701a      	strb	r2, [r3, #0]
    d878:	687b      	ldr	r3, [r7, #4]
    d87a:	3306      	adds	r3, #6
    d87c:	781b      	ldrb	r3, [r3, #0]
    d87e:	001a      	movs	r2, r3
    d880:	4b56      	ldr	r3, [pc, #344]	; (d9dc <aes_decr+0xed0>)
    d882:	5c99      	ldrb	r1, [r3, r2]
    d884:	230f      	movs	r3, #15
    d886:	18fb      	adds	r3, r7, r3
    d888:	781b      	ldrb	r3, [r3, #0]
    d88a:	b25b      	sxtb	r3, r3
    d88c:	011b      	lsls	r3, r3, #4
    d88e:	330e      	adds	r3, #14
    d890:	683a      	ldr	r2, [r7, #0]
    d892:	18d3      	adds	r3, r2, r3
    d894:	781a      	ldrb	r2, [r3, #0]
    d896:	230d      	movs	r3, #13
    d898:	18fb      	adds	r3, r7, r3
    d89a:	404a      	eors	r2, r1
    d89c:	701a      	strb	r2, [r3, #0]
    d89e:	687b      	ldr	r3, [r7, #4]
    d8a0:	3302      	adds	r3, #2
    d8a2:	687a      	ldr	r2, [r7, #4]
    d8a4:	320a      	adds	r2, #10
    d8a6:	7812      	ldrb	r2, [r2, #0]
    d8a8:	0011      	movs	r1, r2
    d8aa:	4a4c      	ldr	r2, [pc, #304]	; (d9dc <aes_decr+0xed0>)
    d8ac:	5c51      	ldrb	r1, [r2, r1]
    d8ae:	220f      	movs	r2, #15
    d8b0:	18ba      	adds	r2, r7, r2
    d8b2:	7812      	ldrb	r2, [r2, #0]
    d8b4:	b252      	sxtb	r2, r2
    d8b6:	0112      	lsls	r2, r2, #4
    d8b8:	3202      	adds	r2, #2
    d8ba:	6838      	ldr	r0, [r7, #0]
    d8bc:	1882      	adds	r2, r0, r2
    d8be:	7812      	ldrb	r2, [r2, #0]
    d8c0:	404a      	eors	r2, r1
    d8c2:	b2d2      	uxtb	r2, r2
    d8c4:	701a      	strb	r2, [r3, #0]
    d8c6:	687b      	ldr	r3, [r7, #4]
    d8c8:	3306      	adds	r3, #6
    d8ca:	687a      	ldr	r2, [r7, #4]
    d8cc:	320e      	adds	r2, #14
    d8ce:	7812      	ldrb	r2, [r2, #0]
    d8d0:	0011      	movs	r1, r2
    d8d2:	4a42      	ldr	r2, [pc, #264]	; (d9dc <aes_decr+0xed0>)
    d8d4:	5c51      	ldrb	r1, [r2, r1]
    d8d6:	220f      	movs	r2, #15
    d8d8:	18ba      	adds	r2, r7, r2
    d8da:	7812      	ldrb	r2, [r2, #0]
    d8dc:	b252      	sxtb	r2, r2
    d8de:	0112      	lsls	r2, r2, #4
    d8e0:	3206      	adds	r2, #6
    d8e2:	6838      	ldr	r0, [r7, #0]
    d8e4:	1882      	adds	r2, r0, r2
    d8e6:	7812      	ldrb	r2, [r2, #0]
    d8e8:	404a      	eors	r2, r1
    d8ea:	b2d2      	uxtb	r2, r2
    d8ec:	701a      	strb	r2, [r3, #0]
    d8ee:	687b      	ldr	r3, [r7, #4]
    d8f0:	330a      	adds	r3, #10
    d8f2:	220e      	movs	r2, #14
    d8f4:	18ba      	adds	r2, r7, r2
    d8f6:	7812      	ldrb	r2, [r2, #0]
    d8f8:	701a      	strb	r2, [r3, #0]
    d8fa:	687b      	ldr	r3, [r7, #4]
    d8fc:	330e      	adds	r3, #14
    d8fe:	220d      	movs	r2, #13
    d900:	18ba      	adds	r2, r7, r2
    d902:	7812      	ldrb	r2, [r2, #0]
    d904:	701a      	strb	r2, [r3, #0]
    d906:	687b      	ldr	r3, [r7, #4]
    d908:	3303      	adds	r3, #3
    d90a:	781b      	ldrb	r3, [r3, #0]
    d90c:	001a      	movs	r2, r3
    d90e:	4b33      	ldr	r3, [pc, #204]	; (d9dc <aes_decr+0xed0>)
    d910:	5c99      	ldrb	r1, [r3, r2]
    d912:	230f      	movs	r3, #15
    d914:	18fb      	adds	r3, r7, r3
    d916:	781b      	ldrb	r3, [r3, #0]
    d918:	b25b      	sxtb	r3, r3
    d91a:	011b      	lsls	r3, r3, #4
    d91c:	330f      	adds	r3, #15
    d91e:	683a      	ldr	r2, [r7, #0]
    d920:	18d3      	adds	r3, r2, r3
    d922:	781a      	ldrb	r2, [r3, #0]
    d924:	230e      	movs	r3, #14
    d926:	18fb      	adds	r3, r7, r3
    d928:	404a      	eors	r2, r1
    d92a:	701a      	strb	r2, [r3, #0]
    d92c:	687b      	ldr	r3, [r7, #4]
    d92e:	3303      	adds	r3, #3
    d930:	687a      	ldr	r2, [r7, #4]
    d932:	3207      	adds	r2, #7
    d934:	7812      	ldrb	r2, [r2, #0]
    d936:	0011      	movs	r1, r2
    d938:	4a28      	ldr	r2, [pc, #160]	; (d9dc <aes_decr+0xed0>)
    d93a:	5c51      	ldrb	r1, [r2, r1]
    d93c:	220f      	movs	r2, #15
    d93e:	18ba      	adds	r2, r7, r2
    d940:	7812      	ldrb	r2, [r2, #0]
    d942:	b252      	sxtb	r2, r2
    d944:	0112      	lsls	r2, r2, #4
    d946:	3203      	adds	r2, #3
    d948:	6838      	ldr	r0, [r7, #0]
    d94a:	1882      	adds	r2, r0, r2
    d94c:	7812      	ldrb	r2, [r2, #0]
    d94e:	404a      	eors	r2, r1
    d950:	b2d2      	uxtb	r2, r2
    d952:	701a      	strb	r2, [r3, #0]
    d954:	687b      	ldr	r3, [r7, #4]
    d956:	3307      	adds	r3, #7
    d958:	687a      	ldr	r2, [r7, #4]
    d95a:	320b      	adds	r2, #11
    d95c:	7812      	ldrb	r2, [r2, #0]
    d95e:	0011      	movs	r1, r2
    d960:	4a1e      	ldr	r2, [pc, #120]	; (d9dc <aes_decr+0xed0>)
    d962:	5c51      	ldrb	r1, [r2, r1]
    d964:	220f      	movs	r2, #15
    d966:	18ba      	adds	r2, r7, r2
    d968:	7812      	ldrb	r2, [r2, #0]
    d96a:	b252      	sxtb	r2, r2
    d96c:	0112      	lsls	r2, r2, #4
    d96e:	3207      	adds	r2, #7
    d970:	6838      	ldr	r0, [r7, #0]
    d972:	1882      	adds	r2, r0, r2
    d974:	7812      	ldrb	r2, [r2, #0]
    d976:	404a      	eors	r2, r1
    d978:	b2d2      	uxtb	r2, r2
    d97a:	701a      	strb	r2, [r3, #0]
    d97c:	687b      	ldr	r3, [r7, #4]
    d97e:	330b      	adds	r3, #11
    d980:	687a      	ldr	r2, [r7, #4]
    d982:	320f      	adds	r2, #15
    d984:	7812      	ldrb	r2, [r2, #0]
    d986:	0011      	movs	r1, r2
    d988:	4a14      	ldr	r2, [pc, #80]	; (d9dc <aes_decr+0xed0>)
    d98a:	5c51      	ldrb	r1, [r2, r1]
    d98c:	220f      	movs	r2, #15
    d98e:	18ba      	adds	r2, r7, r2
    d990:	7812      	ldrb	r2, [r2, #0]
    d992:	b252      	sxtb	r2, r2
    d994:	0112      	lsls	r2, r2, #4
    d996:	320b      	adds	r2, #11
    d998:	6838      	ldr	r0, [r7, #0]
    d99a:	1882      	adds	r2, r0, r2
    d99c:	7812      	ldrb	r2, [r2, #0]
    d99e:	404a      	eors	r2, r1
    d9a0:	b2d2      	uxtb	r2, r2
    d9a2:	701a      	strb	r2, [r3, #0]
    d9a4:	687b      	ldr	r3, [r7, #4]
    d9a6:	330f      	adds	r3, #15
    d9a8:	220e      	movs	r2, #14
    d9aa:	18ba      	adds	r2, r7, r2
    d9ac:	7812      	ldrb	r2, [r2, #0]
    d9ae:	701a      	strb	r2, [r3, #0]
    d9b0:	230f      	movs	r3, #15
    d9b2:	18fb      	adds	r3, r7, r3
    d9b4:	781b      	ldrb	r3, [r3, #0]
    d9b6:	b25b      	sxtb	r3, r3
    d9b8:	b2db      	uxtb	r3, r3
    d9ba:	3b01      	subs	r3, #1
    d9bc:	b2da      	uxtb	r2, r3
    d9be:	230f      	movs	r3, #15
    d9c0:	18fb      	adds	r3, r7, r3
    d9c2:	701a      	strb	r2, [r3, #0]
    d9c4:	230f      	movs	r3, #15
    d9c6:	18fb      	adds	r3, r7, r3
    d9c8:	781b      	ldrb	r3, [r3, #0]
    d9ca:	2b7f      	cmp	r3, #127	; 0x7f
    d9cc:	d801      	bhi.n	d9d2 <aes_decr+0xec6>
    d9ce:	f7ff faaf 	bl	cf30 <aes_decr+0x424>
    d9d2:	46c0      	nop			; (mov r8, r8)
    d9d4:	46bd      	mov	sp, r7
    d9d6:	b005      	add	sp, #20
    d9d8:	bd90      	pop	{r4, r7, pc}
    d9da:	46c0      	nop			; (mov r8, r8)
    d9dc:	000123bc 	.word	0x000123bc

0000d9e0 <fnAES_Decrypt>:
    d9e0:	b580      	push	{r7, lr}
    d9e2:	b082      	sub	sp, #8
    d9e4:	af00      	add	r7, sp, #0
    d9e6:	6078      	str	r0, [r7, #4]
    d9e8:	6039      	str	r1, [r7, #0]
    d9ea:	683a      	ldr	r2, [r7, #0]
    d9ec:	4b07      	ldr	r3, [pc, #28]	; (da0c <fnAES_Decrypt+0x2c>)
    d9ee:	0011      	movs	r1, r2
    d9f0:	0018      	movs	r0, r3
    d9f2:	4b07      	ldr	r3, [pc, #28]	; (da10 <fnAES_Decrypt+0x30>)
    d9f4:	4798      	blx	r3
    d9f6:	4a05      	ldr	r2, [pc, #20]	; (da0c <fnAES_Decrypt+0x2c>)
    d9f8:	687b      	ldr	r3, [r7, #4]
    d9fa:	0011      	movs	r1, r2
    d9fc:	0018      	movs	r0, r3
    d9fe:	4b05      	ldr	r3, [pc, #20]	; (da14 <fnAES_Decrypt+0x34>)
    da00:	4798      	blx	r3
    da02:	46c0      	nop			; (mov r8, r8)
    da04:	46bd      	mov	sp, r7
    da06:	b002      	add	sp, #8
    da08:	bd80      	pop	{r7, pc}
    da0a:	46c0      	nop			; (mov r8, r8)
    da0c:	20000c94 	.word	0x20000c94
    da10:	0000c6c5 	.word	0x0000c6c5
    da14:	0000cb0d 	.word	0x0000cb0d

0000da18 <system_gclk_chan_get_config_defaults>:
    da18:	b580      	push	{r7, lr}
    da1a:	b082      	sub	sp, #8
    da1c:	af00      	add	r7, sp, #0
    da1e:	6078      	str	r0, [r7, #4]
    da20:	687b      	ldr	r3, [r7, #4]
    da22:	2200      	movs	r2, #0
    da24:	701a      	strb	r2, [r3, #0]
    da26:	46c0      	nop			; (mov r8, r8)
    da28:	46bd      	mov	sp, r7
    da2a:	b002      	add	sp, #8
    da2c:	bd80      	pop	{r7, pc}
	...

0000da30 <system_apb_clock_set_mask>:
    da30:	b580      	push	{r7, lr}
    da32:	b082      	sub	sp, #8
    da34:	af00      	add	r7, sp, #0
    da36:	0002      	movs	r2, r0
    da38:	6039      	str	r1, [r7, #0]
    da3a:	1dfb      	adds	r3, r7, #7
    da3c:	701a      	strb	r2, [r3, #0]
    da3e:	1dfb      	adds	r3, r7, #7
    da40:	781b      	ldrb	r3, [r3, #0]
    da42:	2b01      	cmp	r3, #1
    da44:	d00a      	beq.n	da5c <system_apb_clock_set_mask+0x2c>
    da46:	2b02      	cmp	r3, #2
    da48:	d00f      	beq.n	da6a <system_apb_clock_set_mask+0x3a>
    da4a:	2b00      	cmp	r3, #0
    da4c:	d114      	bne.n	da78 <system_apb_clock_set_mask+0x48>
    da4e:	4b0e      	ldr	r3, [pc, #56]	; (da88 <system_apb_clock_set_mask+0x58>)
    da50:	4a0d      	ldr	r2, [pc, #52]	; (da88 <system_apb_clock_set_mask+0x58>)
    da52:	6991      	ldr	r1, [r2, #24]
    da54:	683a      	ldr	r2, [r7, #0]
    da56:	430a      	orrs	r2, r1
    da58:	619a      	str	r2, [r3, #24]
    da5a:	e00f      	b.n	da7c <system_apb_clock_set_mask+0x4c>
    da5c:	4b0a      	ldr	r3, [pc, #40]	; (da88 <system_apb_clock_set_mask+0x58>)
    da5e:	4a0a      	ldr	r2, [pc, #40]	; (da88 <system_apb_clock_set_mask+0x58>)
    da60:	69d1      	ldr	r1, [r2, #28]
    da62:	683a      	ldr	r2, [r7, #0]
    da64:	430a      	orrs	r2, r1
    da66:	61da      	str	r2, [r3, #28]
    da68:	e008      	b.n	da7c <system_apb_clock_set_mask+0x4c>
    da6a:	4b07      	ldr	r3, [pc, #28]	; (da88 <system_apb_clock_set_mask+0x58>)
    da6c:	4a06      	ldr	r2, [pc, #24]	; (da88 <system_apb_clock_set_mask+0x58>)
    da6e:	6a11      	ldr	r1, [r2, #32]
    da70:	683a      	ldr	r2, [r7, #0]
    da72:	430a      	orrs	r2, r1
    da74:	621a      	str	r2, [r3, #32]
    da76:	e001      	b.n	da7c <system_apb_clock_set_mask+0x4c>
    da78:	2317      	movs	r3, #23
    da7a:	e000      	b.n	da7e <system_apb_clock_set_mask+0x4e>
    da7c:	2300      	movs	r3, #0
    da7e:	0018      	movs	r0, r3
    da80:	46bd      	mov	sp, r7
    da82:	b002      	add	sp, #8
    da84:	bd80      	pop	{r7, pc}
    da86:	46c0      	nop			; (mov r8, r8)
    da88:	40000400 	.word	0x40000400

0000da8c <system_pinmux_get_config_defaults>:
    da8c:	b580      	push	{r7, lr}
    da8e:	b082      	sub	sp, #8
    da90:	af00      	add	r7, sp, #0
    da92:	6078      	str	r0, [r7, #4]
    da94:	687b      	ldr	r3, [r7, #4]
    da96:	2280      	movs	r2, #128	; 0x80
    da98:	701a      	strb	r2, [r3, #0]
    da9a:	687b      	ldr	r3, [r7, #4]
    da9c:	2200      	movs	r2, #0
    da9e:	705a      	strb	r2, [r3, #1]
    daa0:	687b      	ldr	r3, [r7, #4]
    daa2:	2201      	movs	r2, #1
    daa4:	709a      	strb	r2, [r3, #2]
    daa6:	687b      	ldr	r3, [r7, #4]
    daa8:	2200      	movs	r2, #0
    daaa:	70da      	strb	r2, [r3, #3]
    daac:	46c0      	nop			; (mov r8, r8)
    daae:	46bd      	mov	sp, r7
    dab0:	b002      	add	sp, #8
    dab2:	bd80      	pop	{r7, pc}

0000dab4 <system_is_debugger_present>:
    dab4:	b580      	push	{r7, lr}
    dab6:	af00      	add	r7, sp, #0
    dab8:	4b05      	ldr	r3, [pc, #20]	; (dad0 <system_is_debugger_present+0x1c>)
    daba:	789b      	ldrb	r3, [r3, #2]
    dabc:	b2db      	uxtb	r3, r3
    dabe:	001a      	movs	r2, r3
    dac0:	2302      	movs	r3, #2
    dac2:	4013      	ands	r3, r2
    dac4:	1e5a      	subs	r2, r3, #1
    dac6:	4193      	sbcs	r3, r2
    dac8:	b2db      	uxtb	r3, r3
    daca:	0018      	movs	r0, r3
    dacc:	46bd      	mov	sp, r7
    dace:	bd80      	pop	{r7, pc}
    dad0:	41002000 	.word	0x41002000

0000dad4 <i2c_master_is_syncing>:
    dad4:	b580      	push	{r7, lr}
    dad6:	b084      	sub	sp, #16
    dad8:	af00      	add	r7, sp, #0
    dada:	6078      	str	r0, [r7, #4]
    dadc:	687b      	ldr	r3, [r7, #4]
    dade:	681b      	ldr	r3, [r3, #0]
    dae0:	60fb      	str	r3, [r7, #12]
    dae2:	68fb      	ldr	r3, [r7, #12]
    dae4:	69db      	ldr	r3, [r3, #28]
    dae6:	2207      	movs	r2, #7
    dae8:	4013      	ands	r3, r2
    daea:	1e5a      	subs	r2, r3, #1
    daec:	4193      	sbcs	r3, r2
    daee:	b2db      	uxtb	r3, r3
    daf0:	0018      	movs	r0, r3
    daf2:	46bd      	mov	sp, r7
    daf4:	b004      	add	sp, #16
    daf6:	bd80      	pop	{r7, pc}

0000daf8 <_i2c_master_wait_for_sync>:
    daf8:	b580      	push	{r7, lr}
    dafa:	b082      	sub	sp, #8
    dafc:	af00      	add	r7, sp, #0
    dafe:	6078      	str	r0, [r7, #4]
    db00:	46c0      	nop			; (mov r8, r8)
    db02:	687b      	ldr	r3, [r7, #4]
    db04:	0018      	movs	r0, r3
    db06:	4b04      	ldr	r3, [pc, #16]	; (db18 <_i2c_master_wait_for_sync+0x20>)
    db08:	4798      	blx	r3
    db0a:	1e03      	subs	r3, r0, #0
    db0c:	d1f9      	bne.n	db02 <_i2c_master_wait_for_sync+0xa>
    db0e:	46c0      	nop			; (mov r8, r8)
    db10:	46bd      	mov	sp, r7
    db12:	b002      	add	sp, #8
    db14:	bd80      	pop	{r7, pc}
    db16:	46c0      	nop			; (mov r8, r8)
    db18:	0000dad5 	.word	0x0000dad5

0000db1c <i2c_master_disable>:
    db1c:	b580      	push	{r7, lr}
    db1e:	b084      	sub	sp, #16
    db20:	af00      	add	r7, sp, #0
    db22:	6078      	str	r0, [r7, #4]
    db24:	687b      	ldr	r3, [r7, #4]
    db26:	681b      	ldr	r3, [r3, #0]
    db28:	60fb      	str	r3, [r7, #12]
    db2a:	687b      	ldr	r3, [r7, #4]
    db2c:	0018      	movs	r0, r3
    db2e:	4b09      	ldr	r3, [pc, #36]	; (db54 <i2c_master_disable+0x38>)
    db30:	4798      	blx	r3
    db32:	68fb      	ldr	r3, [r7, #12]
    db34:	2283      	movs	r2, #131	; 0x83
    db36:	751a      	strb	r2, [r3, #20]
    db38:	68fb      	ldr	r3, [r7, #12]
    db3a:	2283      	movs	r2, #131	; 0x83
    db3c:	761a      	strb	r2, [r3, #24]
    db3e:	68fb      	ldr	r3, [r7, #12]
    db40:	681b      	ldr	r3, [r3, #0]
    db42:	2202      	movs	r2, #2
    db44:	4393      	bics	r3, r2
    db46:	001a      	movs	r2, r3
    db48:	68fb      	ldr	r3, [r7, #12]
    db4a:	601a      	str	r2, [r3, #0]
    db4c:	46c0      	nop			; (mov r8, r8)
    db4e:	46bd      	mov	sp, r7
    db50:	b004      	add	sp, #16
    db52:	bd80      	pop	{r7, pc}
    db54:	0000daf9 	.word	0x0000daf9

0000db58 <_i2c_master_set_config>:
    db58:	b5f0      	push	{r4, r5, r6, r7, lr}
    db5a:	b097      	sub	sp, #92	; 0x5c
    db5c:	af00      	add	r7, sp, #0
    db5e:	6178      	str	r0, [r7, #20]
    db60:	6139      	str	r1, [r7, #16]
    db62:	2300      	movs	r3, #0
    db64:	63fb      	str	r3, [r7, #60]	; 0x3c
    db66:	2300      	movs	r3, #0
    db68:	653b      	str	r3, [r7, #80]	; 0x50
    db6a:	2300      	movs	r3, #0
    db6c:	64fb      	str	r3, [r7, #76]	; 0x4c
    db6e:	233b      	movs	r3, #59	; 0x3b
    db70:	2210      	movs	r2, #16
    db72:	4694      	mov	ip, r2
    db74:	44bc      	add	ip, r7
    db76:	4463      	add	r3, ip
    db78:	2200      	movs	r2, #0
    db7a:	701a      	strb	r2, [r3, #0]
    db7c:	697b      	ldr	r3, [r7, #20]
    db7e:	681b      	ldr	r3, [r3, #0]
    db80:	63bb      	str	r3, [r7, #56]	; 0x38
    db82:	697b      	ldr	r3, [r7, #20]
    db84:	681b      	ldr	r3, [r3, #0]
    db86:	637b      	str	r3, [r7, #52]	; 0x34
    db88:	2323      	movs	r3, #35	; 0x23
    db8a:	2210      	movs	r2, #16
    db8c:	18ba      	adds	r2, r7, r2
    db8e:	18d4      	adds	r4, r2, r3
    db90:	6b7b      	ldr	r3, [r7, #52]	; 0x34
    db92:	0018      	movs	r0, r3
    db94:	4bc7      	ldr	r3, [pc, #796]	; (deb4 <_i2c_master_set_config+0x35c>)
    db96:	4798      	blx	r3
    db98:	0003      	movs	r3, r0
    db9a:	7023      	strb	r3, [r4, #0]
    db9c:	230c      	movs	r3, #12
    db9e:	2210      	movs	r2, #16
    dba0:	4694      	mov	ip, r2
    dba2:	44bc      	add	ip, r7
    dba4:	4463      	add	r3, ip
    dba6:	0018      	movs	r0, r3
    dba8:	4bc3      	ldr	r3, [pc, #780]	; (deb8 <_i2c_master_set_config+0x360>)
    dbaa:	4798      	blx	r3
    dbac:	693b      	ldr	r3, [r7, #16]
    dbae:	69db      	ldr	r3, [r3, #28]
    dbb0:	647b      	str	r3, [r7, #68]	; 0x44
    dbb2:	693b      	ldr	r3, [r7, #16]
    dbb4:	6a1b      	ldr	r3, [r3, #32]
    dbb6:	643b      	str	r3, [r7, #64]	; 0x40
    dbb8:	6c7b      	ldr	r3, [r7, #68]	; 0x44
    dbba:	2b00      	cmp	r3, #0
    dbbc:	d106      	bne.n	dbcc <_i2c_master_set_config+0x74>
    dbbe:	6b7b      	ldr	r3, [r7, #52]	; 0x34
    dbc0:	2100      	movs	r1, #0
    dbc2:	0018      	movs	r0, r3
    dbc4:	4bbd      	ldr	r3, [pc, #756]	; (debc <_i2c_master_set_config+0x364>)
    dbc6:	4798      	blx	r3
    dbc8:	0003      	movs	r3, r0
    dbca:	647b      	str	r3, [r7, #68]	; 0x44
    dbcc:	6c7b      	ldr	r3, [r7, #68]	; 0x44
    dbce:	b2da      	uxtb	r2, r3
    dbd0:	230c      	movs	r3, #12
    dbd2:	2110      	movs	r1, #16
    dbd4:	468c      	mov	ip, r1
    dbd6:	44bc      	add	ip, r7
    dbd8:	4463      	add	r3, ip
    dbda:	701a      	strb	r2, [r3, #0]
    dbdc:	230c      	movs	r3, #12
    dbde:	2210      	movs	r2, #16
    dbe0:	4694      	mov	ip, r2
    dbe2:	44bc      	add	ip, r7
    dbe4:	4463      	add	r3, ip
    dbe6:	2202      	movs	r2, #2
    dbe8:	705a      	strb	r2, [r3, #1]
    dbea:	230c      	movs	r3, #12
    dbec:	2210      	movs	r2, #16
    dbee:	4694      	mov	ip, r2
    dbf0:	44bc      	add	ip, r7
    dbf2:	4463      	add	r3, ip
    dbf4:	2200      	movs	r2, #0
    dbf6:	70da      	strb	r2, [r3, #3]
    dbf8:	6c7b      	ldr	r3, [r7, #68]	; 0x44
    dbfa:	0c1b      	lsrs	r3, r3, #16
    dbfc:	b2db      	uxtb	r3, r3
    dbfe:	220c      	movs	r2, #12
    dc00:	2110      	movs	r1, #16
    dc02:	468c      	mov	ip, r1
    dc04:	44bc      	add	ip, r7
    dc06:	4462      	add	r2, ip
    dc08:	0011      	movs	r1, r2
    dc0a:	0018      	movs	r0, r3
    dc0c:	4bac      	ldr	r3, [pc, #688]	; (dec0 <_i2c_master_set_config+0x368>)
    dc0e:	4798      	blx	r3
    dc10:	6c3b      	ldr	r3, [r7, #64]	; 0x40
    dc12:	2b00      	cmp	r3, #0
    dc14:	d106      	bne.n	dc24 <_i2c_master_set_config+0xcc>
    dc16:	6b7b      	ldr	r3, [r7, #52]	; 0x34
    dc18:	2101      	movs	r1, #1
    dc1a:	0018      	movs	r0, r3
    dc1c:	4ba7      	ldr	r3, [pc, #668]	; (debc <_i2c_master_set_config+0x364>)
    dc1e:	4798      	blx	r3
    dc20:	0003      	movs	r3, r0
    dc22:	643b      	str	r3, [r7, #64]	; 0x40
    dc24:	6c3b      	ldr	r3, [r7, #64]	; 0x40
    dc26:	b2da      	uxtb	r2, r3
    dc28:	230c      	movs	r3, #12
    dc2a:	2110      	movs	r1, #16
    dc2c:	468c      	mov	ip, r1
    dc2e:	44bc      	add	ip, r7
    dc30:	4463      	add	r3, ip
    dc32:	701a      	strb	r2, [r3, #0]
    dc34:	230c      	movs	r3, #12
    dc36:	2210      	movs	r2, #16
    dc38:	4694      	mov	ip, r2
    dc3a:	44bc      	add	ip, r7
    dc3c:	4463      	add	r3, ip
    dc3e:	2202      	movs	r2, #2
    dc40:	705a      	strb	r2, [r3, #1]
    dc42:	230c      	movs	r3, #12
    dc44:	2210      	movs	r2, #16
    dc46:	4694      	mov	ip, r2
    dc48:	44bc      	add	ip, r7
    dc4a:	4463      	add	r3, ip
    dc4c:	2200      	movs	r2, #0
    dc4e:	70da      	strb	r2, [r3, #3]
    dc50:	6c3b      	ldr	r3, [r7, #64]	; 0x40
    dc52:	0c1b      	lsrs	r3, r3, #16
    dc54:	b2db      	uxtb	r3, r3
    dc56:	220c      	movs	r2, #12
    dc58:	2110      	movs	r1, #16
    dc5a:	468c      	mov	ip, r1
    dc5c:	44bc      	add	ip, r7
    dc5e:	4462      	add	r2, ip
    dc60:	0011      	movs	r1, r2
    dc62:	0018      	movs	r0, r3
    dc64:	4b96      	ldr	r3, [pc, #600]	; (dec0 <_i2c_master_set_config+0x368>)
    dc66:	4798      	blx	r3
    dc68:	693b      	ldr	r3, [r7, #16]
    dc6a:	8a9a      	ldrh	r2, [r3, #20]
    dc6c:	697b      	ldr	r3, [r7, #20]
    dc6e:	80da      	strh	r2, [r3, #6]
    dc70:	693b      	ldr	r3, [r7, #16]
    dc72:	8ada      	ldrh	r2, [r3, #22]
    dc74:	697b      	ldr	r3, [r7, #20]
    dc76:	811a      	strh	r2, [r3, #8]
    dc78:	693b      	ldr	r3, [r7, #16]
    dc7a:	7e1b      	ldrb	r3, [r3, #24]
    dc7c:	2b00      	cmp	r3, #0
    dc7e:	d103      	bne.n	dc88 <_i2c_master_set_config+0x130>
    dc80:	4b90      	ldr	r3, [pc, #576]	; (dec4 <_i2c_master_set_config+0x36c>)
    dc82:	4798      	blx	r3
    dc84:	1e03      	subs	r3, r0, #0
    dc86:	d002      	beq.n	dc8e <_i2c_master_set_config+0x136>
    dc88:	2380      	movs	r3, #128	; 0x80
    dc8a:	657b      	str	r3, [r7, #84]	; 0x54
    dc8c:	e001      	b.n	dc92 <_i2c_master_set_config+0x13a>
    dc8e:	2300      	movs	r3, #0
    dc90:	657b      	str	r3, [r7, #84]	; 0x54
    dc92:	693b      	ldr	r3, [r7, #16]
    dc94:	691b      	ldr	r3, [r3, #16]
    dc96:	2b00      	cmp	r3, #0
    dc98:	d004      	beq.n	dca4 <_i2c_master_set_config+0x14c>
    dc9a:	693b      	ldr	r3, [r7, #16]
    dc9c:	691b      	ldr	r3, [r3, #16]
    dc9e:	6d7a      	ldr	r2, [r7, #84]	; 0x54
    dca0:	4313      	orrs	r3, r2
    dca2:	657b      	str	r3, [r7, #84]	; 0x54
    dca4:	693b      	ldr	r3, [r7, #16]
    dca6:	689b      	ldr	r3, [r3, #8]
    dca8:	6d7a      	ldr	r2, [r7, #84]	; 0x54
    dcaa:	4313      	orrs	r3, r2
    dcac:	657b      	str	r3, [r7, #84]	; 0x54
    dcae:	693b      	ldr	r3, [r7, #16]
    dcb0:	2224      	movs	r2, #36	; 0x24
    dcb2:	5c9b      	ldrb	r3, [r3, r2]
    dcb4:	2b00      	cmp	r3, #0
    dcb6:	d004      	beq.n	dcc2 <_i2c_master_set_config+0x16a>
    dcb8:	6d7b      	ldr	r3, [r7, #84]	; 0x54
    dcba:	2280      	movs	r2, #128	; 0x80
    dcbc:	05d2      	lsls	r2, r2, #23
    dcbe:	4313      	orrs	r3, r2
    dcc0:	657b      	str	r3, [r7, #84]	; 0x54
    dcc2:	693b      	ldr	r3, [r7, #16]
    dcc4:	6a9b      	ldr	r3, [r3, #40]	; 0x28
    dcc6:	2b00      	cmp	r3, #0
    dcc8:	d004      	beq.n	dcd4 <_i2c_master_set_config+0x17c>
    dcca:	693b      	ldr	r3, [r7, #16]
    dccc:	6a9b      	ldr	r3, [r3, #40]	; 0x28
    dcce:	6d7a      	ldr	r2, [r7, #84]	; 0x54
    dcd0:	4313      	orrs	r3, r2
    dcd2:	657b      	str	r3, [r7, #84]	; 0x54
    dcd4:	693b      	ldr	r3, [r7, #16]
    dcd6:	222c      	movs	r2, #44	; 0x2c
    dcd8:	5c9b      	ldrb	r3, [r3, r2]
    dcda:	2b00      	cmp	r3, #0
    dcdc:	d105      	bne.n	dcea <_i2c_master_set_config+0x192>
    dcde:	693b      	ldr	r3, [r7, #16]
    dce0:	689a      	ldr	r2, [r3, #8]
    dce2:	2380      	movs	r3, #128	; 0x80
    dce4:	049b      	lsls	r3, r3, #18
    dce6:	429a      	cmp	r2, r3
    dce8:	d104      	bne.n	dcf4 <_i2c_master_set_config+0x19c>
    dcea:	6d7b      	ldr	r3, [r7, #84]	; 0x54
    dcec:	2280      	movs	r2, #128	; 0x80
    dcee:	0512      	lsls	r2, r2, #20
    dcf0:	4313      	orrs	r3, r2
    dcf2:	657b      	str	r3, [r7, #84]	; 0x54
    dcf4:	693b      	ldr	r3, [r7, #16]
    dcf6:	222d      	movs	r2, #45	; 0x2d
    dcf8:	5c9b      	ldrb	r3, [r3, r2]
    dcfa:	2b00      	cmp	r3, #0
    dcfc:	d004      	beq.n	dd08 <_i2c_master_set_config+0x1b0>
    dcfe:	6d7b      	ldr	r3, [r7, #84]	; 0x54
    dd00:	2280      	movs	r2, #128	; 0x80
    dd02:	0412      	lsls	r2, r2, #16
    dd04:	4313      	orrs	r3, r2
    dd06:	657b      	str	r3, [r7, #84]	; 0x54
    dd08:	693b      	ldr	r3, [r7, #16]
    dd0a:	222e      	movs	r2, #46	; 0x2e
    dd0c:	5c9b      	ldrb	r3, [r3, r2]
    dd0e:	2b00      	cmp	r3, #0
    dd10:	d004      	beq.n	dd1c <_i2c_master_set_config+0x1c4>
    dd12:	6d7b      	ldr	r3, [r7, #84]	; 0x54
    dd14:	2280      	movs	r2, #128	; 0x80
    dd16:	03d2      	lsls	r2, r2, #15
    dd18:	4313      	orrs	r3, r2
    dd1a:	657b      	str	r3, [r7, #84]	; 0x54
    dd1c:	6bbb      	ldr	r3, [r7, #56]	; 0x38
    dd1e:	681a      	ldr	r2, [r3, #0]
    dd20:	6d7b      	ldr	r3, [r7, #84]	; 0x54
    dd22:	431a      	orrs	r2, r3
    dd24:	6bbb      	ldr	r3, [r7, #56]	; 0x38
    dd26:	601a      	str	r2, [r3, #0]
    dd28:	6bbb      	ldr	r3, [r7, #56]	; 0x38
    dd2a:	2280      	movs	r2, #128	; 0x80
    dd2c:	0052      	lsls	r2, r2, #1
    dd2e:	605a      	str	r2, [r3, #4]
    dd30:	2323      	movs	r3, #35	; 0x23
    dd32:	2210      	movs	r2, #16
    dd34:	4694      	mov	ip, r2
    dd36:	44bc      	add	ip, r7
    dd38:	4463      	add	r3, ip
    dd3a:	781b      	ldrb	r3, [r3, #0]
    dd3c:	3314      	adds	r3, #20
    dd3e:	b2db      	uxtb	r3, r3
    dd40:	0018      	movs	r0, r3
    dd42:	4b61      	ldr	r3, [pc, #388]	; (dec8 <_i2c_master_set_config+0x370>)
    dd44:	4798      	blx	r3
    dd46:	0003      	movs	r3, r0
    dd48:	62fb      	str	r3, [r7, #44]	; 0x2c
    dd4a:	693b      	ldr	r3, [r7, #16]
    dd4c:	681b      	ldr	r3, [r3, #0]
    dd4e:	22fa      	movs	r2, #250	; 0xfa
    dd50:	0092      	lsls	r2, r2, #2
    dd52:	4353      	muls	r3, r2
    dd54:	62bb      	str	r3, [r7, #40]	; 0x28
    dd56:	693b      	ldr	r3, [r7, #16]
    dd58:	685b      	ldr	r3, [r3, #4]
    dd5a:	22fa      	movs	r2, #250	; 0xfa
    dd5c:	0092      	lsls	r2, r2, #2
    dd5e:	4353      	muls	r3, r2
    dd60:	627b      	str	r3, [r7, #36]	; 0x24
    dd62:	693b      	ldr	r3, [r7, #16]
    dd64:	8e1b      	ldrh	r3, [r3, #48]	; 0x30
    dd66:	623b      	str	r3, [r7, #32]
    dd68:	4b58      	ldr	r3, [pc, #352]	; (decc <_i2c_master_set_config+0x374>)
    dd6a:	6af8      	ldr	r0, [r7, #44]	; 0x2c
    dd6c:	4798      	blx	r3
    dd6e:	0005      	movs	r5, r0
    dd70:	000e      	movs	r6, r1
    dd72:	4b56      	ldr	r3, [pc, #344]	; (decc <_i2c_master_set_config+0x374>)
    dd74:	6ab8      	ldr	r0, [r7, #40]	; 0x28
    dd76:	4798      	blx	r3
    dd78:	60b8      	str	r0, [r7, #8]
    dd7a:	60f9      	str	r1, [r7, #12]
    dd7c:	4b53      	ldr	r3, [pc, #332]	; (decc <_i2c_master_set_config+0x374>)
    dd7e:	6af8      	ldr	r0, [r7, #44]	; 0x2c
    dd80:	4798      	blx	r3
    dd82:	4c53      	ldr	r4, [pc, #332]	; (ded0 <_i2c_master_set_config+0x378>)
    dd84:	4a53      	ldr	r2, [pc, #332]	; (ded4 <_i2c_master_set_config+0x37c>)
    dd86:	4b54      	ldr	r3, [pc, #336]	; (ded8 <_i2c_master_set_config+0x380>)
    dd88:	47a0      	blx	r4
    dd8a:	0003      	movs	r3, r0
    dd8c:	000c      	movs	r4, r1
    dd8e:	603b      	str	r3, [r7, #0]
    dd90:	607c      	str	r4, [r7, #4]
    dd92:	4b4e      	ldr	r3, [pc, #312]	; (decc <_i2c_master_set_config+0x374>)
    dd94:	6a38      	ldr	r0, [r7, #32]
    dd96:	4798      	blx	r3
    dd98:	0002      	movs	r2, r0
    dd9a:	000b      	movs	r3, r1
    dd9c:	4c4c      	ldr	r4, [pc, #304]	; (ded0 <_i2c_master_set_config+0x378>)
    dd9e:	6838      	ldr	r0, [r7, #0]
    dda0:	6879      	ldr	r1, [r7, #4]
    dda2:	47a0      	blx	r4
    dda4:	0003      	movs	r3, r0
    dda6:	000c      	movs	r4, r1
    dda8:	0018      	movs	r0, r3
    ddaa:	0021      	movs	r1, r4
    ddac:	4c4b      	ldr	r4, [pc, #300]	; (dedc <_i2c_master_set_config+0x384>)
    ddae:	2200      	movs	r2, #0
    ddb0:	4b4b      	ldr	r3, [pc, #300]	; (dee0 <_i2c_master_set_config+0x388>)
    ddb2:	47a0      	blx	r4
    ddb4:	0003      	movs	r3, r0
    ddb6:	000c      	movs	r4, r1
    ddb8:	001a      	movs	r2, r3
    ddba:	0023      	movs	r3, r4
    ddbc:	4c44      	ldr	r4, [pc, #272]	; (ded0 <_i2c_master_set_config+0x378>)
    ddbe:	68b8      	ldr	r0, [r7, #8]
    ddc0:	68f9      	ldr	r1, [r7, #12]
    ddc2:	47a0      	blx	r4
    ddc4:	0003      	movs	r3, r0
    ddc6:	000c      	movs	r4, r1
    ddc8:	001a      	movs	r2, r3
    ddca:	0023      	movs	r3, r4
    ddcc:	4c45      	ldr	r4, [pc, #276]	; (dee4 <_i2c_master_set_config+0x38c>)
    ddce:	0028      	movs	r0, r5
    ddd0:	0031      	movs	r1, r6
    ddd2:	47a0      	blx	r4
    ddd4:	0003      	movs	r3, r0
    ddd6:	000c      	movs	r4, r1
    ddd8:	001d      	movs	r5, r3
    ddda:	0026      	movs	r6, r4
    dddc:	6abb      	ldr	r3, [r7, #40]	; 0x28
    ddde:	005a      	lsls	r2, r3, #1
    dde0:	4b3a      	ldr	r3, [pc, #232]	; (decc <_i2c_master_set_config+0x374>)
    dde2:	0010      	movs	r0, r2
    dde4:	4798      	blx	r3
    dde6:	0002      	movs	r2, r0
    dde8:	000b      	movs	r3, r1
    ddea:	4c3c      	ldr	r4, [pc, #240]	; (dedc <_i2c_master_set_config+0x384>)
    ddec:	0028      	movs	r0, r5
    ddee:	0031      	movs	r1, r6
    ddf0:	47a0      	blx	r4
    ddf2:	0003      	movs	r3, r0
    ddf4:	000c      	movs	r4, r1
    ddf6:	0018      	movs	r0, r3
    ddf8:	0021      	movs	r1, r4
    ddfa:	4c3a      	ldr	r4, [pc, #232]	; (dee4 <_i2c_master_set_config+0x38c>)
    ddfc:	2200      	movs	r2, #0
    ddfe:	4b3a      	ldr	r3, [pc, #232]	; (dee8 <_i2c_master_set_config+0x390>)
    de00:	47a0      	blx	r4
    de02:	0003      	movs	r3, r0
    de04:	000c      	movs	r4, r1
    de06:	001d      	movs	r5, r3
    de08:	0026      	movs	r6, r4
    de0a:	6abb      	ldr	r3, [r7, #40]	; 0x28
    de0c:	005a      	lsls	r2, r3, #1
    de0e:	4b2f      	ldr	r3, [pc, #188]	; (decc <_i2c_master_set_config+0x374>)
    de10:	0010      	movs	r0, r2
    de12:	4798      	blx	r3
    de14:	0002      	movs	r2, r0
    de16:	000b      	movs	r3, r1
    de18:	4c34      	ldr	r4, [pc, #208]	; (deec <_i2c_master_set_config+0x394>)
    de1a:	0028      	movs	r0, r5
    de1c:	0031      	movs	r1, r6
    de1e:	47a0      	blx	r4
    de20:	0003      	movs	r3, r0
    de22:	000c      	movs	r4, r1
    de24:	0019      	movs	r1, r3
    de26:	0022      	movs	r2, r4
    de28:	4b31      	ldr	r3, [pc, #196]	; (def0 <_i2c_master_set_config+0x398>)
    de2a:	0008      	movs	r0, r1
    de2c:	0011      	movs	r1, r2
    de2e:	4798      	blx	r3
    de30:	0003      	movs	r3, r0
    de32:	63fb      	str	r3, [r7, #60]	; 0x3c
    de34:	693b      	ldr	r3, [r7, #16]
    de36:	689a      	ldr	r2, [r3, #8]
    de38:	2380      	movs	r3, #128	; 0x80
    de3a:	049b      	lsls	r3, r3, #18
    de3c:	429a      	cmp	r2, r3
    de3e:	d16a      	bne.n	df16 <_i2c_master_set_config+0x3be>
    de40:	4b22      	ldr	r3, [pc, #136]	; (decc <_i2c_master_set_config+0x374>)
    de42:	6af8      	ldr	r0, [r7, #44]	; 0x2c
    de44:	4798      	blx	r3
    de46:	4c25      	ldr	r4, [pc, #148]	; (dedc <_i2c_master_set_config+0x384>)
    de48:	0002      	movs	r2, r0
    de4a:	000b      	movs	r3, r1
    de4c:	47a0      	blx	r4
    de4e:	0003      	movs	r3, r0
    de50:	000c      	movs	r4, r1
    de52:	001d      	movs	r5, r3
    de54:	0026      	movs	r6, r4
    de56:	4b1d      	ldr	r3, [pc, #116]	; (decc <_i2c_master_set_config+0x374>)
    de58:	6a78      	ldr	r0, [r7, #36]	; 0x24
    de5a:	4798      	blx	r3
    de5c:	4c1c      	ldr	r4, [pc, #112]	; (ded0 <_i2c_master_set_config+0x378>)
    de5e:	2200      	movs	r2, #0
    de60:	4b24      	ldr	r3, [pc, #144]	; (def4 <_i2c_master_set_config+0x39c>)
    de62:	47a0      	blx	r4
    de64:	0003      	movs	r3, r0
    de66:	000c      	movs	r4, r1
    de68:	001a      	movs	r2, r3
    de6a:	0023      	movs	r3, r4
    de6c:	4c1f      	ldr	r4, [pc, #124]	; (deec <_i2c_master_set_config+0x394>)
    de6e:	0028      	movs	r0, r5
    de70:	0031      	movs	r1, r6
    de72:	47a0      	blx	r4
    de74:	0003      	movs	r3, r0
    de76:	000c      	movs	r4, r1
    de78:	0018      	movs	r0, r3
    de7a:	0021      	movs	r1, r4
    de7c:	4c19      	ldr	r4, [pc, #100]	; (dee4 <_i2c_master_set_config+0x38c>)
    de7e:	2200      	movs	r2, #0
    de80:	4b19      	ldr	r3, [pc, #100]	; (dee8 <_i2c_master_set_config+0x390>)
    de82:	47a0      	blx	r4
    de84:	0003      	movs	r3, r0
    de86:	000c      	movs	r4, r1
    de88:	0019      	movs	r1, r3
    de8a:	0022      	movs	r2, r4
    de8c:	4b18      	ldr	r3, [pc, #96]	; (def0 <_i2c_master_set_config+0x398>)
    de8e:	0008      	movs	r0, r1
    de90:	0011      	movs	r1, r2
    de92:	4798      	blx	r3
    de94:	0003      	movs	r3, r0
    de96:	64fb      	str	r3, [r7, #76]	; 0x4c
    de98:	6cfb      	ldr	r3, [r7, #76]	; 0x4c
    de9a:	2b00      	cmp	r3, #0
    de9c:	d02e      	beq.n	defc <_i2c_master_set_config+0x3a4>
    de9e:	4b16      	ldr	r3, [pc, #88]	; (def8 <_i2c_master_set_config+0x3a0>)
    dea0:	6a79      	ldr	r1, [r7, #36]	; 0x24
    dea2:	6af8      	ldr	r0, [r7, #44]	; 0x2c
    dea4:	4798      	blx	r3
    dea6:	0003      	movs	r3, r0
    dea8:	1e9a      	subs	r2, r3, #2
    deaa:	6cfb      	ldr	r3, [r7, #76]	; 0x4c
    deac:	1ad3      	subs	r3, r2, r3
    deae:	653b      	str	r3, [r7, #80]	; 0x50
    deb0:	e031      	b.n	df16 <_i2c_master_set_config+0x3be>
    deb2:	46c0      	nop			; (mov r8, r8)
    deb4:	00007ced 	.word	0x00007ced
    deb8:	0000da8d 	.word	0x0000da8d
    debc:	00007b31 	.word	0x00007b31
    dec0:	000093ad 	.word	0x000093ad
    dec4:	0000dab5 	.word	0x0000dab5
    dec8:	000091e5 	.word	0x000091e5
    decc:	00011a65 	.word	0x00011a65
    ded0:	00010ed1 	.word	0x00010ed1
    ded4:	e826d695 	.word	0xe826d695
    ded8:	3e112e0b 	.word	0x3e112e0b
    dedc:	00010249 	.word	0x00010249
    dee0:	40240000 	.word	0x40240000
    dee4:	000113d1 	.word	0x000113d1
    dee8:	3ff00000 	.word	0x3ff00000
    deec:	00010869 	.word	0x00010869
    def0:	000119fd 	.word	0x000119fd
    def4:	40080000 	.word	0x40080000
    def8:	0000fea1 	.word	0x0000fea1
    defc:	6a7b      	ldr	r3, [r7, #36]	; 0x24
    defe:	005a      	lsls	r2, r3, #1
    df00:	6afb      	ldr	r3, [r7, #44]	; 0x2c
    df02:	18d3      	adds	r3, r2, r3
    df04:	1e5a      	subs	r2, r3, #1
    df06:	6a7b      	ldr	r3, [r7, #36]	; 0x24
    df08:	0059      	lsls	r1, r3, #1
    df0a:	4b1d      	ldr	r3, [pc, #116]	; (df80 <_i2c_master_set_config+0x428>)
    df0c:	0010      	movs	r0, r2
    df0e:	4798      	blx	r3
    df10:	0003      	movs	r3, r0
    df12:	3b01      	subs	r3, #1
    df14:	653b      	str	r3, [r7, #80]	; 0x50
    df16:	6bfb      	ldr	r3, [r7, #60]	; 0x3c
    df18:	2bff      	cmp	r3, #255	; 0xff
    df1a:	dc08      	bgt.n	df2e <_i2c_master_set_config+0x3d6>
    df1c:	6bfb      	ldr	r3, [r7, #60]	; 0x3c
    df1e:	2b00      	cmp	r3, #0
    df20:	db05      	blt.n	df2e <_i2c_master_set_config+0x3d6>
    df22:	6d3b      	ldr	r3, [r7, #80]	; 0x50
    df24:	2bff      	cmp	r3, #255	; 0xff
    df26:	dc02      	bgt.n	df2e <_i2c_master_set_config+0x3d6>
    df28:	6d3b      	ldr	r3, [r7, #80]	; 0x50
    df2a:	2b00      	cmp	r3, #0
    df2c:	da06      	bge.n	df3c <_i2c_master_set_config+0x3e4>
    df2e:	233b      	movs	r3, #59	; 0x3b
    df30:	2210      	movs	r2, #16
    df32:	4694      	mov	ip, r2
    df34:	44bc      	add	ip, r7
    df36:	4463      	add	r3, ip
    df38:	2240      	movs	r2, #64	; 0x40
    df3a:	701a      	strb	r2, [r3, #0]
    df3c:	233b      	movs	r3, #59	; 0x3b
    df3e:	2210      	movs	r2, #16
    df40:	4694      	mov	ip, r2
    df42:	44bc      	add	ip, r7
    df44:	4463      	add	r3, ip
    df46:	781b      	ldrb	r3, [r3, #0]
    df48:	2b40      	cmp	r3, #64	; 0x40
    df4a:	d00e      	beq.n	df6a <_i2c_master_set_config+0x412>
    df4c:	6bfb      	ldr	r3, [r7, #60]	; 0x3c
    df4e:	22ff      	movs	r2, #255	; 0xff
    df50:	401a      	ands	r2, r3
    df52:	6d3b      	ldr	r3, [r7, #80]	; 0x50
    df54:	041b      	lsls	r3, r3, #16
    df56:	0019      	movs	r1, r3
    df58:	23ff      	movs	r3, #255	; 0xff
    df5a:	041b      	lsls	r3, r3, #16
    df5c:	400b      	ands	r3, r1
    df5e:	4313      	orrs	r3, r2
    df60:	6cfa      	ldr	r2, [r7, #76]	; 0x4c
    df62:	0612      	lsls	r2, r2, #24
    df64:	431a      	orrs	r2, r3
    df66:	6bbb      	ldr	r3, [r7, #56]	; 0x38
    df68:	60da      	str	r2, [r3, #12]
    df6a:	233b      	movs	r3, #59	; 0x3b
    df6c:	2210      	movs	r2, #16
    df6e:	4694      	mov	ip, r2
    df70:	44bc      	add	ip, r7
    df72:	4463      	add	r3, ip
    df74:	781b      	ldrb	r3, [r3, #0]
    df76:	0018      	movs	r0, r3
    df78:	46bd      	mov	sp, r7
    df7a:	b017      	add	sp, #92	; 0x5c
    df7c:	bdf0      	pop	{r4, r5, r6, r7, pc}
    df7e:	46c0      	nop			; (mov r8, r8)
    df80:	0000fea1 	.word	0x0000fea1

0000df84 <i2c_master_init>:
    df84:	b580      	push	{r7, lr}
    df86:	b08a      	sub	sp, #40	; 0x28
    df88:	af00      	add	r7, sp, #0
    df8a:	60f8      	str	r0, [r7, #12]
    df8c:	60b9      	str	r1, [r7, #8]
    df8e:	607a      	str	r2, [r7, #4]
    df90:	68fb      	ldr	r3, [r7, #12]
    df92:	68ba      	ldr	r2, [r7, #8]
    df94:	601a      	str	r2, [r3, #0]
    df96:	68fb      	ldr	r3, [r7, #12]
    df98:	681b      	ldr	r3, [r3, #0]
    df9a:	627b      	str	r3, [r7, #36]	; 0x24
    df9c:	68fb      	ldr	r3, [r7, #12]
    df9e:	681b      	ldr	r3, [r3, #0]
    dfa0:	0018      	movs	r0, r3
    dfa2:	4b25      	ldr	r3, [pc, #148]	; (e038 <i2c_master_init+0xb4>)
    dfa4:	4798      	blx	r3
    dfa6:	0003      	movs	r3, r0
    dfa8:	623b      	str	r3, [r7, #32]
    dfaa:	6a3b      	ldr	r3, [r7, #32]
    dfac:	3302      	adds	r3, #2
    dfae:	61fb      	str	r3, [r7, #28]
    dfb0:	6a3b      	ldr	r3, [r7, #32]
    dfb2:	3314      	adds	r3, #20
    dfb4:	61bb      	str	r3, [r7, #24]
    dfb6:	2201      	movs	r2, #1
    dfb8:	69fb      	ldr	r3, [r7, #28]
    dfba:	409a      	lsls	r2, r3
    dfbc:	0013      	movs	r3, r2
    dfbe:	0019      	movs	r1, r3
    dfc0:	2002      	movs	r0, #2
    dfc2:	4b1e      	ldr	r3, [pc, #120]	; (e03c <i2c_master_init+0xb8>)
    dfc4:	4798      	blx	r3
    dfc6:	2314      	movs	r3, #20
    dfc8:	18fb      	adds	r3, r7, r3
    dfca:	0018      	movs	r0, r3
    dfcc:	4b1c      	ldr	r3, [pc, #112]	; (e040 <i2c_master_init+0xbc>)
    dfce:	4798      	blx	r3
    dfd0:	687b      	ldr	r3, [r7, #4]
    dfd2:	7b1a      	ldrb	r2, [r3, #12]
    dfd4:	2314      	movs	r3, #20
    dfd6:	18fb      	adds	r3, r7, r3
    dfd8:	701a      	strb	r2, [r3, #0]
    dfda:	69bb      	ldr	r3, [r7, #24]
    dfdc:	b2db      	uxtb	r3, r3
    dfde:	2214      	movs	r2, #20
    dfe0:	18ba      	adds	r2, r7, r2
    dfe2:	0011      	movs	r1, r2
    dfe4:	0018      	movs	r0, r3
    dfe6:	4b17      	ldr	r3, [pc, #92]	; (e044 <i2c_master_init+0xc0>)
    dfe8:	4798      	blx	r3
    dfea:	69bb      	ldr	r3, [r7, #24]
    dfec:	b2db      	uxtb	r3, r3
    dfee:	0018      	movs	r0, r3
    dff0:	4b15      	ldr	r3, [pc, #84]	; (e048 <i2c_master_init+0xc4>)
    dff2:	4798      	blx	r3
    dff4:	687b      	ldr	r3, [r7, #4]
    dff6:	7b1b      	ldrb	r3, [r3, #12]
    dff8:	2100      	movs	r1, #0
    dffa:	0018      	movs	r0, r3
    dffc:	4b13      	ldr	r3, [pc, #76]	; (e04c <i2c_master_init+0xc8>)
    dffe:	4798      	blx	r3
    e000:	6a7b      	ldr	r3, [r7, #36]	; 0x24
    e002:	681b      	ldr	r3, [r3, #0]
    e004:	2202      	movs	r2, #2
    e006:	4013      	ands	r3, r2
    e008:	d001      	beq.n	e00e <i2c_master_init+0x8a>
    e00a:	231c      	movs	r3, #28
    e00c:	e010      	b.n	e030 <i2c_master_init+0xac>
    e00e:	6a7b      	ldr	r3, [r7, #36]	; 0x24
    e010:	681b      	ldr	r3, [r3, #0]
    e012:	2201      	movs	r2, #1
    e014:	4013      	ands	r3, r2
    e016:	d001      	beq.n	e01c <i2c_master_init+0x98>
    e018:	2305      	movs	r3, #5
    e01a:	e009      	b.n	e030 <i2c_master_init+0xac>
    e01c:	6a7b      	ldr	r3, [r7, #36]	; 0x24
    e01e:	2214      	movs	r2, #20
    e020:	601a      	str	r2, [r3, #0]
    e022:	687a      	ldr	r2, [r7, #4]
    e024:	68fb      	ldr	r3, [r7, #12]
    e026:	0011      	movs	r1, r2
    e028:	0018      	movs	r0, r3
    e02a:	4b09      	ldr	r3, [pc, #36]	; (e050 <i2c_master_init+0xcc>)
    e02c:	4798      	blx	r3
    e02e:	0003      	movs	r3, r0
    e030:	0018      	movs	r0, r3
    e032:	46bd      	mov	sp, r7
    e034:	b00a      	add	sp, #40	; 0x28
    e036:	bd80      	pop	{r7, pc}
    e038:	00007ced 	.word	0x00007ced
    e03c:	0000da31 	.word	0x0000da31
    e040:	0000da19 	.word	0x0000da19
    e044:	00009079 	.word	0x00009079
    e048:	000090bd 	.word	0x000090bd
    e04c:	00007aa5 	.word	0x00007aa5
    e050:	0000db59 	.word	0x0000db59

0000e054 <i2c_master_reset>:
    e054:	b580      	push	{r7, lr}
    e056:	b084      	sub	sp, #16
    e058:	af00      	add	r7, sp, #0
    e05a:	6078      	str	r0, [r7, #4]
    e05c:	687b      	ldr	r3, [r7, #4]
    e05e:	681b      	ldr	r3, [r3, #0]
    e060:	60fb      	str	r3, [r7, #12]
    e062:	687b      	ldr	r3, [r7, #4]
    e064:	0018      	movs	r0, r3
    e066:	4b08      	ldr	r3, [pc, #32]	; (e088 <i2c_master_reset+0x34>)
    e068:	4798      	blx	r3
    e06a:	687b      	ldr	r3, [r7, #4]
    e06c:	0018      	movs	r0, r3
    e06e:	4b07      	ldr	r3, [pc, #28]	; (e08c <i2c_master_reset+0x38>)
    e070:	4798      	blx	r3
    e072:	687b      	ldr	r3, [r7, #4]
    e074:	0018      	movs	r0, r3
    e076:	4b04      	ldr	r3, [pc, #16]	; (e088 <i2c_master_reset+0x34>)
    e078:	4798      	blx	r3
    e07a:	68fb      	ldr	r3, [r7, #12]
    e07c:	2201      	movs	r2, #1
    e07e:	601a      	str	r2, [r3, #0]
    e080:	46c0      	nop			; (mov r8, r8)
    e082:	46bd      	mov	sp, r7
    e084:	b004      	add	sp, #16
    e086:	bd80      	pop	{r7, pc}
    e088:	0000daf9 	.word	0x0000daf9
    e08c:	0000db1d 	.word	0x0000db1d

0000e090 <_i2c_master_address_response>:
    e090:	b580      	push	{r7, lr}
    e092:	b084      	sub	sp, #16
    e094:	af00      	add	r7, sp, #0
    e096:	6078      	str	r0, [r7, #4]
    e098:	687b      	ldr	r3, [r7, #4]
    e09a:	681b      	ldr	r3, [r3, #0]
    e09c:	60fb      	str	r3, [r7, #12]
    e09e:	68fb      	ldr	r3, [r7, #12]
    e0a0:	7e1b      	ldrb	r3, [r3, #24]
    e0a2:	b2db      	uxtb	r3, r3
    e0a4:	001a      	movs	r2, r3
    e0a6:	2302      	movs	r3, #2
    e0a8:	4013      	ands	r3, r2
    e0aa:	d00b      	beq.n	e0c4 <_i2c_master_address_response+0x34>
    e0ac:	68fb      	ldr	r3, [r7, #12]
    e0ae:	2202      	movs	r2, #2
    e0b0:	761a      	strb	r2, [r3, #24]
    e0b2:	68fb      	ldr	r3, [r7, #12]
    e0b4:	8b5b      	ldrh	r3, [r3, #26]
    e0b6:	b29b      	uxth	r3, r3
    e0b8:	001a      	movs	r2, r3
    e0ba:	2302      	movs	r3, #2
    e0bc:	4013      	ands	r3, r2
    e0be:	d011      	beq.n	e0e4 <_i2c_master_address_response+0x54>
    e0c0:	2341      	movs	r3, #65	; 0x41
    e0c2:	e010      	b.n	e0e6 <_i2c_master_address_response+0x56>
    e0c4:	68fb      	ldr	r3, [r7, #12]
    e0c6:	8b5b      	ldrh	r3, [r3, #26]
    e0c8:	b29b      	uxth	r3, r3
    e0ca:	001a      	movs	r2, r3
    e0cc:	2304      	movs	r3, #4
    e0ce:	4013      	ands	r3, r2
    e0d0:	d008      	beq.n	e0e4 <_i2c_master_address_response+0x54>
    e0d2:	68fb      	ldr	r3, [r7, #12]
    e0d4:	685b      	ldr	r3, [r3, #4]
    e0d6:	22c0      	movs	r2, #192	; 0xc0
    e0d8:	0292      	lsls	r2, r2, #10
    e0da:	431a      	orrs	r2, r3
    e0dc:	68fb      	ldr	r3, [r7, #12]
    e0de:	605a      	str	r2, [r3, #4]
    e0e0:	2318      	movs	r3, #24
    e0e2:	e000      	b.n	e0e6 <_i2c_master_address_response+0x56>
    e0e4:	2300      	movs	r3, #0
    e0e6:	0018      	movs	r0, r3
    e0e8:	46bd      	mov	sp, r7
    e0ea:	b004      	add	sp, #16
    e0ec:	bd80      	pop	{r7, pc}

0000e0ee <_i2c_master_wait_for_bus>:
    e0ee:	b580      	push	{r7, lr}
    e0f0:	b084      	sub	sp, #16
    e0f2:	af00      	add	r7, sp, #0
    e0f4:	6078      	str	r0, [r7, #4]
    e0f6:	687b      	ldr	r3, [r7, #4]
    e0f8:	681b      	ldr	r3, [r3, #0]
    e0fa:	60bb      	str	r3, [r7, #8]
    e0fc:	230e      	movs	r3, #14
    e0fe:	18fb      	adds	r3, r7, r3
    e100:	2200      	movs	r2, #0
    e102:	801a      	strh	r2, [r3, #0]
    e104:	e00f      	b.n	e126 <_i2c_master_wait_for_bus+0x38>
    e106:	230e      	movs	r3, #14
    e108:	18fb      	adds	r3, r7, r3
    e10a:	220e      	movs	r2, #14
    e10c:	18ba      	adds	r2, r7, r2
    e10e:	8812      	ldrh	r2, [r2, #0]
    e110:	3201      	adds	r2, #1
    e112:	801a      	strh	r2, [r3, #0]
    e114:	687b      	ldr	r3, [r7, #4]
    e116:	891b      	ldrh	r3, [r3, #8]
    e118:	220e      	movs	r2, #14
    e11a:	18ba      	adds	r2, r7, r2
    e11c:	8812      	ldrh	r2, [r2, #0]
    e11e:	429a      	cmp	r2, r3
    e120:	d301      	bcc.n	e126 <_i2c_master_wait_for_bus+0x38>
    e122:	2312      	movs	r3, #18
    e124:	e00e      	b.n	e144 <_i2c_master_wait_for_bus+0x56>
    e126:	68bb      	ldr	r3, [r7, #8]
    e128:	7e1b      	ldrb	r3, [r3, #24]
    e12a:	b2db      	uxtb	r3, r3
    e12c:	001a      	movs	r2, r3
    e12e:	2301      	movs	r3, #1
    e130:	4013      	ands	r3, r2
    e132:	d106      	bne.n	e142 <_i2c_master_wait_for_bus+0x54>
    e134:	68bb      	ldr	r3, [r7, #8]
    e136:	7e1b      	ldrb	r3, [r3, #24]
    e138:	b2db      	uxtb	r3, r3
    e13a:	001a      	movs	r2, r3
    e13c:	2302      	movs	r3, #2
    e13e:	4013      	ands	r3, r2
    e140:	d0e1      	beq.n	e106 <_i2c_master_wait_for_bus+0x18>
    e142:	2300      	movs	r3, #0
    e144:	0018      	movs	r0, r3
    e146:	46bd      	mov	sp, r7
    e148:	b004      	add	sp, #16
    e14a:	bd80      	pop	{r7, pc}

0000e14c <_i2c_master_send_hs_master_code>:
    e14c:	b590      	push	{r4, r7, lr}
    e14e:	b085      	sub	sp, #20
    e150:	af00      	add	r7, sp, #0
    e152:	6078      	str	r0, [r7, #4]
    e154:	000a      	movs	r2, r1
    e156:	1cfb      	adds	r3, r7, #3
    e158:	701a      	strb	r2, [r3, #0]
    e15a:	687b      	ldr	r3, [r7, #4]
    e15c:	681b      	ldr	r3, [r3, #0]
    e15e:	60fb      	str	r3, [r7, #12]
    e160:	68fb      	ldr	r3, [r7, #12]
    e162:	685b      	ldr	r3, [r3, #4]
    e164:	2280      	movs	r2, #128	; 0x80
    e166:	02d2      	lsls	r2, r2, #11
    e168:	431a      	orrs	r2, r3
    e16a:	68fb      	ldr	r3, [r7, #12]
    e16c:	605a      	str	r2, [r3, #4]
    e16e:	1cfb      	adds	r3, r7, #3
    e170:	781a      	ldrb	r2, [r3, #0]
    e172:	68fb      	ldr	r3, [r7, #12]
    e174:	625a      	str	r2, [r3, #36]	; 0x24
    e176:	230b      	movs	r3, #11
    e178:	18fc      	adds	r4, r7, r3
    e17a:	687b      	ldr	r3, [r7, #4]
    e17c:	0018      	movs	r0, r3
    e17e:	4b07      	ldr	r3, [pc, #28]	; (e19c <_i2c_master_send_hs_master_code+0x50>)
    e180:	4798      	blx	r3
    e182:	0003      	movs	r3, r0
    e184:	7023      	strb	r3, [r4, #0]
    e186:	68fb      	ldr	r3, [r7, #12]
    e188:	2201      	movs	r2, #1
    e18a:	761a      	strb	r2, [r3, #24]
    e18c:	230b      	movs	r3, #11
    e18e:	18fb      	adds	r3, r7, r3
    e190:	781b      	ldrb	r3, [r3, #0]
    e192:	0018      	movs	r0, r3
    e194:	46bd      	mov	sp, r7
    e196:	b005      	add	sp, #20
    e198:	bd90      	pop	{r4, r7, pc}
    e19a:	46c0      	nop			; (mov r8, r8)
    e19c:	0000e0ef 	.word	0x0000e0ef

0000e1a0 <_i2c_master_read_packet>:
    e1a0:	b590      	push	{r4, r7, lr}
    e1a2:	b087      	sub	sp, #28
    e1a4:	af00      	add	r7, sp, #0
    e1a6:	6078      	str	r0, [r7, #4]
    e1a8:	6039      	str	r1, [r7, #0]
    e1aa:	687b      	ldr	r3, [r7, #4]
    e1ac:	681b      	ldr	r3, [r3, #0]
    e1ae:	60fb      	str	r3, [r7, #12]
    e1b0:	2314      	movs	r3, #20
    e1b2:	18fb      	adds	r3, r7, r3
    e1b4:	683a      	ldr	r2, [r7, #0]
    e1b6:	8852      	ldrh	r2, [r2, #2]
    e1b8:	801a      	strh	r2, [r3, #0]
    e1ba:	2312      	movs	r3, #18
    e1bc:	18fb      	adds	r3, r7, r3
    e1be:	2200      	movs	r2, #0
    e1c0:	801a      	strh	r2, [r3, #0]
    e1c2:	68fb      	ldr	r3, [r7, #12]
    e1c4:	681b      	ldr	r3, [r3, #0]
    e1c6:	011b      	lsls	r3, r3, #4
    e1c8:	0fdb      	lsrs	r3, r3, #31
    e1ca:	b2db      	uxtb	r3, r3
    e1cc:	001a      	movs	r2, r3
    e1ce:	230b      	movs	r3, #11
    e1d0:	18fb      	adds	r3, r7, r3
    e1d2:	1e51      	subs	r1, r2, #1
    e1d4:	418a      	sbcs	r2, r1
    e1d6:	701a      	strb	r2, [r3, #0]
    e1d8:	683b      	ldr	r3, [r7, #0]
    e1da:	7a5b      	ldrb	r3, [r3, #9]
    e1dc:	2b00      	cmp	r3, #0
    e1de:	d006      	beq.n	e1ee <_i2c_master_read_packet+0x4e>
    e1e0:	683b      	ldr	r3, [r7, #0]
    e1e2:	7a9a      	ldrb	r2, [r3, #10]
    e1e4:	687b      	ldr	r3, [r7, #4]
    e1e6:	0011      	movs	r1, r2
    e1e8:	0018      	movs	r0, r3
    e1ea:	4b85      	ldr	r3, [pc, #532]	; (e400 <_i2c_master_read_packet+0x260>)
    e1ec:	4798      	blx	r3
    e1ee:	68fb      	ldr	r3, [r7, #12]
    e1f0:	685b      	ldr	r3, [r3, #4]
    e1f2:	4a84      	ldr	r2, [pc, #528]	; (e404 <_i2c_master_read_packet+0x264>)
    e1f4:	401a      	ands	r2, r3
    e1f6:	68fb      	ldr	r3, [r7, #12]
    e1f8:	605a      	str	r2, [r3, #4]
    e1fa:	683b      	ldr	r3, [r7, #0]
    e1fc:	7a1b      	ldrb	r3, [r3, #8]
    e1fe:	2b00      	cmp	r3, #0
    e200:	d042      	beq.n	e288 <_i2c_master_read_packet+0xe8>
    e202:	683b      	ldr	r3, [r7, #0]
    e204:	881b      	ldrh	r3, [r3, #0]
    e206:	005a      	lsls	r2, r3, #1
    e208:	683b      	ldr	r3, [r7, #0]
    e20a:	7a5b      	ldrb	r3, [r3, #9]
    e20c:	039b      	lsls	r3, r3, #14
    e20e:	4313      	orrs	r3, r2
    e210:	001a      	movs	r2, r3
    e212:	2380      	movs	r3, #128	; 0x80
    e214:	021b      	lsls	r3, r3, #8
    e216:	431a      	orrs	r2, r3
    e218:	68fb      	ldr	r3, [r7, #12]
    e21a:	625a      	str	r2, [r3, #36]	; 0x24
    e21c:	2317      	movs	r3, #23
    e21e:	18fc      	adds	r4, r7, r3
    e220:	687b      	ldr	r3, [r7, #4]
    e222:	0018      	movs	r0, r3
    e224:	4b78      	ldr	r3, [pc, #480]	; (e408 <_i2c_master_read_packet+0x268>)
    e226:	4798      	blx	r3
    e228:	0003      	movs	r3, r0
    e22a:	7023      	strb	r3, [r4, #0]
    e22c:	68fb      	ldr	r3, [r7, #12]
    e22e:	685b      	ldr	r3, [r3, #4]
    e230:	4a74      	ldr	r2, [pc, #464]	; (e404 <_i2c_master_read_packet+0x264>)
    e232:	401a      	ands	r2, r3
    e234:	68fb      	ldr	r3, [r7, #12]
    e236:	605a      	str	r2, [r3, #4]
    e238:	2317      	movs	r3, #23
    e23a:	18fb      	adds	r3, r7, r3
    e23c:	781b      	ldrb	r3, [r3, #0]
    e23e:	2b00      	cmp	r3, #0
    e240:	d107      	bne.n	e252 <_i2c_master_read_packet+0xb2>
    e242:	2317      	movs	r3, #23
    e244:	18fc      	adds	r4, r7, r3
    e246:	687b      	ldr	r3, [r7, #4]
    e248:	0018      	movs	r0, r3
    e24a:	4b70      	ldr	r3, [pc, #448]	; (e40c <_i2c_master_read_packet+0x26c>)
    e24c:	4798      	blx	r3
    e24e:	0003      	movs	r3, r0
    e250:	7023      	strb	r3, [r4, #0]
    e252:	2317      	movs	r3, #23
    e254:	18fb      	adds	r3, r7, r3
    e256:	781b      	ldrb	r3, [r3, #0]
    e258:	2b00      	cmp	r3, #0
    e25a:	d111      	bne.n	e280 <_i2c_master_read_packet+0xe0>
    e25c:	683b      	ldr	r3, [r7, #0]
    e25e:	881b      	ldrh	r3, [r3, #0]
    e260:	0a1b      	lsrs	r3, r3, #8
    e262:	b29b      	uxth	r3, r3
    e264:	2278      	movs	r2, #120	; 0x78
    e266:	4313      	orrs	r3, r2
    e268:	b29b      	uxth	r3, r3
    e26a:	005a      	lsls	r2, r3, #1
    e26c:	683b      	ldr	r3, [r7, #0]
    e26e:	7a5b      	ldrb	r3, [r3, #9]
    e270:	039b      	lsls	r3, r3, #14
    e272:	4313      	orrs	r3, r2
    e274:	2201      	movs	r2, #1
    e276:	4313      	orrs	r3, r2
    e278:	001a      	movs	r2, r3
    e27a:	68fb      	ldr	r3, [r7, #12]
    e27c:	625a      	str	r2, [r3, #36]	; 0x24
    e27e:	e00f      	b.n	e2a0 <_i2c_master_read_packet+0x100>
    e280:	2317      	movs	r3, #23
    e282:	18fb      	adds	r3, r7, r3
    e284:	781b      	ldrb	r3, [r3, #0]
    e286:	e0b6      	b.n	e3f6 <_i2c_master_read_packet+0x256>
    e288:	683b      	ldr	r3, [r7, #0]
    e28a:	881b      	ldrh	r3, [r3, #0]
    e28c:	005b      	lsls	r3, r3, #1
    e28e:	2201      	movs	r2, #1
    e290:	431a      	orrs	r2, r3
    e292:	683b      	ldr	r3, [r7, #0]
    e294:	7a5b      	ldrb	r3, [r3, #9]
    e296:	039b      	lsls	r3, r3, #14
    e298:	4313      	orrs	r3, r2
    e29a:	001a      	movs	r2, r3
    e29c:	68fb      	ldr	r3, [r7, #12]
    e29e:	625a      	str	r2, [r3, #36]	; 0x24
    e2a0:	2317      	movs	r3, #23
    e2a2:	18fc      	adds	r4, r7, r3
    e2a4:	687b      	ldr	r3, [r7, #4]
    e2a6:	0018      	movs	r0, r3
    e2a8:	4b57      	ldr	r3, [pc, #348]	; (e408 <_i2c_master_read_packet+0x268>)
    e2aa:	4798      	blx	r3
    e2ac:	0003      	movs	r3, r0
    e2ae:	7023      	strb	r3, [r4, #0]
    e2b0:	230b      	movs	r3, #11
    e2b2:	18fb      	adds	r3, r7, r3
    e2b4:	781b      	ldrb	r3, [r3, #0]
    e2b6:	2b00      	cmp	r3, #0
    e2b8:	d00b      	beq.n	e2d2 <_i2c_master_read_packet+0x132>
    e2ba:	683b      	ldr	r3, [r7, #0]
    e2bc:	885b      	ldrh	r3, [r3, #2]
    e2be:	2b01      	cmp	r3, #1
    e2c0:	d107      	bne.n	e2d2 <_i2c_master_read_packet+0x132>
    e2c2:	68fb      	ldr	r3, [r7, #12]
    e2c4:	685b      	ldr	r3, [r3, #4]
    e2c6:	2280      	movs	r2, #128	; 0x80
    e2c8:	02d2      	lsls	r2, r2, #11
    e2ca:	431a      	orrs	r2, r3
    e2cc:	68fb      	ldr	r3, [r7, #12]
    e2ce:	605a      	str	r2, [r3, #4]
    e2d0:	e005      	b.n	e2de <_i2c_master_read_packet+0x13e>
    e2d2:	68fb      	ldr	r3, [r7, #12]
    e2d4:	685b      	ldr	r3, [r3, #4]
    e2d6:	4a4b      	ldr	r2, [pc, #300]	; (e404 <_i2c_master_read_packet+0x264>)
    e2d8:	401a      	ands	r2, r3
    e2da:	68fb      	ldr	r3, [r7, #12]
    e2dc:	605a      	str	r2, [r3, #4]
    e2de:	2317      	movs	r3, #23
    e2e0:	18fb      	adds	r3, r7, r3
    e2e2:	781b      	ldrb	r3, [r3, #0]
    e2e4:	2b00      	cmp	r3, #0
    e2e6:	d107      	bne.n	e2f8 <_i2c_master_read_packet+0x158>
    e2e8:	2317      	movs	r3, #23
    e2ea:	18fc      	adds	r4, r7, r3
    e2ec:	687b      	ldr	r3, [r7, #4]
    e2ee:	0018      	movs	r0, r3
    e2f0:	4b46      	ldr	r3, [pc, #280]	; (e40c <_i2c_master_read_packet+0x26c>)
    e2f2:	4798      	blx	r3
    e2f4:	0003      	movs	r3, r0
    e2f6:	7023      	strb	r3, [r4, #0]
    e2f8:	2317      	movs	r3, #23
    e2fa:	18fb      	adds	r3, r7, r3
    e2fc:	781b      	ldrb	r3, [r3, #0]
    e2fe:	2b00      	cmp	r3, #0
    e300:	d000      	beq.n	e304 <_i2c_master_read_packet+0x164>
    e302:	e075      	b.n	e3f0 <_i2c_master_read_packet+0x250>
    e304:	e04b      	b.n	e39e <_i2c_master_read_packet+0x1fe>
    e306:	68fb      	ldr	r3, [r7, #12]
    e308:	8b5b      	ldrh	r3, [r3, #26]
    e30a:	b29b      	uxth	r3, r3
    e30c:	001a      	movs	r2, r3
    e30e:	2320      	movs	r3, #32
    e310:	4013      	ands	r3, r2
    e312:	d101      	bne.n	e318 <_i2c_master_read_packet+0x178>
    e314:	2341      	movs	r3, #65	; 0x41
    e316:	e06e      	b.n	e3f6 <_i2c_master_read_packet+0x256>
    e318:	687b      	ldr	r3, [r7, #4]
    e31a:	7adb      	ldrb	r3, [r3, #11]
    e31c:	2b00      	cmp	r3, #0
    e31e:	d01e      	beq.n	e35e <_i2c_master_read_packet+0x1be>
    e320:	230b      	movs	r3, #11
    e322:	18fb      	adds	r3, r7, r3
    e324:	781b      	ldrb	r3, [r3, #0]
    e326:	2201      	movs	r2, #1
    e328:	4053      	eors	r3, r2
    e32a:	b2db      	uxtb	r3, r3
    e32c:	2b00      	cmp	r3, #0
    e32e:	d004      	beq.n	e33a <_i2c_master_read_packet+0x19a>
    e330:	2314      	movs	r3, #20
    e332:	18fb      	adds	r3, r7, r3
    e334:	881b      	ldrh	r3, [r3, #0]
    e336:	2b00      	cmp	r3, #0
    e338:	d009      	beq.n	e34e <_i2c_master_read_packet+0x1ae>
    e33a:	230b      	movs	r3, #11
    e33c:	18fb      	adds	r3, r7, r3
    e33e:	781b      	ldrb	r3, [r3, #0]
    e340:	2b00      	cmp	r3, #0
    e342:	d00c      	beq.n	e35e <_i2c_master_read_packet+0x1be>
    e344:	2314      	movs	r3, #20
    e346:	18fb      	adds	r3, r7, r3
    e348:	881b      	ldrh	r3, [r3, #0]
    e34a:	2b01      	cmp	r3, #1
    e34c:	d107      	bne.n	e35e <_i2c_master_read_packet+0x1be>
    e34e:	68fb      	ldr	r3, [r7, #12]
    e350:	685b      	ldr	r3, [r3, #4]
    e352:	2280      	movs	r2, #128	; 0x80
    e354:	02d2      	lsls	r2, r2, #11
    e356:	431a      	orrs	r2, r3
    e358:	68fb      	ldr	r3, [r7, #12]
    e35a:	605a      	str	r2, [r3, #4]
    e35c:	e01a      	b.n	e394 <_i2c_master_read_packet+0x1f4>
    e35e:	687b      	ldr	r3, [r7, #4]
    e360:	0018      	movs	r0, r3
    e362:	4b2b      	ldr	r3, [pc, #172]	; (e410 <_i2c_master_read_packet+0x270>)
    e364:	4798      	blx	r3
    e366:	683b      	ldr	r3, [r7, #0]
    e368:	685a      	ldr	r2, [r3, #4]
    e36a:	2312      	movs	r3, #18
    e36c:	18fb      	adds	r3, r7, r3
    e36e:	881b      	ldrh	r3, [r3, #0]
    e370:	2112      	movs	r1, #18
    e372:	1879      	adds	r1, r7, r1
    e374:	1c58      	adds	r0, r3, #1
    e376:	8008      	strh	r0, [r1, #0]
    e378:	18d3      	adds	r3, r2, r3
    e37a:	68fa      	ldr	r2, [r7, #12]
    e37c:	2128      	movs	r1, #40	; 0x28
    e37e:	5c52      	ldrb	r2, [r2, r1]
    e380:	b2d2      	uxtb	r2, r2
    e382:	701a      	strb	r2, [r3, #0]
    e384:	2317      	movs	r3, #23
    e386:	18fc      	adds	r4, r7, r3
    e388:	687b      	ldr	r3, [r7, #4]
    e38a:	0018      	movs	r0, r3
    e38c:	4b1e      	ldr	r3, [pc, #120]	; (e408 <_i2c_master_read_packet+0x268>)
    e38e:	4798      	blx	r3
    e390:	0003      	movs	r3, r0
    e392:	7023      	strb	r3, [r4, #0]
    e394:	2317      	movs	r3, #23
    e396:	18fb      	adds	r3, r7, r3
    e398:	781b      	ldrb	r3, [r3, #0]
    e39a:	2b00      	cmp	r3, #0
    e39c:	d109      	bne.n	e3b2 <_i2c_master_read_packet+0x212>
    e39e:	2314      	movs	r3, #20
    e3a0:	18fb      	adds	r3, r7, r3
    e3a2:	881b      	ldrh	r3, [r3, #0]
    e3a4:	2214      	movs	r2, #20
    e3a6:	18ba      	adds	r2, r7, r2
    e3a8:	1e59      	subs	r1, r3, #1
    e3aa:	8011      	strh	r1, [r2, #0]
    e3ac:	2b00      	cmp	r3, #0
    e3ae:	d1aa      	bne.n	e306 <_i2c_master_read_packet+0x166>
    e3b0:	e000      	b.n	e3b4 <_i2c_master_read_packet+0x214>
    e3b2:	46c0      	nop			; (mov r8, r8)
    e3b4:	687b      	ldr	r3, [r7, #4]
    e3b6:	7a9b      	ldrb	r3, [r3, #10]
    e3b8:	2b00      	cmp	r3, #0
    e3ba:	d00a      	beq.n	e3d2 <_i2c_master_read_packet+0x232>
    e3bc:	687b      	ldr	r3, [r7, #4]
    e3be:	0018      	movs	r0, r3
    e3c0:	4b13      	ldr	r3, [pc, #76]	; (e410 <_i2c_master_read_packet+0x270>)
    e3c2:	4798      	blx	r3
    e3c4:	68fb      	ldr	r3, [r7, #12]
    e3c6:	685b      	ldr	r3, [r3, #4]
    e3c8:	22c0      	movs	r2, #192	; 0xc0
    e3ca:	0292      	lsls	r2, r2, #10
    e3cc:	431a      	orrs	r2, r3
    e3ce:	68fb      	ldr	r3, [r7, #12]
    e3d0:	605a      	str	r2, [r3, #4]
    e3d2:	687b      	ldr	r3, [r7, #4]
    e3d4:	0018      	movs	r0, r3
    e3d6:	4b0e      	ldr	r3, [pc, #56]	; (e410 <_i2c_master_read_packet+0x270>)
    e3d8:	4798      	blx	r3
    e3da:	683b      	ldr	r3, [r7, #0]
    e3dc:	685a      	ldr	r2, [r3, #4]
    e3de:	2312      	movs	r3, #18
    e3e0:	18fb      	adds	r3, r7, r3
    e3e2:	881b      	ldrh	r3, [r3, #0]
    e3e4:	18d3      	adds	r3, r2, r3
    e3e6:	68fa      	ldr	r2, [r7, #12]
    e3e8:	2128      	movs	r1, #40	; 0x28
    e3ea:	5c52      	ldrb	r2, [r2, r1]
    e3ec:	b2d2      	uxtb	r2, r2
    e3ee:	701a      	strb	r2, [r3, #0]
    e3f0:	2317      	movs	r3, #23
    e3f2:	18fb      	adds	r3, r7, r3
    e3f4:	781b      	ldrb	r3, [r3, #0]
    e3f6:	0018      	movs	r0, r3
    e3f8:	46bd      	mov	sp, r7
    e3fa:	b007      	add	sp, #28
    e3fc:	bd90      	pop	{r4, r7, pc}
    e3fe:	46c0      	nop			; (mov r8, r8)
    e400:	0000e14d 	.word	0x0000e14d
    e404:	fffbffff 	.word	0xfffbffff
    e408:	0000e0ef 	.word	0x0000e0ef
    e40c:	0000e091 	.word	0x0000e091
    e410:	0000daf9 	.word	0x0000daf9

0000e414 <i2c_master_read_packet_wait>:
    e414:	b580      	push	{r7, lr}
    e416:	b082      	sub	sp, #8
    e418:	af00      	add	r7, sp, #0
    e41a:	6078      	str	r0, [r7, #4]
    e41c:	6039      	str	r1, [r7, #0]
    e41e:	687b      	ldr	r3, [r7, #4]
    e420:	2201      	movs	r2, #1
    e422:	729a      	strb	r2, [r3, #10]
    e424:	687b      	ldr	r3, [r7, #4]
    e426:	2201      	movs	r2, #1
    e428:	72da      	strb	r2, [r3, #11]
    e42a:	683a      	ldr	r2, [r7, #0]
    e42c:	687b      	ldr	r3, [r7, #4]
    e42e:	0011      	movs	r1, r2
    e430:	0018      	movs	r0, r3
    e432:	4b03      	ldr	r3, [pc, #12]	; (e440 <i2c_master_read_packet_wait+0x2c>)
    e434:	4798      	blx	r3
    e436:	0003      	movs	r3, r0
    e438:	0018      	movs	r0, r3
    e43a:	46bd      	mov	sp, r7
    e43c:	b002      	add	sp, #8
    e43e:	bd80      	pop	{r7, pc}
    e440:	0000e1a1 	.word	0x0000e1a1

0000e444 <i2c_master_read_packet_wait_no_stop>:
    e444:	b580      	push	{r7, lr}
    e446:	b082      	sub	sp, #8
    e448:	af00      	add	r7, sp, #0
    e44a:	6078      	str	r0, [r7, #4]
    e44c:	6039      	str	r1, [r7, #0]
    e44e:	687b      	ldr	r3, [r7, #4]
    e450:	2200      	movs	r2, #0
    e452:	729a      	strb	r2, [r3, #10]
    e454:	687b      	ldr	r3, [r7, #4]
    e456:	2201      	movs	r2, #1
    e458:	72da      	strb	r2, [r3, #11]
    e45a:	683a      	ldr	r2, [r7, #0]
    e45c:	687b      	ldr	r3, [r7, #4]
    e45e:	0011      	movs	r1, r2
    e460:	0018      	movs	r0, r3
    e462:	4b03      	ldr	r3, [pc, #12]	; (e470 <i2c_master_read_packet_wait_no_stop+0x2c>)
    e464:	4798      	blx	r3
    e466:	0003      	movs	r3, r0
    e468:	0018      	movs	r0, r3
    e46a:	46bd      	mov	sp, r7
    e46c:	b002      	add	sp, #8
    e46e:	bd80      	pop	{r7, pc}
    e470:	0000e1a1 	.word	0x0000e1a1

0000e474 <_i2c_master_write_packet>:
    e474:	b590      	push	{r4, r7, lr}
    e476:	b087      	sub	sp, #28
    e478:	af00      	add	r7, sp, #0
    e47a:	6078      	str	r0, [r7, #4]
    e47c:	6039      	str	r1, [r7, #0]
    e47e:	687b      	ldr	r3, [r7, #4]
    e480:	681b      	ldr	r3, [r3, #0]
    e482:	60fb      	str	r3, [r7, #12]
    e484:	2314      	movs	r3, #20
    e486:	18fb      	adds	r3, r7, r3
    e488:	683a      	ldr	r2, [r7, #0]
    e48a:	8852      	ldrh	r2, [r2, #2]
    e48c:	801a      	strh	r2, [r3, #0]
    e48e:	687b      	ldr	r3, [r7, #4]
    e490:	0018      	movs	r0, r3
    e492:	4b51      	ldr	r3, [pc, #324]	; (e5d8 <_i2c_master_write_packet+0x164>)
    e494:	4798      	blx	r3
    e496:	683b      	ldr	r3, [r7, #0]
    e498:	7a5b      	ldrb	r3, [r3, #9]
    e49a:	2b00      	cmp	r3, #0
    e49c:	d006      	beq.n	e4ac <_i2c_master_write_packet+0x38>
    e49e:	683b      	ldr	r3, [r7, #0]
    e4a0:	7a9a      	ldrb	r2, [r3, #10]
    e4a2:	687b      	ldr	r3, [r7, #4]
    e4a4:	0011      	movs	r1, r2
    e4a6:	0018      	movs	r0, r3
    e4a8:	4b4c      	ldr	r3, [pc, #304]	; (e5dc <_i2c_master_write_packet+0x168>)
    e4aa:	4798      	blx	r3
    e4ac:	68fb      	ldr	r3, [r7, #12]
    e4ae:	685b      	ldr	r3, [r3, #4]
    e4b0:	4a4b      	ldr	r2, [pc, #300]	; (e5e0 <_i2c_master_write_packet+0x16c>)
    e4b2:	401a      	ands	r2, r3
    e4b4:	68fb      	ldr	r3, [r7, #12]
    e4b6:	605a      	str	r2, [r3, #4]
    e4b8:	683b      	ldr	r3, [r7, #0]
    e4ba:	7a1b      	ldrb	r3, [r3, #8]
    e4bc:	2b00      	cmp	r3, #0
    e4be:	d00d      	beq.n	e4dc <_i2c_master_write_packet+0x68>
    e4c0:	683b      	ldr	r3, [r7, #0]
    e4c2:	881b      	ldrh	r3, [r3, #0]
    e4c4:	005a      	lsls	r2, r3, #1
    e4c6:	683b      	ldr	r3, [r7, #0]
    e4c8:	7a5b      	ldrb	r3, [r3, #9]
    e4ca:	039b      	lsls	r3, r3, #14
    e4cc:	4313      	orrs	r3, r2
    e4ce:	001a      	movs	r2, r3
    e4d0:	2380      	movs	r3, #128	; 0x80
    e4d2:	021b      	lsls	r3, r3, #8
    e4d4:	431a      	orrs	r2, r3
    e4d6:	68fb      	ldr	r3, [r7, #12]
    e4d8:	625a      	str	r2, [r3, #36]	; 0x24
    e4da:	e009      	b.n	e4f0 <_i2c_master_write_packet+0x7c>
    e4dc:	683b      	ldr	r3, [r7, #0]
    e4de:	881b      	ldrh	r3, [r3, #0]
    e4e0:	005a      	lsls	r2, r3, #1
    e4e2:	683b      	ldr	r3, [r7, #0]
    e4e4:	7a5b      	ldrb	r3, [r3, #9]
    e4e6:	039b      	lsls	r3, r3, #14
    e4e8:	4313      	orrs	r3, r2
    e4ea:	001a      	movs	r2, r3
    e4ec:	68fb      	ldr	r3, [r7, #12]
    e4ee:	625a      	str	r2, [r3, #36]	; 0x24
    e4f0:	2317      	movs	r3, #23
    e4f2:	18fc      	adds	r4, r7, r3
    e4f4:	687b      	ldr	r3, [r7, #4]
    e4f6:	0018      	movs	r0, r3
    e4f8:	4b3a      	ldr	r3, [pc, #232]	; (e5e4 <_i2c_master_write_packet+0x170>)
    e4fa:	4798      	blx	r3
    e4fc:	0003      	movs	r3, r0
    e4fe:	7023      	strb	r3, [r4, #0]
    e500:	2317      	movs	r3, #23
    e502:	18fb      	adds	r3, r7, r3
    e504:	781b      	ldrb	r3, [r3, #0]
    e506:	2b00      	cmp	r3, #0
    e508:	d107      	bne.n	e51a <_i2c_master_write_packet+0xa6>
    e50a:	2317      	movs	r3, #23
    e50c:	18fc      	adds	r4, r7, r3
    e50e:	687b      	ldr	r3, [r7, #4]
    e510:	0018      	movs	r0, r3
    e512:	4b35      	ldr	r3, [pc, #212]	; (e5e8 <_i2c_master_write_packet+0x174>)
    e514:	4798      	blx	r3
    e516:	0003      	movs	r3, r0
    e518:	7023      	strb	r3, [r4, #0]
    e51a:	2317      	movs	r3, #23
    e51c:	18fb      	adds	r3, r7, r3
    e51e:	781b      	ldrb	r3, [r3, #0]
    e520:	2b00      	cmp	r3, #0
    e522:	d152      	bne.n	e5ca <_i2c_master_write_packet+0x156>
    e524:	2312      	movs	r3, #18
    e526:	18fb      	adds	r3, r7, r3
    e528:	2200      	movs	r2, #0
    e52a:	801a      	strh	r2, [r3, #0]
    e52c:	e033      	b.n	e596 <_i2c_master_write_packet+0x122>
    e52e:	68fb      	ldr	r3, [r7, #12]
    e530:	8b5b      	ldrh	r3, [r3, #26]
    e532:	b29b      	uxth	r3, r3
    e534:	001a      	movs	r2, r3
    e536:	2320      	movs	r3, #32
    e538:	4013      	ands	r3, r2
    e53a:	d101      	bne.n	e540 <_i2c_master_write_packet+0xcc>
    e53c:	2341      	movs	r3, #65	; 0x41
    e53e:	e047      	b.n	e5d0 <_i2c_master_write_packet+0x15c>
    e540:	687b      	ldr	r3, [r7, #4]
    e542:	0018      	movs	r0, r3
    e544:	4b24      	ldr	r3, [pc, #144]	; (e5d8 <_i2c_master_write_packet+0x164>)
    e546:	4798      	blx	r3
    e548:	683b      	ldr	r3, [r7, #0]
    e54a:	685a      	ldr	r2, [r3, #4]
    e54c:	2312      	movs	r3, #18
    e54e:	18fb      	adds	r3, r7, r3
    e550:	881b      	ldrh	r3, [r3, #0]
    e552:	2112      	movs	r1, #18
    e554:	1879      	adds	r1, r7, r1
    e556:	1c58      	adds	r0, r3, #1
    e558:	8008      	strh	r0, [r1, #0]
    e55a:	18d3      	adds	r3, r2, r3
    e55c:	7819      	ldrb	r1, [r3, #0]
    e55e:	68fb      	ldr	r3, [r7, #12]
    e560:	2228      	movs	r2, #40	; 0x28
    e562:	5499      	strb	r1, [r3, r2]
    e564:	2317      	movs	r3, #23
    e566:	18fc      	adds	r4, r7, r3
    e568:	687b      	ldr	r3, [r7, #4]
    e56a:	0018      	movs	r0, r3
    e56c:	4b1d      	ldr	r3, [pc, #116]	; (e5e4 <_i2c_master_write_packet+0x170>)
    e56e:	4798      	blx	r3
    e570:	0003      	movs	r3, r0
    e572:	7023      	strb	r3, [r4, #0]
    e574:	2317      	movs	r3, #23
    e576:	18fb      	adds	r3, r7, r3
    e578:	781b      	ldrb	r3, [r3, #0]
    e57a:	2b00      	cmp	r3, #0
    e57c:	d115      	bne.n	e5aa <_i2c_master_write_packet+0x136>
    e57e:	68fb      	ldr	r3, [r7, #12]
    e580:	8b5b      	ldrh	r3, [r3, #26]
    e582:	b29b      	uxth	r3, r3
    e584:	001a      	movs	r2, r3
    e586:	2304      	movs	r3, #4
    e588:	4013      	ands	r3, r2
    e58a:	d004      	beq.n	e596 <_i2c_master_write_packet+0x122>
    e58c:	2317      	movs	r3, #23
    e58e:	18fb      	adds	r3, r7, r3
    e590:	221e      	movs	r2, #30
    e592:	701a      	strb	r2, [r3, #0]
    e594:	e00a      	b.n	e5ac <_i2c_master_write_packet+0x138>
    e596:	2314      	movs	r3, #20
    e598:	18fb      	adds	r3, r7, r3
    e59a:	881b      	ldrh	r3, [r3, #0]
    e59c:	2214      	movs	r2, #20
    e59e:	18ba      	adds	r2, r7, r2
    e5a0:	1e59      	subs	r1, r3, #1
    e5a2:	8011      	strh	r1, [r2, #0]
    e5a4:	2b00      	cmp	r3, #0
    e5a6:	d1c2      	bne.n	e52e <_i2c_master_write_packet+0xba>
    e5a8:	e000      	b.n	e5ac <_i2c_master_write_packet+0x138>
    e5aa:	46c0      	nop			; (mov r8, r8)
    e5ac:	687b      	ldr	r3, [r7, #4]
    e5ae:	7a9b      	ldrb	r3, [r3, #10]
    e5b0:	2b00      	cmp	r3, #0
    e5b2:	d00a      	beq.n	e5ca <_i2c_master_write_packet+0x156>
    e5b4:	687b      	ldr	r3, [r7, #4]
    e5b6:	0018      	movs	r0, r3
    e5b8:	4b07      	ldr	r3, [pc, #28]	; (e5d8 <_i2c_master_write_packet+0x164>)
    e5ba:	4798      	blx	r3
    e5bc:	68fb      	ldr	r3, [r7, #12]
    e5be:	685b      	ldr	r3, [r3, #4]
    e5c0:	22c0      	movs	r2, #192	; 0xc0
    e5c2:	0292      	lsls	r2, r2, #10
    e5c4:	431a      	orrs	r2, r3
    e5c6:	68fb      	ldr	r3, [r7, #12]
    e5c8:	605a      	str	r2, [r3, #4]
    e5ca:	2317      	movs	r3, #23
    e5cc:	18fb      	adds	r3, r7, r3
    e5ce:	781b      	ldrb	r3, [r3, #0]
    e5d0:	0018      	movs	r0, r3
    e5d2:	46bd      	mov	sp, r7
    e5d4:	b007      	add	sp, #28
    e5d6:	bd90      	pop	{r4, r7, pc}
    e5d8:	0000daf9 	.word	0x0000daf9
    e5dc:	0000e14d 	.word	0x0000e14d
    e5e0:	fffbffff 	.word	0xfffbffff
    e5e4:	0000e0ef 	.word	0x0000e0ef
    e5e8:	0000e091 	.word	0x0000e091

0000e5ec <i2c_master_write_packet_wait>:
    e5ec:	b580      	push	{r7, lr}
    e5ee:	b082      	sub	sp, #8
    e5f0:	af00      	add	r7, sp, #0
    e5f2:	6078      	str	r0, [r7, #4]
    e5f4:	6039      	str	r1, [r7, #0]
    e5f6:	687b      	ldr	r3, [r7, #4]
    e5f8:	2201      	movs	r2, #1
    e5fa:	729a      	strb	r2, [r3, #10]
    e5fc:	687b      	ldr	r3, [r7, #4]
    e5fe:	2201      	movs	r2, #1
    e600:	72da      	strb	r2, [r3, #11]
    e602:	683a      	ldr	r2, [r7, #0]
    e604:	687b      	ldr	r3, [r7, #4]
    e606:	0011      	movs	r1, r2
    e608:	0018      	movs	r0, r3
    e60a:	4b03      	ldr	r3, [pc, #12]	; (e618 <i2c_master_write_packet_wait+0x2c>)
    e60c:	4798      	blx	r3
    e60e:	0003      	movs	r3, r0
    e610:	0018      	movs	r0, r3
    e612:	46bd      	mov	sp, r7
    e614:	b002      	add	sp, #8
    e616:	bd80      	pop	{r7, pc}
    e618:	0000e475 	.word	0x0000e475

0000e61c <i2c_master_write_packet_wait_no_stop>:
    e61c:	b580      	push	{r7, lr}
    e61e:	b082      	sub	sp, #8
    e620:	af00      	add	r7, sp, #0
    e622:	6078      	str	r0, [r7, #4]
    e624:	6039      	str	r1, [r7, #0]
    e626:	687b      	ldr	r3, [r7, #4]
    e628:	2200      	movs	r2, #0
    e62a:	729a      	strb	r2, [r3, #10]
    e62c:	687b      	ldr	r3, [r7, #4]
    e62e:	2201      	movs	r2, #1
    e630:	72da      	strb	r2, [r3, #11]
    e632:	683a      	ldr	r2, [r7, #0]
    e634:	687b      	ldr	r3, [r7, #4]
    e636:	0011      	movs	r1, r2
    e638:	0018      	movs	r0, r3
    e63a:	4b03      	ldr	r3, [pc, #12]	; (e648 <i2c_master_write_packet_wait_no_stop+0x2c>)
    e63c:	4798      	blx	r3
    e63e:	0003      	movs	r3, r0
    e640:	0018      	movs	r0, r3
    e642:	46bd      	mov	sp, r7
    e644:	b002      	add	sp, #8
    e646:	bd80      	pop	{r7, pc}
    e648:	0000e475 	.word	0x0000e475

0000e64c <system_apb_clock_set_mask>:
    e64c:	b580      	push	{r7, lr}
    e64e:	b082      	sub	sp, #8
    e650:	af00      	add	r7, sp, #0
    e652:	0002      	movs	r2, r0
    e654:	6039      	str	r1, [r7, #0]
    e656:	1dfb      	adds	r3, r7, #7
    e658:	701a      	strb	r2, [r3, #0]
    e65a:	1dfb      	adds	r3, r7, #7
    e65c:	781b      	ldrb	r3, [r3, #0]
    e65e:	2b01      	cmp	r3, #1
    e660:	d00a      	beq.n	e678 <system_apb_clock_set_mask+0x2c>
    e662:	2b02      	cmp	r3, #2
    e664:	d00f      	beq.n	e686 <system_apb_clock_set_mask+0x3a>
    e666:	2b00      	cmp	r3, #0
    e668:	d114      	bne.n	e694 <system_apb_clock_set_mask+0x48>
    e66a:	4b0e      	ldr	r3, [pc, #56]	; (e6a4 <system_apb_clock_set_mask+0x58>)
    e66c:	4a0d      	ldr	r2, [pc, #52]	; (e6a4 <system_apb_clock_set_mask+0x58>)
    e66e:	6991      	ldr	r1, [r2, #24]
    e670:	683a      	ldr	r2, [r7, #0]
    e672:	430a      	orrs	r2, r1
    e674:	619a      	str	r2, [r3, #24]
    e676:	e00f      	b.n	e698 <system_apb_clock_set_mask+0x4c>
    e678:	4b0a      	ldr	r3, [pc, #40]	; (e6a4 <system_apb_clock_set_mask+0x58>)
    e67a:	4a0a      	ldr	r2, [pc, #40]	; (e6a4 <system_apb_clock_set_mask+0x58>)
    e67c:	69d1      	ldr	r1, [r2, #28]
    e67e:	683a      	ldr	r2, [r7, #0]
    e680:	430a      	orrs	r2, r1
    e682:	61da      	str	r2, [r3, #28]
    e684:	e008      	b.n	e698 <system_apb_clock_set_mask+0x4c>
    e686:	4b07      	ldr	r3, [pc, #28]	; (e6a4 <system_apb_clock_set_mask+0x58>)
    e688:	4a06      	ldr	r2, [pc, #24]	; (e6a4 <system_apb_clock_set_mask+0x58>)
    e68a:	6a11      	ldr	r1, [r2, #32]
    e68c:	683a      	ldr	r2, [r7, #0]
    e68e:	430a      	orrs	r2, r1
    e690:	621a      	str	r2, [r3, #32]
    e692:	e001      	b.n	e698 <system_apb_clock_set_mask+0x4c>
    e694:	2317      	movs	r3, #23
    e696:	e000      	b.n	e69a <system_apb_clock_set_mask+0x4e>
    e698:	2300      	movs	r3, #0
    e69a:	0018      	movs	r0, r3
    e69c:	46bd      	mov	sp, r7
    e69e:	b002      	add	sp, #8
    e6a0:	bd80      	pop	{r7, pc}
    e6a2:	46c0      	nop			; (mov r8, r8)
    e6a4:	40000400 	.word	0x40000400

0000e6a8 <wdt_is_syncing>:
    e6a8:	b580      	push	{r7, lr}
    e6aa:	b082      	sub	sp, #8
    e6ac:	af00      	add	r7, sp, #0
    e6ae:	4b07      	ldr	r3, [pc, #28]	; (e6cc <wdt_is_syncing+0x24>)
    e6b0:	607b      	str	r3, [r7, #4]
    e6b2:	687b      	ldr	r3, [r7, #4]
    e6b4:	79db      	ldrb	r3, [r3, #7]
    e6b6:	b2db      	uxtb	r3, r3
    e6b8:	b25b      	sxtb	r3, r3
    e6ba:	2b00      	cmp	r3, #0
    e6bc:	da01      	bge.n	e6c2 <wdt_is_syncing+0x1a>
    e6be:	2301      	movs	r3, #1
    e6c0:	e000      	b.n	e6c4 <wdt_is_syncing+0x1c>
    e6c2:	2300      	movs	r3, #0
    e6c4:	0018      	movs	r0, r3
    e6c6:	46bd      	mov	sp, r7
    e6c8:	b002      	add	sp, #8
    e6ca:	bd80      	pop	{r7, pc}
    e6cc:	40001000 	.word	0x40001000

0000e6d0 <wdt_is_locked>:
    e6d0:	b580      	push	{r7, lr}
    e6d2:	b082      	sub	sp, #8
    e6d4:	af00      	add	r7, sp, #0
    e6d6:	4b07      	ldr	r3, [pc, #28]	; (e6f4 <wdt_is_locked+0x24>)
    e6d8:	607b      	str	r3, [r7, #4]
    e6da:	687b      	ldr	r3, [r7, #4]
    e6dc:	781b      	ldrb	r3, [r3, #0]
    e6de:	b2db      	uxtb	r3, r3
    e6e0:	001a      	movs	r2, r3
    e6e2:	2380      	movs	r3, #128	; 0x80
    e6e4:	4013      	ands	r3, r2
    e6e6:	1e5a      	subs	r2, r3, #1
    e6e8:	4193      	sbcs	r3, r2
    e6ea:	b2db      	uxtb	r3, r3
    e6ec:	0018      	movs	r0, r3
    e6ee:	46bd      	mov	sp, r7
    e6f0:	b002      	add	sp, #8
    e6f2:	bd80      	pop	{r7, pc}
    e6f4:	40001000 	.word	0x40001000

0000e6f8 <wdt_set_config>:
    e6f8:	b580      	push	{r7, lr}
    e6fa:	b086      	sub	sp, #24
    e6fc:	af00      	add	r7, sp, #0
    e6fe:	6078      	str	r0, [r7, #4]
    e700:	4b54      	ldr	r3, [pc, #336]	; (e854 <wdt_set_config+0x15c>)
    e702:	613b      	str	r3, [r7, #16]
    e704:	2110      	movs	r1, #16
    e706:	2000      	movs	r0, #0
    e708:	4b53      	ldr	r3, [pc, #332]	; (e858 <wdt_set_config+0x160>)
    e70a:	4798      	blx	r3
    e70c:	4b53      	ldr	r3, [pc, #332]	; (e85c <wdt_set_config+0x164>)
    e70e:	4798      	blx	r3
    e710:	1e03      	subs	r3, r0, #0
    e712:	d001      	beq.n	e718 <wdt_set_config+0x20>
    e714:	2310      	movs	r3, #16
    e716:	e098      	b.n	e84a <wdt_set_config+0x152>
    e718:	687b      	ldr	r3, [r7, #4]
    e71a:	78db      	ldrb	r3, [r3, #3]
    e71c:	2b00      	cmp	r3, #0
    e71e:	d101      	bne.n	e724 <wdt_set_config+0x2c>
    e720:	2317      	movs	r3, #23
    e722:	e092      	b.n	e84a <wdt_set_config+0x152>
    e724:	687b      	ldr	r3, [r7, #4]
    e726:	78da      	ldrb	r2, [r3, #3]
    e728:	687b      	ldr	r3, [r7, #4]
    e72a:	791b      	ldrb	r3, [r3, #4]
    e72c:	429a      	cmp	r2, r3
    e72e:	d305      	bcc.n	e73c <wdt_set_config+0x44>
    e730:	687b      	ldr	r3, [r7, #4]
    e732:	78da      	ldrb	r2, [r3, #3]
    e734:	687b      	ldr	r3, [r7, #4]
    e736:	795b      	ldrb	r3, [r3, #5]
    e738:	429a      	cmp	r2, r3
    e73a:	d201      	bcs.n	e740 <wdt_set_config+0x48>
    e73c:	2317      	movs	r3, #23
    e73e:	e084      	b.n	e84a <wdt_set_config+0x152>
    e740:	693b      	ldr	r3, [r7, #16]
    e742:	781b      	ldrb	r3, [r3, #0]
    e744:	b2db      	uxtb	r3, r3
    e746:	2202      	movs	r2, #2
    e748:	4393      	bics	r3, r2
    e74a:	b2da      	uxtb	r2, r3
    e74c:	693b      	ldr	r3, [r7, #16]
    e74e:	701a      	strb	r2, [r3, #0]
    e750:	46c0      	nop			; (mov r8, r8)
    e752:	4b43      	ldr	r3, [pc, #268]	; (e860 <wdt_set_config+0x168>)
    e754:	4798      	blx	r3
    e756:	1e03      	subs	r3, r0, #0
    e758:	d1fb      	bne.n	e752 <wdt_set_config+0x5a>
    e75a:	687b      	ldr	r3, [r7, #4]
    e75c:	785b      	ldrb	r3, [r3, #1]
    e75e:	2201      	movs	r2, #1
    e760:	4053      	eors	r3, r2
    e762:	b2db      	uxtb	r3, r3
    e764:	2b00      	cmp	r3, #0
    e766:	d001      	beq.n	e76c <wdt_set_config+0x74>
    e768:	2300      	movs	r3, #0
    e76a:	e06e      	b.n	e84a <wdt_set_config+0x152>
    e76c:	687b      	ldr	r3, [r7, #4]
    e76e:	789a      	ldrb	r2, [r3, #2]
    e770:	230c      	movs	r3, #12
    e772:	18fb      	adds	r3, r7, r3
    e774:	701a      	strb	r2, [r3, #0]
    e776:	230c      	movs	r3, #12
    e778:	18fb      	adds	r3, r7, r3
    e77a:	0019      	movs	r1, r3
    e77c:	2003      	movs	r0, #3
    e77e:	4b39      	ldr	r3, [pc, #228]	; (e864 <wdt_set_config+0x16c>)
    e780:	4798      	blx	r3
    e782:	2003      	movs	r0, #3
    e784:	4b38      	ldr	r3, [pc, #224]	; (e868 <wdt_set_config+0x170>)
    e786:	4798      	blx	r3
    e788:	687b      	ldr	r3, [r7, #4]
    e78a:	781b      	ldrb	r3, [r3, #0]
    e78c:	2b00      	cmp	r3, #0
    e78e:	d002      	beq.n	e796 <wdt_set_config+0x9e>
    e790:	2003      	movs	r0, #3
    e792:	4b36      	ldr	r3, [pc, #216]	; (e86c <wdt_set_config+0x174>)
    e794:	4798      	blx	r3
    e796:	2300      	movs	r3, #0
    e798:	617b      	str	r3, [r7, #20]
    e79a:	687b      	ldr	r3, [r7, #4]
    e79c:	78db      	ldrb	r3, [r3, #3]
    e79e:	3b01      	subs	r3, #1
    e7a0:	001a      	movs	r2, r3
    e7a2:	697b      	ldr	r3, [r7, #20]
    e7a4:	4313      	orrs	r3, r2
    e7a6:	617b      	str	r3, [r7, #20]
    e7a8:	687b      	ldr	r3, [r7, #4]
    e7aa:	791b      	ldrb	r3, [r3, #4]
    e7ac:	2b00      	cmp	r3, #0
    e7ae:	d010      	beq.n	e7d2 <wdt_set_config+0xda>
    e7b0:	693b      	ldr	r3, [r7, #16]
    e7b2:	781b      	ldrb	r3, [r3, #0]
    e7b4:	b2db      	uxtb	r3, r3
    e7b6:	2204      	movs	r2, #4
    e7b8:	4313      	orrs	r3, r2
    e7ba:	b2da      	uxtb	r2, r3
    e7bc:	693b      	ldr	r3, [r7, #16]
    e7be:	701a      	strb	r2, [r3, #0]
    e7c0:	687b      	ldr	r3, [r7, #4]
    e7c2:	791b      	ldrb	r3, [r3, #4]
    e7c4:	3b01      	subs	r3, #1
    e7c6:	011b      	lsls	r3, r3, #4
    e7c8:	001a      	movs	r2, r3
    e7ca:	697b      	ldr	r3, [r7, #20]
    e7cc:	4313      	orrs	r3, r2
    e7ce:	617b      	str	r3, [r7, #20]
    e7d0:	e007      	b.n	e7e2 <wdt_set_config+0xea>
    e7d2:	693b      	ldr	r3, [r7, #16]
    e7d4:	781b      	ldrb	r3, [r3, #0]
    e7d6:	b2db      	uxtb	r3, r3
    e7d8:	2204      	movs	r2, #4
    e7da:	4393      	bics	r3, r2
    e7dc:	b2da      	uxtb	r2, r3
    e7de:	693b      	ldr	r3, [r7, #16]
    e7e0:	701a      	strb	r2, [r3, #0]
    e7e2:	46c0      	nop			; (mov r8, r8)
    e7e4:	4b1e      	ldr	r3, [pc, #120]	; (e860 <wdt_set_config+0x168>)
    e7e6:	4798      	blx	r3
    e7e8:	1e03      	subs	r3, r0, #0
    e7ea:	d1fb      	bne.n	e7e4 <wdt_set_config+0xec>
    e7ec:	697b      	ldr	r3, [r7, #20]
    e7ee:	b2da      	uxtb	r2, r3
    e7f0:	693b      	ldr	r3, [r7, #16]
    e7f2:	705a      	strb	r2, [r3, #1]
    e7f4:	687b      	ldr	r3, [r7, #4]
    e7f6:	795b      	ldrb	r3, [r3, #5]
    e7f8:	2b00      	cmp	r3, #0
    e7fa:	d00a      	beq.n	e812 <wdt_set_config+0x11a>
    e7fc:	46c0      	nop			; (mov r8, r8)
    e7fe:	4b18      	ldr	r3, [pc, #96]	; (e860 <wdt_set_config+0x168>)
    e800:	4798      	blx	r3
    e802:	1e03      	subs	r3, r0, #0
    e804:	d1fb      	bne.n	e7fe <wdt_set_config+0x106>
    e806:	687b      	ldr	r3, [r7, #4]
    e808:	795b      	ldrb	r3, [r3, #5]
    e80a:	3b01      	subs	r3, #1
    e80c:	b2da      	uxtb	r2, r3
    e80e:	693b      	ldr	r3, [r7, #16]
    e810:	709a      	strb	r2, [r3, #2]
    e812:	687b      	ldr	r3, [r7, #4]
    e814:	781b      	ldrb	r3, [r3, #0]
    e816:	2b00      	cmp	r3, #0
    e818:	d009      	beq.n	e82e <wdt_set_config+0x136>
    e81a:	693b      	ldr	r3, [r7, #16]
    e81c:	781b      	ldrb	r3, [r3, #0]
    e81e:	b2db      	uxtb	r3, r3
    e820:	2280      	movs	r2, #128	; 0x80
    e822:	4252      	negs	r2, r2
    e824:	4313      	orrs	r3, r2
    e826:	b2da      	uxtb	r2, r3
    e828:	693b      	ldr	r3, [r7, #16]
    e82a:	701a      	strb	r2, [r3, #0]
    e82c:	e007      	b.n	e83e <wdt_set_config+0x146>
    e82e:	693b      	ldr	r3, [r7, #16]
    e830:	781b      	ldrb	r3, [r3, #0]
    e832:	b2db      	uxtb	r3, r3
    e834:	2202      	movs	r2, #2
    e836:	4313      	orrs	r3, r2
    e838:	b2da      	uxtb	r2, r3
    e83a:	693b      	ldr	r3, [r7, #16]
    e83c:	701a      	strb	r2, [r3, #0]
    e83e:	46c0      	nop			; (mov r8, r8)
    e840:	4b07      	ldr	r3, [pc, #28]	; (e860 <wdt_set_config+0x168>)
    e842:	4798      	blx	r3
    e844:	1e03      	subs	r3, r0, #0
    e846:	d1fb      	bne.n	e840 <wdt_set_config+0x148>
    e848:	2300      	movs	r3, #0
    e84a:	0018      	movs	r0, r3
    e84c:	46bd      	mov	sp, r7
    e84e:	b006      	add	sp, #24
    e850:	bd80      	pop	{r7, pc}
    e852:	46c0      	nop			; (mov r8, r8)
    e854:	40001000 	.word	0x40001000
    e858:	0000e64d 	.word	0x0000e64d
    e85c:	0000e6d1 	.word	0x0000e6d1
    e860:	0000e6a9 	.word	0x0000e6a9
    e864:	00009079 	.word	0x00009079
    e868:	000090bd 	.word	0x000090bd
    e86c:	0000919d 	.word	0x0000919d

0000e870 <wdt_reset_count>:
    e870:	b580      	push	{r7, lr}
    e872:	b082      	sub	sp, #8
    e874:	af00      	add	r7, sp, #0
    e876:	4b07      	ldr	r3, [pc, #28]	; (e894 <wdt_reset_count+0x24>)
    e878:	607b      	str	r3, [r7, #4]
    e87a:	687b      	ldr	r3, [r7, #4]
    e87c:	22a5      	movs	r2, #165	; 0xa5
    e87e:	721a      	strb	r2, [r3, #8]
    e880:	46c0      	nop			; (mov r8, r8)
    e882:	4b05      	ldr	r3, [pc, #20]	; (e898 <wdt_reset_count+0x28>)
    e884:	4798      	blx	r3
    e886:	1e03      	subs	r3, r0, #0
    e888:	d1fb      	bne.n	e882 <wdt_reset_count+0x12>
    e88a:	46c0      	nop			; (mov r8, r8)
    e88c:	46bd      	mov	sp, r7
    e88e:	b002      	add	sp, #8
    e890:	bd80      	pop	{r7, pc}
    e892:	46c0      	nop			; (mov r8, r8)
    e894:	40001000 	.word	0x40001000
    e898:	0000e6a9 	.word	0x0000e6a9

0000e89c <system_gclk_chan_get_config_defaults>:
    e89c:	b580      	push	{r7, lr}
    e89e:	b082      	sub	sp, #8
    e8a0:	af00      	add	r7, sp, #0
    e8a2:	6078      	str	r0, [r7, #4]
    e8a4:	687b      	ldr	r3, [r7, #4]
    e8a6:	2200      	movs	r2, #0
    e8a8:	701a      	strb	r2, [r3, #0]
    e8aa:	46c0      	nop			; (mov r8, r8)
    e8ac:	46bd      	mov	sp, r7
    e8ae:	b002      	add	sp, #8
    e8b0:	bd80      	pop	{r7, pc}
	...

0000e8b4 <system_apb_clock_set_mask>:
    e8b4:	b580      	push	{r7, lr}
    e8b6:	b082      	sub	sp, #8
    e8b8:	af00      	add	r7, sp, #0
    e8ba:	0002      	movs	r2, r0
    e8bc:	6039      	str	r1, [r7, #0]
    e8be:	1dfb      	adds	r3, r7, #7
    e8c0:	701a      	strb	r2, [r3, #0]
    e8c2:	1dfb      	adds	r3, r7, #7
    e8c4:	781b      	ldrb	r3, [r3, #0]
    e8c6:	2b01      	cmp	r3, #1
    e8c8:	d00a      	beq.n	e8e0 <system_apb_clock_set_mask+0x2c>
    e8ca:	2b02      	cmp	r3, #2
    e8cc:	d00f      	beq.n	e8ee <system_apb_clock_set_mask+0x3a>
    e8ce:	2b00      	cmp	r3, #0
    e8d0:	d114      	bne.n	e8fc <system_apb_clock_set_mask+0x48>
    e8d2:	4b0e      	ldr	r3, [pc, #56]	; (e90c <system_apb_clock_set_mask+0x58>)
    e8d4:	4a0d      	ldr	r2, [pc, #52]	; (e90c <system_apb_clock_set_mask+0x58>)
    e8d6:	6991      	ldr	r1, [r2, #24]
    e8d8:	683a      	ldr	r2, [r7, #0]
    e8da:	430a      	orrs	r2, r1
    e8dc:	619a      	str	r2, [r3, #24]
    e8de:	e00f      	b.n	e900 <system_apb_clock_set_mask+0x4c>
    e8e0:	4b0a      	ldr	r3, [pc, #40]	; (e90c <system_apb_clock_set_mask+0x58>)
    e8e2:	4a0a      	ldr	r2, [pc, #40]	; (e90c <system_apb_clock_set_mask+0x58>)
    e8e4:	69d1      	ldr	r1, [r2, #28]
    e8e6:	683a      	ldr	r2, [r7, #0]
    e8e8:	430a      	orrs	r2, r1
    e8ea:	61da      	str	r2, [r3, #28]
    e8ec:	e008      	b.n	e900 <system_apb_clock_set_mask+0x4c>
    e8ee:	4b07      	ldr	r3, [pc, #28]	; (e90c <system_apb_clock_set_mask+0x58>)
    e8f0:	4a06      	ldr	r2, [pc, #24]	; (e90c <system_apb_clock_set_mask+0x58>)
    e8f2:	6a11      	ldr	r1, [r2, #32]
    e8f4:	683a      	ldr	r2, [r7, #0]
    e8f6:	430a      	orrs	r2, r1
    e8f8:	621a      	str	r2, [r3, #32]
    e8fa:	e001      	b.n	e900 <system_apb_clock_set_mask+0x4c>
    e8fc:	2317      	movs	r3, #23
    e8fe:	e000      	b.n	e902 <system_apb_clock_set_mask+0x4e>
    e900:	2300      	movs	r3, #0
    e902:	0018      	movs	r0, r3
    e904:	46bd      	mov	sp, r7
    e906:	b002      	add	sp, #8
    e908:	bd80      	pop	{r7, pc}
    e90a:	46c0      	nop			; (mov r8, r8)
    e90c:	40000400 	.word	0x40000400

0000e910 <system_pinmux_get_config_defaults>:
    e910:	b580      	push	{r7, lr}
    e912:	b082      	sub	sp, #8
    e914:	af00      	add	r7, sp, #0
    e916:	6078      	str	r0, [r7, #4]
    e918:	687b      	ldr	r3, [r7, #4]
    e91a:	2280      	movs	r2, #128	; 0x80
    e91c:	701a      	strb	r2, [r3, #0]
    e91e:	687b      	ldr	r3, [r7, #4]
    e920:	2200      	movs	r2, #0
    e922:	705a      	strb	r2, [r3, #1]
    e924:	687b      	ldr	r3, [r7, #4]
    e926:	2201      	movs	r2, #1
    e928:	709a      	strb	r2, [r3, #2]
    e92a:	687b      	ldr	r3, [r7, #4]
    e92c:	2200      	movs	r2, #0
    e92e:	70da      	strb	r2, [r3, #3]
    e930:	46c0      	nop			; (mov r8, r8)
    e932:	46bd      	mov	sp, r7
    e934:	b002      	add	sp, #8
    e936:	bd80      	pop	{r7, pc}

0000e938 <_extint_get_eic_from_channel>:
    e938:	b580      	push	{r7, lr}
    e93a:	b084      	sub	sp, #16
    e93c:	af00      	add	r7, sp, #0
    e93e:	0002      	movs	r2, r0
    e940:	1dfb      	adds	r3, r7, #7
    e942:	701a      	strb	r2, [r3, #0]
    e944:	230f      	movs	r3, #15
    e946:	18fb      	adds	r3, r7, r3
    e948:	1dfa      	adds	r2, r7, #7
    e94a:	7812      	ldrb	r2, [r2, #0]
    e94c:	0952      	lsrs	r2, r2, #5
    e94e:	701a      	strb	r2, [r3, #0]
    e950:	230f      	movs	r3, #15
    e952:	18fb      	adds	r3, r7, r3
    e954:	781b      	ldrb	r3, [r3, #0]
    e956:	2b00      	cmp	r3, #0
    e958:	d10c      	bne.n	e974 <_extint_get_eic_from_channel+0x3c>
    e95a:	4b09      	ldr	r3, [pc, #36]	; (e980 <_extint_get_eic_from_channel+0x48>)
    e95c:	60bb      	str	r3, [r7, #8]
    e95e:	230f      	movs	r3, #15
    e960:	18fb      	adds	r3, r7, r3
    e962:	781b      	ldrb	r3, [r3, #0]
    e964:	009b      	lsls	r3, r3, #2
    e966:	2210      	movs	r2, #16
    e968:	4694      	mov	ip, r2
    e96a:	44bc      	add	ip, r7
    e96c:	4463      	add	r3, ip
    e96e:	3b08      	subs	r3, #8
    e970:	681b      	ldr	r3, [r3, #0]
    e972:	e000      	b.n	e976 <_extint_get_eic_from_channel+0x3e>
    e974:	2300      	movs	r3, #0
    e976:	0018      	movs	r0, r3
    e978:	46bd      	mov	sp, r7
    e97a:	b004      	add	sp, #16
    e97c:	bd80      	pop	{r7, pc}
    e97e:	46c0      	nop			; (mov r8, r8)
    e980:	40001800 	.word	0x40001800

0000e984 <extint_is_syncing>:
    e984:	b580      	push	{r7, lr}
    e986:	b082      	sub	sp, #8
    e988:	af00      	add	r7, sp, #0
    e98a:	4b0f      	ldr	r3, [pc, #60]	; (e9c8 <extint_is_syncing+0x44>)
    e98c:	603b      	str	r3, [r7, #0]
    e98e:	2300      	movs	r3, #0
    e990:	607b      	str	r3, [r7, #4]
    e992:	e011      	b.n	e9b8 <extint_is_syncing+0x34>
    e994:	687b      	ldr	r3, [r7, #4]
    e996:	009b      	lsls	r3, r3, #2
    e998:	2208      	movs	r2, #8
    e99a:	4694      	mov	ip, r2
    e99c:	44bc      	add	ip, r7
    e99e:	4463      	add	r3, ip
    e9a0:	3b08      	subs	r3, #8
    e9a2:	681b      	ldr	r3, [r3, #0]
    e9a4:	785b      	ldrb	r3, [r3, #1]
    e9a6:	b2db      	uxtb	r3, r3
    e9a8:	b25b      	sxtb	r3, r3
    e9aa:	2b00      	cmp	r3, #0
    e9ac:	da01      	bge.n	e9b2 <extint_is_syncing+0x2e>
    e9ae:	2301      	movs	r3, #1
    e9b0:	e006      	b.n	e9c0 <extint_is_syncing+0x3c>
    e9b2:	687b      	ldr	r3, [r7, #4]
    e9b4:	3301      	adds	r3, #1
    e9b6:	607b      	str	r3, [r7, #4]
    e9b8:	687b      	ldr	r3, [r7, #4]
    e9ba:	2b00      	cmp	r3, #0
    e9bc:	d0ea      	beq.n	e994 <extint_is_syncing+0x10>
    e9be:	2300      	movs	r3, #0
    e9c0:	0018      	movs	r0, r3
    e9c2:	46bd      	mov	sp, r7
    e9c4:	b002      	add	sp, #8
    e9c6:	bd80      	pop	{r7, pc}
    e9c8:	40001800 	.word	0x40001800

0000e9cc <_system_extint_init>:
    e9cc:	b580      	push	{r7, lr}
    e9ce:	b084      	sub	sp, #16
    e9d0:	af00      	add	r7, sp, #0
    e9d2:	4b1f      	ldr	r3, [pc, #124]	; (ea50 <_system_extint_init+0x84>)
    e9d4:	60bb      	str	r3, [r7, #8]
    e9d6:	2140      	movs	r1, #64	; 0x40
    e9d8:	2000      	movs	r0, #0
    e9da:	4b1e      	ldr	r3, [pc, #120]	; (ea54 <_system_extint_init+0x88>)
    e9dc:	4798      	blx	r3
    e9de:	1d3b      	adds	r3, r7, #4
    e9e0:	0018      	movs	r0, r3
    e9e2:	4b1d      	ldr	r3, [pc, #116]	; (ea58 <_system_extint_init+0x8c>)
    e9e4:	4798      	blx	r3
    e9e6:	1d3b      	adds	r3, r7, #4
    e9e8:	2202      	movs	r2, #2
    e9ea:	701a      	strb	r2, [r3, #0]
    e9ec:	1d3b      	adds	r3, r7, #4
    e9ee:	0019      	movs	r1, r3
    e9f0:	2005      	movs	r0, #5
    e9f2:	4b1a      	ldr	r3, [pc, #104]	; (ea5c <_system_extint_init+0x90>)
    e9f4:	4798      	blx	r3
    e9f6:	2005      	movs	r0, #5
    e9f8:	4b19      	ldr	r3, [pc, #100]	; (ea60 <_system_extint_init+0x94>)
    e9fa:	4798      	blx	r3
    e9fc:	2300      	movs	r3, #0
    e9fe:	60fb      	str	r3, [r7, #12]
    ea00:	e018      	b.n	ea34 <_system_extint_init+0x68>
    ea02:	68fb      	ldr	r3, [r7, #12]
    ea04:	009b      	lsls	r3, r3, #2
    ea06:	2210      	movs	r2, #16
    ea08:	4694      	mov	ip, r2
    ea0a:	44bc      	add	ip, r7
    ea0c:	4463      	add	r3, ip
    ea0e:	3b08      	subs	r3, #8
    ea10:	681a      	ldr	r2, [r3, #0]
    ea12:	68fb      	ldr	r3, [r7, #12]
    ea14:	009b      	lsls	r3, r3, #2
    ea16:	2110      	movs	r1, #16
    ea18:	468c      	mov	ip, r1
    ea1a:	44bc      	add	ip, r7
    ea1c:	4463      	add	r3, ip
    ea1e:	3b08      	subs	r3, #8
    ea20:	681b      	ldr	r3, [r3, #0]
    ea22:	781b      	ldrb	r3, [r3, #0]
    ea24:	b2db      	uxtb	r3, r3
    ea26:	2101      	movs	r1, #1
    ea28:	430b      	orrs	r3, r1
    ea2a:	b2db      	uxtb	r3, r3
    ea2c:	7013      	strb	r3, [r2, #0]
    ea2e:	68fb      	ldr	r3, [r7, #12]
    ea30:	3301      	adds	r3, #1
    ea32:	60fb      	str	r3, [r7, #12]
    ea34:	68fb      	ldr	r3, [r7, #12]
    ea36:	2b00      	cmp	r3, #0
    ea38:	d0e3      	beq.n	ea02 <_system_extint_init+0x36>
    ea3a:	46c0      	nop			; (mov r8, r8)
    ea3c:	4b09      	ldr	r3, [pc, #36]	; (ea64 <_system_extint_init+0x98>)
    ea3e:	4798      	blx	r3
    ea40:	1e03      	subs	r3, r0, #0
    ea42:	d1fb      	bne.n	ea3c <_system_extint_init+0x70>
    ea44:	4b08      	ldr	r3, [pc, #32]	; (ea68 <_system_extint_init+0x9c>)
    ea46:	4798      	blx	r3
    ea48:	46c0      	nop			; (mov r8, r8)
    ea4a:	46bd      	mov	sp, r7
    ea4c:	b004      	add	sp, #16
    ea4e:	bd80      	pop	{r7, pc}
    ea50:	40001800 	.word	0x40001800
    ea54:	0000e8b5 	.word	0x0000e8b5
    ea58:	0000e89d 	.word	0x0000e89d
    ea5c:	00009079 	.word	0x00009079
    ea60:	000090bd 	.word	0x000090bd
    ea64:	0000e985 	.word	0x0000e985
    ea68:	0000ea6d 	.word	0x0000ea6d

0000ea6c <_extint_enable>:
    ea6c:	b580      	push	{r7, lr}
    ea6e:	b082      	sub	sp, #8
    ea70:	af00      	add	r7, sp, #0
    ea72:	4b15      	ldr	r3, [pc, #84]	; (eac8 <_extint_enable+0x5c>)
    ea74:	603b      	str	r3, [r7, #0]
    ea76:	2300      	movs	r3, #0
    ea78:	607b      	str	r3, [r7, #4]
    ea7a:	e018      	b.n	eaae <_extint_enable+0x42>
    ea7c:	687b      	ldr	r3, [r7, #4]
    ea7e:	009b      	lsls	r3, r3, #2
    ea80:	2208      	movs	r2, #8
    ea82:	4694      	mov	ip, r2
    ea84:	44bc      	add	ip, r7
    ea86:	4463      	add	r3, ip
    ea88:	3b08      	subs	r3, #8
    ea8a:	681a      	ldr	r2, [r3, #0]
    ea8c:	687b      	ldr	r3, [r7, #4]
    ea8e:	009b      	lsls	r3, r3, #2
    ea90:	2108      	movs	r1, #8
    ea92:	468c      	mov	ip, r1
    ea94:	44bc      	add	ip, r7
    ea96:	4463      	add	r3, ip
    ea98:	3b08      	subs	r3, #8
    ea9a:	681b      	ldr	r3, [r3, #0]
    ea9c:	781b      	ldrb	r3, [r3, #0]
    ea9e:	b2db      	uxtb	r3, r3
    eaa0:	2102      	movs	r1, #2
    eaa2:	430b      	orrs	r3, r1
    eaa4:	b2db      	uxtb	r3, r3
    eaa6:	7013      	strb	r3, [r2, #0]
    eaa8:	687b      	ldr	r3, [r7, #4]
    eaaa:	3301      	adds	r3, #1
    eaac:	607b      	str	r3, [r7, #4]
    eaae:	687b      	ldr	r3, [r7, #4]
    eab0:	2b00      	cmp	r3, #0
    eab2:	d0e3      	beq.n	ea7c <_extint_enable+0x10>
    eab4:	46c0      	nop			; (mov r8, r8)
    eab6:	4b05      	ldr	r3, [pc, #20]	; (eacc <_extint_enable+0x60>)
    eab8:	4798      	blx	r3
    eaba:	1e03      	subs	r3, r0, #0
    eabc:	d1fb      	bne.n	eab6 <_extint_enable+0x4a>
    eabe:	46c0      	nop			; (mov r8, r8)
    eac0:	46bd      	mov	sp, r7
    eac2:	b002      	add	sp, #8
    eac4:	bd80      	pop	{r7, pc}
    eac6:	46c0      	nop			; (mov r8, r8)
    eac8:	40001800 	.word	0x40001800
    eacc:	0000e985 	.word	0x0000e985

0000ead0 <extint_chan_set_config>:
    ead0:	b580      	push	{r7, lr}
    ead2:	b086      	sub	sp, #24
    ead4:	af00      	add	r7, sp, #0
    ead6:	0002      	movs	r2, r0
    ead8:	6039      	str	r1, [r7, #0]
    eada:	1dfb      	adds	r3, r7, #7
    eadc:	701a      	strb	r2, [r3, #0]
    eade:	2308      	movs	r3, #8
    eae0:	18fb      	adds	r3, r7, r3
    eae2:	0018      	movs	r0, r3
    eae4:	4b36      	ldr	r3, [pc, #216]	; (ebc0 <extint_chan_set_config+0xf0>)
    eae6:	4798      	blx	r3
    eae8:	683b      	ldr	r3, [r7, #0]
    eaea:	685b      	ldr	r3, [r3, #4]
    eaec:	b2da      	uxtb	r2, r3
    eaee:	2308      	movs	r3, #8
    eaf0:	18fb      	adds	r3, r7, r3
    eaf2:	701a      	strb	r2, [r3, #0]
    eaf4:	2308      	movs	r3, #8
    eaf6:	18fb      	adds	r3, r7, r3
    eaf8:	2200      	movs	r2, #0
    eafa:	705a      	strb	r2, [r3, #1]
    eafc:	683b      	ldr	r3, [r7, #0]
    eafe:	7a1a      	ldrb	r2, [r3, #8]
    eb00:	2308      	movs	r3, #8
    eb02:	18fb      	adds	r3, r7, r3
    eb04:	709a      	strb	r2, [r3, #2]
    eb06:	683b      	ldr	r3, [r7, #0]
    eb08:	681b      	ldr	r3, [r3, #0]
    eb0a:	b2db      	uxtb	r3, r3
    eb0c:	2208      	movs	r2, #8
    eb0e:	18ba      	adds	r2, r7, r2
    eb10:	0011      	movs	r1, r2
    eb12:	0018      	movs	r0, r3
    eb14:	4b2b      	ldr	r3, [pc, #172]	; (ebc4 <extint_chan_set_config+0xf4>)
    eb16:	4798      	blx	r3
    eb18:	1dfb      	adds	r3, r7, #7
    eb1a:	781b      	ldrb	r3, [r3, #0]
    eb1c:	0018      	movs	r0, r3
    eb1e:	4b2a      	ldr	r3, [pc, #168]	; (ebc8 <extint_chan_set_config+0xf8>)
    eb20:	4798      	blx	r3
    eb22:	0003      	movs	r3, r0
    eb24:	613b      	str	r3, [r7, #16]
    eb26:	1dfb      	adds	r3, r7, #7
    eb28:	781b      	ldrb	r3, [r3, #0]
    eb2a:	2207      	movs	r2, #7
    eb2c:	4013      	ands	r3, r2
    eb2e:	009b      	lsls	r3, r3, #2
    eb30:	60fb      	str	r3, [r7, #12]
    eb32:	683b      	ldr	r3, [r7, #0]
    eb34:	7adb      	ldrb	r3, [r3, #11]
    eb36:	617b      	str	r3, [r7, #20]
    eb38:	683b      	ldr	r3, [r7, #0]
    eb3a:	7a9b      	ldrb	r3, [r3, #10]
    eb3c:	2b00      	cmp	r3, #0
    eb3e:	d003      	beq.n	eb48 <extint_chan_set_config+0x78>
    eb40:	697b      	ldr	r3, [r7, #20]
    eb42:	2208      	movs	r2, #8
    eb44:	4313      	orrs	r3, r2
    eb46:	617b      	str	r3, [r7, #20]
    eb48:	1dfb      	adds	r3, r7, #7
    eb4a:	781b      	ldrb	r3, [r3, #0]
    eb4c:	08db      	lsrs	r3, r3, #3
    eb4e:	b2db      	uxtb	r3, r3
    eb50:	0018      	movs	r0, r3
    eb52:	1dfb      	adds	r3, r7, #7
    eb54:	781b      	ldrb	r3, [r3, #0]
    eb56:	08db      	lsrs	r3, r3, #3
    eb58:	b2db      	uxtb	r3, r3
    eb5a:	001a      	movs	r2, r3
    eb5c:	693b      	ldr	r3, [r7, #16]
    eb5e:	3206      	adds	r2, #6
    eb60:	0092      	lsls	r2, r2, #2
    eb62:	58d3      	ldr	r3, [r2, r3]
    eb64:	210f      	movs	r1, #15
    eb66:	68fa      	ldr	r2, [r7, #12]
    eb68:	4091      	lsls	r1, r2
    eb6a:	000a      	movs	r2, r1
    eb6c:	43d2      	mvns	r2, r2
    eb6e:	401a      	ands	r2, r3
    eb70:	6979      	ldr	r1, [r7, #20]
    eb72:	68fb      	ldr	r3, [r7, #12]
    eb74:	4099      	lsls	r1, r3
    eb76:	000b      	movs	r3, r1
    eb78:	431a      	orrs	r2, r3
    eb7a:	0011      	movs	r1, r2
    eb7c:	693b      	ldr	r3, [r7, #16]
    eb7e:	1d82      	adds	r2, r0, #6
    eb80:	0092      	lsls	r2, r2, #2
    eb82:	50d1      	str	r1, [r2, r3]
    eb84:	683b      	ldr	r3, [r7, #0]
    eb86:	7a5b      	ldrb	r3, [r3, #9]
    eb88:	2b00      	cmp	r3, #0
    eb8a:	d00a      	beq.n	eba2 <extint_chan_set_config+0xd2>
    eb8c:	693b      	ldr	r3, [r7, #16]
    eb8e:	695a      	ldr	r2, [r3, #20]
    eb90:	1dfb      	adds	r3, r7, #7
    eb92:	781b      	ldrb	r3, [r3, #0]
    eb94:	2101      	movs	r1, #1
    eb96:	4099      	lsls	r1, r3
    eb98:	000b      	movs	r3, r1
    eb9a:	431a      	orrs	r2, r3
    eb9c:	693b      	ldr	r3, [r7, #16]
    eb9e:	615a      	str	r2, [r3, #20]
    eba0:	e00a      	b.n	ebb8 <extint_chan_set_config+0xe8>
    eba2:	693b      	ldr	r3, [r7, #16]
    eba4:	695b      	ldr	r3, [r3, #20]
    eba6:	1dfa      	adds	r2, r7, #7
    eba8:	7812      	ldrb	r2, [r2, #0]
    ebaa:	2101      	movs	r1, #1
    ebac:	4091      	lsls	r1, r2
    ebae:	000a      	movs	r2, r1
    ebb0:	43d2      	mvns	r2, r2
    ebb2:	401a      	ands	r2, r3
    ebb4:	693b      	ldr	r3, [r7, #16]
    ebb6:	615a      	str	r2, [r3, #20]
    ebb8:	46c0      	nop			; (mov r8, r8)
    ebba:	46bd      	mov	sp, r7
    ebbc:	b006      	add	sp, #24
    ebbe:	bd80      	pop	{r7, pc}
    ebc0:	0000e911 	.word	0x0000e911
    ebc4:	000093ad 	.word	0x000093ad
    ebc8:	0000e939 	.word	0x0000e939

0000ebcc <_usb_host_interrupt_handler>:
    ebcc:	b580      	push	{r7, lr}
    ebce:	b082      	sub	sp, #8
    ebd0:	af00      	add	r7, sp, #0
    ebd2:	4bc0      	ldr	r3, [pc, #768]	; (eed4 <_usb_host_interrupt_handler+0x308>)
    ebd4:	681b      	ldr	r3, [r3, #0]
    ebd6:	681b      	ldr	r3, [r3, #0]
    ebd8:	8c1b      	ldrh	r3, [r3, #32]
    ebda:	b29b      	uxth	r3, r3
    ebdc:	2b00      	cmp	r3, #0
    ebde:	d00a      	beq.n	ebf6 <_usb_host_interrupt_handler+0x2a>
    ebe0:	4bbc      	ldr	r3, [pc, #752]	; (eed4 <_usb_host_interrupt_handler+0x308>)
    ebe2:	681b      	ldr	r3, [r3, #0]
    ebe4:	681b      	ldr	r3, [r3, #0]
    ebe6:	8c1b      	ldrh	r3, [r3, #32]
    ebe8:	b29b      	uxth	r3, r3
    ebea:	001a      	movs	r2, r3
    ebec:	4bba      	ldr	r3, [pc, #744]	; (eed8 <_usb_host_interrupt_handler+0x30c>)
    ebee:	0010      	movs	r0, r2
    ebf0:	4798      	blx	r3
    ebf2:	0003      	movs	r3, r0
    ebf4:	e000      	b.n	ebf8 <_usb_host_interrupt_handler+0x2c>
    ebf6:	2320      	movs	r3, #32
    ebf8:	607b      	str	r3, [r7, #4]
    ebfa:	687b      	ldr	r3, [r7, #4]
    ebfc:	2b1f      	cmp	r3, #31
    ebfe:	d900      	bls.n	ec02 <_usb_host_interrupt_handler+0x36>
    ec00:	e174      	b.n	eeec <_usb_host_interrupt_handler+0x320>
    ec02:	4bb4      	ldr	r3, [pc, #720]	; (eed4 <_usb_host_interrupt_handler+0x308>)
    ec04:	681b      	ldr	r3, [r3, #0]
    ec06:	681a      	ldr	r2, [r3, #0]
    ec08:	687b      	ldr	r3, [r7, #4]
    ec0a:	3308      	adds	r3, #8
    ec0c:	015b      	lsls	r3, r3, #5
    ec0e:	18d3      	adds	r3, r2, r3
    ec10:	3307      	adds	r3, #7
    ec12:	781b      	ldrb	r3, [r3, #0]
    ec14:	b2db      	uxtb	r3, r3
    ec16:	603b      	str	r3, [r7, #0]
    ec18:	683b      	ldr	r3, [r7, #0]
    ec1a:	2203      	movs	r2, #3
    ec1c:	4013      	ands	r3, r2
    ec1e:	d100      	bne.n	ec22 <_usb_host_interrupt_handler+0x56>
    ec20:	e088      	b.n	ed34 <_usb_host_interrupt_handler+0x168>
    ec22:	2201      	movs	r2, #1
    ec24:	687b      	ldr	r3, [r7, #4]
    ec26:	409a      	lsls	r2, r3
    ec28:	0013      	movs	r3, r2
    ec2a:	43db      	mvns	r3, r3
    ec2c:	001a      	movs	r2, r3
    ec2e:	4bab      	ldr	r3, [pc, #684]	; (eedc <_usb_host_interrupt_handler+0x310>)
    ec30:	681b      	ldr	r3, [r3, #0]
    ec32:	401a      	ands	r2, r3
    ec34:	4ba9      	ldr	r3, [pc, #676]	; (eedc <_usb_host_interrupt_handler+0x310>)
    ec36:	601a      	str	r2, [r3, #0]
    ec38:	4ba6      	ldr	r3, [pc, #664]	; (eed4 <_usb_host_interrupt_handler+0x308>)
    ec3a:	681b      	ldr	r3, [r3, #0]
    ec3c:	681a      	ldr	r2, [r3, #0]
    ec3e:	687b      	ldr	r3, [r7, #4]
    ec40:	3308      	adds	r3, #8
    ec42:	015b      	lsls	r3, r3, #5
    ec44:	18d3      	adds	r3, r2, r3
    ec46:	3307      	adds	r3, #7
    ec48:	2203      	movs	r2, #3
    ec4a:	701a      	strb	r2, [r3, #0]
    ec4c:	4ba1      	ldr	r3, [pc, #644]	; (eed4 <_usb_host_interrupt_handler+0x308>)
    ec4e:	681a      	ldr	r2, [r3, #0]
    ec50:	21ae      	movs	r1, #174	; 0xae
    ec52:	687b      	ldr	r3, [r7, #4]
    ec54:	18d3      	adds	r3, r2, r3
    ec56:	185b      	adds	r3, r3, r1
    ec58:	781b      	ldrb	r3, [r3, #0]
    ec5a:	001a      	movs	r2, r3
    ec5c:	2301      	movs	r3, #1
    ec5e:	4013      	ands	r3, r2
    ec60:	d068      	beq.n	ed34 <_usb_host_interrupt_handler+0x168>
    ec62:	687b      	ldr	r3, [r7, #4]
    ec64:	b2da      	uxtb	r2, r3
    ec66:	4b9e      	ldr	r3, [pc, #632]	; (eee0 <_usb_host_interrupt_handler+0x314>)
    ec68:	701a      	strb	r2, [r3, #0]
    ec6a:	4b9a      	ldr	r3, [pc, #616]	; (eed4 <_usb_host_interrupt_handler+0x308>)
    ec6c:	681b      	ldr	r3, [r3, #0]
    ec6e:	681b      	ldr	r3, [r3, #0]
    ec70:	687a      	ldr	r2, [r7, #4]
    ec72:	3208      	adds	r2, #8
    ec74:	0152      	lsls	r2, r2, #5
    ec76:	5cd3      	ldrb	r3, [r2, r3]
    ec78:	079b      	lsls	r3, r3, #30
    ec7a:	0f9b      	lsrs	r3, r3, #30
    ec7c:	b2db      	uxtb	r3, r3
    ec7e:	2b01      	cmp	r3, #1
    ec80:	d11e      	bne.n	ecc0 <_usb_host_interrupt_handler+0xf4>
    ec82:	4a98      	ldr	r2, [pc, #608]	; (eee4 <_usb_host_interrupt_handler+0x318>)
    ec84:	687b      	ldr	r3, [r7, #4]
    ec86:	015b      	lsls	r3, r3, #5
    ec88:	18d3      	adds	r3, r2, r3
    ec8a:	685b      	ldr	r3, [r3, #4]
    ec8c:	049b      	lsls	r3, r3, #18
    ec8e:	0c9b      	lsrs	r3, r3, #18
    ec90:	b29b      	uxth	r3, r3
    ec92:	001a      	movs	r2, r3
    ec94:	4b92      	ldr	r3, [pc, #584]	; (eee0 <_usb_host_interrupt_handler+0x314>)
    ec96:	805a      	strh	r2, [r3, #2]
    ec98:	4a92      	ldr	r2, [pc, #584]	; (eee4 <_usb_host_interrupt_handler+0x318>)
    ec9a:	687b      	ldr	r3, [r7, #4]
    ec9c:	015b      	lsls	r3, r3, #5
    ec9e:	18d3      	adds	r3, r2, r3
    eca0:	685b      	ldr	r3, [r3, #4]
    eca2:	011b      	lsls	r3, r3, #4
    eca4:	0c9b      	lsrs	r3, r3, #18
    eca6:	b29b      	uxth	r3, r3
    eca8:	001a      	movs	r2, r3
    ecaa:	4b8d      	ldr	r3, [pc, #564]	; (eee0 <_usb_host_interrupt_handler+0x314>)
    ecac:	809a      	strh	r2, [r3, #4]
    ecae:	4a8d      	ldr	r2, [pc, #564]	; (eee4 <_usb_host_interrupt_handler+0x318>)
    ecb0:	687b      	ldr	r3, [r7, #4]
    ecb2:	015b      	lsls	r3, r3, #5
    ecb4:	18d3      	adds	r3, r2, r3
    ecb6:	685a      	ldr	r2, [r3, #4]
    ecb8:	0b92      	lsrs	r2, r2, #14
    ecba:	0392      	lsls	r2, r2, #14
    ecbc:	605a      	str	r2, [r3, #4]
    ecbe:	e02c      	b.n	ed1a <_usb_host_interrupt_handler+0x14e>
    ecc0:	4a88      	ldr	r2, [pc, #544]	; (eee4 <_usb_host_interrupt_handler+0x318>)
    ecc2:	687b      	ldr	r3, [r7, #4]
    ecc4:	015b      	lsls	r3, r3, #5
    ecc6:	18d3      	adds	r3, r2, r3
    ecc8:	685b      	ldr	r3, [r3, #4]
    ecca:	011b      	lsls	r3, r3, #4
    eccc:	0c9b      	lsrs	r3, r3, #18
    ecce:	b29b      	uxth	r3, r3
    ecd0:	001a      	movs	r2, r3
    ecd2:	4b83      	ldr	r3, [pc, #524]	; (eee0 <_usb_host_interrupt_handler+0x314>)
    ecd4:	805a      	strh	r2, [r3, #2]
    ecd6:	4a83      	ldr	r2, [pc, #524]	; (eee4 <_usb_host_interrupt_handler+0x318>)
    ecd8:	687b      	ldr	r3, [r7, #4]
    ecda:	015b      	lsls	r3, r3, #5
    ecdc:	18d3      	adds	r3, r2, r3
    ecde:	685b      	ldr	r3, [r3, #4]
    ece0:	049b      	lsls	r3, r3, #18
    ece2:	0c9b      	lsrs	r3, r3, #18
    ece4:	b29b      	uxth	r3, r3
    ece6:	001a      	movs	r2, r3
    ece8:	4b7d      	ldr	r3, [pc, #500]	; (eee0 <_usb_host_interrupt_handler+0x314>)
    ecea:	809a      	strh	r2, [r3, #4]
    ecec:	4a7d      	ldr	r2, [pc, #500]	; (eee4 <_usb_host_interrupt_handler+0x318>)
    ecee:	687b      	ldr	r3, [r7, #4]
    ecf0:	015b      	lsls	r3, r3, #5
    ecf2:	18d3      	adds	r3, r2, r3
    ecf4:	685a      	ldr	r2, [r3, #4]
    ecf6:	497c      	ldr	r1, [pc, #496]	; (eee8 <_usb_host_interrupt_handler+0x31c>)
    ecf8:	400a      	ands	r2, r1
    ecfa:	605a      	str	r2, [r3, #4]
    ecfc:	4b78      	ldr	r3, [pc, #480]	; (eee0 <_usb_host_interrupt_handler+0x314>)
    ecfe:	885b      	ldrh	r3, [r3, #2]
    ed00:	2b00      	cmp	r3, #0
    ed02:	d10a      	bne.n	ed1a <_usb_host_interrupt_handler+0x14e>
    ed04:	4a77      	ldr	r2, [pc, #476]	; (eee4 <_usb_host_interrupt_handler+0x318>)
    ed06:	687b      	ldr	r3, [r7, #4]
    ed08:	015b      	lsls	r3, r3, #5
    ed0a:	18d3      	adds	r3, r2, r3
    ed0c:	685b      	ldr	r3, [r3, #4]
    ed0e:	049b      	lsls	r3, r3, #18
    ed10:	0c9b      	lsrs	r3, r3, #18
    ed12:	b29b      	uxth	r3, r3
    ed14:	001a      	movs	r2, r3
    ed16:	4b72      	ldr	r3, [pc, #456]	; (eee0 <_usb_host_interrupt_handler+0x314>)
    ed18:	805a      	strh	r2, [r3, #2]
    ed1a:	4b6e      	ldr	r3, [pc, #440]	; (eed4 <_usb_host_interrupt_handler+0x308>)
    ed1c:	681a      	ldr	r2, [r3, #0]
    ed1e:	687b      	ldr	r3, [r7, #4]
    ed20:	3302      	adds	r3, #2
    ed22:	011b      	lsls	r3, r3, #4
    ed24:	18d3      	adds	r3, r2, r3
    ed26:	3304      	adds	r3, #4
    ed28:	681a      	ldr	r2, [r3, #0]
    ed2a:	4b6a      	ldr	r3, [pc, #424]	; (eed4 <_usb_host_interrupt_handler+0x308>)
    ed2c:	681b      	ldr	r3, [r3, #0]
    ed2e:	496c      	ldr	r1, [pc, #432]	; (eee0 <_usb_host_interrupt_handler+0x314>)
    ed30:	0018      	movs	r0, r3
    ed32:	4790      	blx	r2
    ed34:	683b      	ldr	r3, [r7, #0]
    ed36:	2204      	movs	r2, #4
    ed38:	4013      	ands	r3, r2
    ed3a:	d014      	beq.n	ed66 <_usb_host_interrupt_handler+0x19a>
    ed3c:	2201      	movs	r2, #1
    ed3e:	687b      	ldr	r3, [r7, #4]
    ed40:	409a      	lsls	r2, r3
    ed42:	0013      	movs	r3, r2
    ed44:	43db      	mvns	r3, r3
    ed46:	001a      	movs	r2, r3
    ed48:	4b64      	ldr	r3, [pc, #400]	; (eedc <_usb_host_interrupt_handler+0x310>)
    ed4a:	681b      	ldr	r3, [r3, #0]
    ed4c:	401a      	ands	r2, r3
    ed4e:	4b63      	ldr	r3, [pc, #396]	; (eedc <_usb_host_interrupt_handler+0x310>)
    ed50:	601a      	str	r2, [r3, #0]
    ed52:	4b60      	ldr	r3, [pc, #384]	; (eed4 <_usb_host_interrupt_handler+0x308>)
    ed54:	681b      	ldr	r3, [r3, #0]
    ed56:	681a      	ldr	r2, [r3, #0]
    ed58:	687b      	ldr	r3, [r7, #4]
    ed5a:	3308      	adds	r3, #8
    ed5c:	015b      	lsls	r3, r3, #5
    ed5e:	18d3      	adds	r3, r2, r3
    ed60:	3307      	adds	r3, #7
    ed62:	2204      	movs	r2, #4
    ed64:	701a      	strb	r2, [r3, #0]
    ed66:	683b      	ldr	r3, [r7, #0]
    ed68:	2208      	movs	r2, #8
    ed6a:	4013      	ands	r3, r2
    ed6c:	d03c      	beq.n	ede8 <_usb_host_interrupt_handler+0x21c>
    ed6e:	2201      	movs	r2, #1
    ed70:	687b      	ldr	r3, [r7, #4]
    ed72:	409a      	lsls	r2, r3
    ed74:	0013      	movs	r3, r2
    ed76:	43db      	mvns	r3, r3
    ed78:	001a      	movs	r2, r3
    ed7a:	4b58      	ldr	r3, [pc, #352]	; (eedc <_usb_host_interrupt_handler+0x310>)
    ed7c:	681b      	ldr	r3, [r3, #0]
    ed7e:	401a      	ands	r2, r3
    ed80:	4b56      	ldr	r3, [pc, #344]	; (eedc <_usb_host_interrupt_handler+0x310>)
    ed82:	601a      	str	r2, [r3, #0]
    ed84:	4b53      	ldr	r3, [pc, #332]	; (eed4 <_usb_host_interrupt_handler+0x308>)
    ed86:	681b      	ldr	r3, [r3, #0]
    ed88:	681a      	ldr	r2, [r3, #0]
    ed8a:	687b      	ldr	r3, [r7, #4]
    ed8c:	3308      	adds	r3, #8
    ed8e:	015b      	lsls	r3, r3, #5
    ed90:	18d3      	adds	r3, r2, r3
    ed92:	3307      	adds	r3, #7
    ed94:	2208      	movs	r2, #8
    ed96:	701a      	strb	r2, [r3, #0]
    ed98:	4b4e      	ldr	r3, [pc, #312]	; (eed4 <_usb_host_interrupt_handler+0x308>)
    ed9a:	681a      	ldr	r2, [r3, #0]
    ed9c:	21ae      	movs	r1, #174	; 0xae
    ed9e:	687b      	ldr	r3, [r7, #4]
    eda0:	18d3      	adds	r3, r2, r3
    eda2:	185b      	adds	r3, r3, r1
    eda4:	781b      	ldrb	r3, [r3, #0]
    eda6:	001a      	movs	r2, r3
    eda8:	2302      	movs	r3, #2
    edaa:	4013      	ands	r3, r2
    edac:	d01c      	beq.n	ede8 <_usb_host_interrupt_handler+0x21c>
    edae:	687b      	ldr	r3, [r7, #4]
    edb0:	b2da      	uxtb	r2, r3
    edb2:	4b4b      	ldr	r3, [pc, #300]	; (eee0 <_usb_host_interrupt_handler+0x314>)
    edb4:	701a      	strb	r2, [r3, #0]
    edb6:	4a4b      	ldr	r2, [pc, #300]	; (eee4 <_usb_host_interrupt_handler+0x318>)
    edb8:	687b      	ldr	r3, [r7, #4]
    edba:	015b      	lsls	r3, r3, #5
    edbc:	18d3      	adds	r3, r2, r3
    edbe:	330e      	adds	r3, #14
    edc0:	881b      	ldrh	r3, [r3, #0]
    edc2:	b29b      	uxth	r3, r3
    edc4:	b2db      	uxtb	r3, r3
    edc6:	221f      	movs	r2, #31
    edc8:	4013      	ands	r3, r2
    edca:	b2da      	uxtb	r2, r3
    edcc:	4b44      	ldr	r3, [pc, #272]	; (eee0 <_usb_host_interrupt_handler+0x314>)
    edce:	705a      	strb	r2, [r3, #1]
    edd0:	4b40      	ldr	r3, [pc, #256]	; (eed4 <_usb_host_interrupt_handler+0x308>)
    edd2:	681a      	ldr	r2, [r3, #0]
    edd4:	687b      	ldr	r3, [r7, #4]
    edd6:	011b      	lsls	r3, r3, #4
    edd8:	18d3      	adds	r3, r2, r3
    edda:	3328      	adds	r3, #40	; 0x28
    eddc:	681a      	ldr	r2, [r3, #0]
    edde:	4b3d      	ldr	r3, [pc, #244]	; (eed4 <_usb_host_interrupt_handler+0x308>)
    ede0:	681b      	ldr	r3, [r3, #0]
    ede2:	493f      	ldr	r1, [pc, #252]	; (eee0 <_usb_host_interrupt_handler+0x314>)
    ede4:	0018      	movs	r0, r3
    ede6:	4790      	blx	r2
    ede8:	683b      	ldr	r3, [r7, #0]
    edea:	2210      	movs	r2, #16
    edec:	4013      	ands	r3, r2
    edee:	d03a      	beq.n	ee66 <_usb_host_interrupt_handler+0x29a>
    edf0:	2201      	movs	r2, #1
    edf2:	687b      	ldr	r3, [r7, #4]
    edf4:	409a      	lsls	r2, r3
    edf6:	0013      	movs	r3, r2
    edf8:	43db      	mvns	r3, r3
    edfa:	001a      	movs	r2, r3
    edfc:	4b37      	ldr	r3, [pc, #220]	; (eedc <_usb_host_interrupt_handler+0x310>)
    edfe:	681b      	ldr	r3, [r3, #0]
    ee00:	401a      	ands	r2, r3
    ee02:	4b36      	ldr	r3, [pc, #216]	; (eedc <_usb_host_interrupt_handler+0x310>)
    ee04:	601a      	str	r2, [r3, #0]
    ee06:	4b33      	ldr	r3, [pc, #204]	; (eed4 <_usb_host_interrupt_handler+0x308>)
    ee08:	681b      	ldr	r3, [r3, #0]
    ee0a:	681a      	ldr	r2, [r3, #0]
    ee0c:	687b      	ldr	r3, [r7, #4]
    ee0e:	3308      	adds	r3, #8
    ee10:	015b      	lsls	r3, r3, #5
    ee12:	18d3      	adds	r3, r2, r3
    ee14:	3307      	adds	r3, #7
    ee16:	2210      	movs	r2, #16
    ee18:	701a      	strb	r2, [r3, #0]
    ee1a:	4b2e      	ldr	r3, [pc, #184]	; (eed4 <_usb_host_interrupt_handler+0x308>)
    ee1c:	681a      	ldr	r2, [r3, #0]
    ee1e:	21ae      	movs	r1, #174	; 0xae
    ee20:	687b      	ldr	r3, [r7, #4]
    ee22:	18d3      	adds	r3, r2, r3
    ee24:	185b      	adds	r3, r3, r1
    ee26:	781b      	ldrb	r3, [r3, #0]
    ee28:	001a      	movs	r2, r3
    ee2a:	2304      	movs	r3, #4
    ee2c:	4013      	ands	r3, r2
    ee2e:	d01a      	beq.n	ee66 <_usb_host_interrupt_handler+0x29a>
    ee30:	687b      	ldr	r3, [r7, #4]
    ee32:	b2da      	uxtb	r2, r3
    ee34:	4b2a      	ldr	r3, [pc, #168]	; (eee0 <_usb_host_interrupt_handler+0x314>)
    ee36:	701a      	strb	r2, [r3, #0]
    ee38:	4a2a      	ldr	r2, [pc, #168]	; (eee4 <_usb_host_interrupt_handler+0x318>)
    ee3a:	687b      	ldr	r3, [r7, #4]
    ee3c:	015b      	lsls	r3, r3, #5
    ee3e:	18d3      	adds	r3, r2, r3
    ee40:	685b      	ldr	r3, [r3, #4]
    ee42:	011b      	lsls	r3, r3, #4
    ee44:	0c9b      	lsrs	r3, r3, #18
    ee46:	b29b      	uxth	r3, r3
    ee48:	001a      	movs	r2, r3
    ee4a:	4b25      	ldr	r3, [pc, #148]	; (eee0 <_usb_host_interrupt_handler+0x314>)
    ee4c:	805a      	strh	r2, [r3, #2]
    ee4e:	4b21      	ldr	r3, [pc, #132]	; (eed4 <_usb_host_interrupt_handler+0x308>)
    ee50:	681a      	ldr	r2, [r3, #0]
    ee52:	687b      	ldr	r3, [r7, #4]
    ee54:	011b      	lsls	r3, r3, #4
    ee56:	18d3      	adds	r3, r2, r3
    ee58:	332c      	adds	r3, #44	; 0x2c
    ee5a:	681a      	ldr	r2, [r3, #0]
    ee5c:	4b1d      	ldr	r3, [pc, #116]	; (eed4 <_usb_host_interrupt_handler+0x308>)
    ee5e:	681b      	ldr	r3, [r3, #0]
    ee60:	2100      	movs	r1, #0
    ee62:	0018      	movs	r0, r3
    ee64:	4790      	blx	r2
    ee66:	683b      	ldr	r3, [r7, #0]
    ee68:	2220      	movs	r2, #32
    ee6a:	4013      	ands	r3, r2
    ee6c:	d100      	bne.n	ee70 <_usb_host_interrupt_handler+0x2a4>
    ee6e:	e112      	b.n	f096 <_usb_host_interrupt_handler+0x4ca>
    ee70:	2201      	movs	r2, #1
    ee72:	687b      	ldr	r3, [r7, #4]
    ee74:	409a      	lsls	r2, r3
    ee76:	0013      	movs	r3, r2
    ee78:	43db      	mvns	r3, r3
    ee7a:	001a      	movs	r2, r3
    ee7c:	4b17      	ldr	r3, [pc, #92]	; (eedc <_usb_host_interrupt_handler+0x310>)
    ee7e:	681b      	ldr	r3, [r3, #0]
    ee80:	401a      	ands	r2, r3
    ee82:	4b16      	ldr	r3, [pc, #88]	; (eedc <_usb_host_interrupt_handler+0x310>)
    ee84:	601a      	str	r2, [r3, #0]
    ee86:	4b13      	ldr	r3, [pc, #76]	; (eed4 <_usb_host_interrupt_handler+0x308>)
    ee88:	681b      	ldr	r3, [r3, #0]
    ee8a:	681a      	ldr	r2, [r3, #0]
    ee8c:	687b      	ldr	r3, [r7, #4]
    ee8e:	3308      	adds	r3, #8
    ee90:	015b      	lsls	r3, r3, #5
    ee92:	18d3      	adds	r3, r2, r3
    ee94:	3307      	adds	r3, #7
    ee96:	2220      	movs	r2, #32
    ee98:	701a      	strb	r2, [r3, #0]
    ee9a:	4b0e      	ldr	r3, [pc, #56]	; (eed4 <_usb_host_interrupt_handler+0x308>)
    ee9c:	681a      	ldr	r2, [r3, #0]
    ee9e:	21ae      	movs	r1, #174	; 0xae
    eea0:	687b      	ldr	r3, [r7, #4]
    eea2:	18d3      	adds	r3, r2, r3
    eea4:	185b      	adds	r3, r3, r1
    eea6:	781b      	ldrb	r3, [r3, #0]
    eea8:	001a      	movs	r2, r3
    eeaa:	2308      	movs	r3, #8
    eeac:	4013      	ands	r3, r2
    eeae:	d100      	bne.n	eeb2 <_usb_host_interrupt_handler+0x2e6>
    eeb0:	e0f1      	b.n	f096 <_usb_host_interrupt_handler+0x4ca>
    eeb2:	687b      	ldr	r3, [r7, #4]
    eeb4:	b2da      	uxtb	r2, r3
    eeb6:	4b0a      	ldr	r3, [pc, #40]	; (eee0 <_usb_host_interrupt_handler+0x314>)
    eeb8:	701a      	strb	r2, [r3, #0]
    eeba:	4b06      	ldr	r3, [pc, #24]	; (eed4 <_usb_host_interrupt_handler+0x308>)
    eebc:	681a      	ldr	r2, [r3, #0]
    eebe:	687b      	ldr	r3, [r7, #4]
    eec0:	011b      	lsls	r3, r3, #4
    eec2:	18d3      	adds	r3, r2, r3
    eec4:	3330      	adds	r3, #48	; 0x30
    eec6:	681a      	ldr	r2, [r3, #0]
    eec8:	4b02      	ldr	r3, [pc, #8]	; (eed4 <_usb_host_interrupt_handler+0x308>)
    eeca:	681b      	ldr	r3, [r3, #0]
    eecc:	4904      	ldr	r1, [pc, #16]	; (eee0 <_usb_host_interrupt_handler+0x314>)
    eece:	0018      	movs	r0, r3
    eed0:	4790      	blx	r2
    eed2:	e0e0      	b.n	f096 <_usb_host_interrupt_handler+0x4ca>
    eed4:	20000714 	.word	0x20000714
    eed8:	0000fff5 	.word	0x0000fff5
    eedc:	2000072c 	.word	0x2000072c
    eee0:	20000718 	.word	0x20000718
    eee4:	20000d44 	.word	0x20000d44
    eee8:	f0003fff 	.word	0xf0003fff
    eeec:	4b6c      	ldr	r3, [pc, #432]	; (f0a0 <_usb_host_interrupt_handler+0x4d4>)
    eeee:	681b      	ldr	r3, [r3, #0]
    eef0:	681b      	ldr	r3, [r3, #0]
    eef2:	8b9b      	ldrh	r3, [r3, #28]
    eef4:	b29b      	uxth	r3, r3
    eef6:	603b      	str	r3, [r7, #0]
    eef8:	683b      	ldr	r3, [r7, #0]
    eefa:	2204      	movs	r2, #4
    eefc:	4013      	ands	r3, r2
    eefe:	d013      	beq.n	ef28 <_usb_host_interrupt_handler+0x35c>
    ef00:	4b67      	ldr	r3, [pc, #412]	; (f0a0 <_usb_host_interrupt_handler+0x4d4>)
    ef02:	681b      	ldr	r3, [r3, #0]
    ef04:	681b      	ldr	r3, [r3, #0]
    ef06:	2204      	movs	r2, #4
    ef08:	839a      	strh	r2, [r3, #28]
    ef0a:	4b65      	ldr	r3, [pc, #404]	; (f0a0 <_usb_host_interrupt_handler+0x4d4>)
    ef0c:	681b      	ldr	r3, [r3, #0]
    ef0e:	22a5      	movs	r2, #165	; 0xa5
    ef10:	5c9b      	ldrb	r3, [r3, r2]
    ef12:	001a      	movs	r2, r3
    ef14:	2301      	movs	r3, #1
    ef16:	4013      	ands	r3, r2
    ef18:	d006      	beq.n	ef28 <_usb_host_interrupt_handler+0x35c>
    ef1a:	4b61      	ldr	r3, [pc, #388]	; (f0a0 <_usb_host_interrupt_handler+0x4d4>)
    ef1c:	681b      	ldr	r3, [r3, #0]
    ef1e:	685a      	ldr	r2, [r3, #4]
    ef20:	4b5f      	ldr	r3, [pc, #380]	; (f0a0 <_usb_host_interrupt_handler+0x4d4>)
    ef22:	681b      	ldr	r3, [r3, #0]
    ef24:	0018      	movs	r0, r3
    ef26:	4790      	blx	r2
    ef28:	683b      	ldr	r3, [r7, #0]
    ef2a:	2208      	movs	r2, #8
    ef2c:	4013      	ands	r3, r2
    ef2e:	d016      	beq.n	ef5e <_usb_host_interrupt_handler+0x392>
    ef30:	4b5c      	ldr	r3, [pc, #368]	; (f0a4 <_usb_host_interrupt_handler+0x4d8>)
    ef32:	2200      	movs	r2, #0
    ef34:	601a      	str	r2, [r3, #0]
    ef36:	4b5a      	ldr	r3, [pc, #360]	; (f0a0 <_usb_host_interrupt_handler+0x4d4>)
    ef38:	681b      	ldr	r3, [r3, #0]
    ef3a:	681b      	ldr	r3, [r3, #0]
    ef3c:	2208      	movs	r2, #8
    ef3e:	839a      	strh	r2, [r3, #28]
    ef40:	4b57      	ldr	r3, [pc, #348]	; (f0a0 <_usb_host_interrupt_handler+0x4d4>)
    ef42:	681b      	ldr	r3, [r3, #0]
    ef44:	22a5      	movs	r2, #165	; 0xa5
    ef46:	5c9b      	ldrb	r3, [r3, r2]
    ef48:	001a      	movs	r2, r3
    ef4a:	2302      	movs	r3, #2
    ef4c:	4013      	ands	r3, r2
    ef4e:	d006      	beq.n	ef5e <_usb_host_interrupt_handler+0x392>
    ef50:	4b53      	ldr	r3, [pc, #332]	; (f0a0 <_usb_host_interrupt_handler+0x4d4>)
    ef52:	681b      	ldr	r3, [r3, #0]
    ef54:	689a      	ldr	r2, [r3, #8]
    ef56:	4b52      	ldr	r3, [pc, #328]	; (f0a0 <_usb_host_interrupt_handler+0x4d4>)
    ef58:	681b      	ldr	r3, [r3, #0]
    ef5a:	0018      	movs	r0, r3
    ef5c:	4790      	blx	r2
    ef5e:	683b      	ldr	r3, [r7, #0]
    ef60:	2240      	movs	r2, #64	; 0x40
    ef62:	4013      	ands	r3, r2
    ef64:	d013      	beq.n	ef8e <_usb_host_interrupt_handler+0x3c2>
    ef66:	4b4e      	ldr	r3, [pc, #312]	; (f0a0 <_usb_host_interrupt_handler+0x4d4>)
    ef68:	681b      	ldr	r3, [r3, #0]
    ef6a:	681b      	ldr	r3, [r3, #0]
    ef6c:	2240      	movs	r2, #64	; 0x40
    ef6e:	839a      	strh	r2, [r3, #28]
    ef70:	4b4b      	ldr	r3, [pc, #300]	; (f0a0 <_usb_host_interrupt_handler+0x4d4>)
    ef72:	681b      	ldr	r3, [r3, #0]
    ef74:	22a5      	movs	r2, #165	; 0xa5
    ef76:	5c9b      	ldrb	r3, [r3, r2]
    ef78:	001a      	movs	r2, r3
    ef7a:	2310      	movs	r3, #16
    ef7c:	4013      	ands	r3, r2
    ef7e:	d006      	beq.n	ef8e <_usb_host_interrupt_handler+0x3c2>
    ef80:	4b47      	ldr	r3, [pc, #284]	; (f0a0 <_usb_host_interrupt_handler+0x4d4>)
    ef82:	681b      	ldr	r3, [r3, #0]
    ef84:	695a      	ldr	r2, [r3, #20]
    ef86:	4b46      	ldr	r3, [pc, #280]	; (f0a0 <_usb_host_interrupt_handler+0x4d4>)
    ef88:	681b      	ldr	r3, [r3, #0]
    ef8a:	0018      	movs	r0, r3
    ef8c:	4790      	blx	r2
    ef8e:	683b      	ldr	r3, [r7, #0]
    ef90:	2220      	movs	r2, #32
    ef92:	4013      	ands	r3, r2
    ef94:	d013      	beq.n	efbe <_usb_host_interrupt_handler+0x3f2>
    ef96:	4b42      	ldr	r3, [pc, #264]	; (f0a0 <_usb_host_interrupt_handler+0x4d4>)
    ef98:	681b      	ldr	r3, [r3, #0]
    ef9a:	681b      	ldr	r3, [r3, #0]
    ef9c:	2220      	movs	r2, #32
    ef9e:	839a      	strh	r2, [r3, #28]
    efa0:	4b3f      	ldr	r3, [pc, #252]	; (f0a0 <_usb_host_interrupt_handler+0x4d4>)
    efa2:	681b      	ldr	r3, [r3, #0]
    efa4:	22a5      	movs	r2, #165	; 0xa5
    efa6:	5c9b      	ldrb	r3, [r3, r2]
    efa8:	001a      	movs	r2, r3
    efaa:	2308      	movs	r3, #8
    efac:	4013      	ands	r3, r2
    efae:	d006      	beq.n	efbe <_usb_host_interrupt_handler+0x3f2>
    efb0:	4b3b      	ldr	r3, [pc, #236]	; (f0a0 <_usb_host_interrupt_handler+0x4d4>)
    efb2:	681b      	ldr	r3, [r3, #0]
    efb4:	691a      	ldr	r2, [r3, #16]
    efb6:	4b3a      	ldr	r3, [pc, #232]	; (f0a0 <_usb_host_interrupt_handler+0x4d4>)
    efb8:	681b      	ldr	r3, [r3, #0]
    efba:	0018      	movs	r0, r3
    efbc:	4790      	blx	r2
    efbe:	683b      	ldr	r3, [r7, #0]
    efc0:	2210      	movs	r2, #16
    efc2:	4013      	ands	r3, r2
    efc4:	d013      	beq.n	efee <_usb_host_interrupt_handler+0x422>
    efc6:	4b36      	ldr	r3, [pc, #216]	; (f0a0 <_usb_host_interrupt_handler+0x4d4>)
    efc8:	681b      	ldr	r3, [r3, #0]
    efca:	681b      	ldr	r3, [r3, #0]
    efcc:	2210      	movs	r2, #16
    efce:	839a      	strh	r2, [r3, #28]
    efd0:	4b33      	ldr	r3, [pc, #204]	; (f0a0 <_usb_host_interrupt_handler+0x4d4>)
    efd2:	681b      	ldr	r3, [r3, #0]
    efd4:	22a5      	movs	r2, #165	; 0xa5
    efd6:	5c9b      	ldrb	r3, [r3, r2]
    efd8:	001a      	movs	r2, r3
    efda:	2304      	movs	r3, #4
    efdc:	4013      	ands	r3, r2
    efde:	d006      	beq.n	efee <_usb_host_interrupt_handler+0x422>
    efe0:	4b2f      	ldr	r3, [pc, #188]	; (f0a0 <_usb_host_interrupt_handler+0x4d4>)
    efe2:	681b      	ldr	r3, [r3, #0]
    efe4:	68da      	ldr	r2, [r3, #12]
    efe6:	4b2e      	ldr	r3, [pc, #184]	; (f0a0 <_usb_host_interrupt_handler+0x4d4>)
    efe8:	681b      	ldr	r3, [r3, #0]
    efea:	0018      	movs	r0, r3
    efec:	4790      	blx	r2
    efee:	683b      	ldr	r3, [r7, #0]
    eff0:	2280      	movs	r2, #128	; 0x80
    eff2:	4013      	ands	r3, r2
    eff4:	d016      	beq.n	f024 <_usb_host_interrupt_handler+0x458>
    eff6:	4b2b      	ldr	r3, [pc, #172]	; (f0a4 <_usb_host_interrupt_handler+0x4d8>)
    eff8:	2200      	movs	r2, #0
    effa:	601a      	str	r2, [r3, #0]
    effc:	4b28      	ldr	r3, [pc, #160]	; (f0a0 <_usb_host_interrupt_handler+0x4d4>)
    effe:	681b      	ldr	r3, [r3, #0]
    f000:	681b      	ldr	r3, [r3, #0]
    f002:	2280      	movs	r2, #128	; 0x80
    f004:	839a      	strh	r2, [r3, #28]
    f006:	4b26      	ldr	r3, [pc, #152]	; (f0a0 <_usb_host_interrupt_handler+0x4d4>)
    f008:	681b      	ldr	r3, [r3, #0]
    f00a:	22a5      	movs	r2, #165	; 0xa5
    f00c:	5c9b      	ldrb	r3, [r3, r2]
    f00e:	001a      	movs	r2, r3
    f010:	2320      	movs	r3, #32
    f012:	4013      	ands	r3, r2
    f014:	d006      	beq.n	f024 <_usb_host_interrupt_handler+0x458>
    f016:	4b22      	ldr	r3, [pc, #136]	; (f0a0 <_usb_host_interrupt_handler+0x4d4>)
    f018:	681b      	ldr	r3, [r3, #0]
    f01a:	699a      	ldr	r2, [r3, #24]
    f01c:	4b20      	ldr	r3, [pc, #128]	; (f0a0 <_usb_host_interrupt_handler+0x4d4>)
    f01e:	681b      	ldr	r3, [r3, #0]
    f020:	0018      	movs	r0, r3
    f022:	4790      	blx	r2
    f024:	683a      	ldr	r2, [r7, #0]
    f026:	2380      	movs	r3, #128	; 0x80
    f028:	005b      	lsls	r3, r3, #1
    f02a:	4013      	ands	r3, r2
    f02c:	d017      	beq.n	f05e <_usb_host_interrupt_handler+0x492>
    f02e:	4b1d      	ldr	r3, [pc, #116]	; (f0a4 <_usb_host_interrupt_handler+0x4d8>)
    f030:	2200      	movs	r2, #0
    f032:	601a      	str	r2, [r3, #0]
    f034:	4b1a      	ldr	r3, [pc, #104]	; (f0a0 <_usb_host_interrupt_handler+0x4d4>)
    f036:	681b      	ldr	r3, [r3, #0]
    f038:	681b      	ldr	r3, [r3, #0]
    f03a:	2280      	movs	r2, #128	; 0x80
    f03c:	0052      	lsls	r2, r2, #1
    f03e:	839a      	strh	r2, [r3, #28]
    f040:	4b17      	ldr	r3, [pc, #92]	; (f0a0 <_usb_host_interrupt_handler+0x4d4>)
    f042:	681b      	ldr	r3, [r3, #0]
    f044:	22a5      	movs	r2, #165	; 0xa5
    f046:	5c9b      	ldrb	r3, [r3, r2]
    f048:	001a      	movs	r2, r3
    f04a:	2340      	movs	r3, #64	; 0x40
    f04c:	4013      	ands	r3, r2
    f04e:	d006      	beq.n	f05e <_usb_host_interrupt_handler+0x492>
    f050:	4b13      	ldr	r3, [pc, #76]	; (f0a0 <_usb_host_interrupt_handler+0x4d4>)
    f052:	681b      	ldr	r3, [r3, #0]
    f054:	69da      	ldr	r2, [r3, #28]
    f056:	4b12      	ldr	r3, [pc, #72]	; (f0a0 <_usb_host_interrupt_handler+0x4d4>)
    f058:	681b      	ldr	r3, [r3, #0]
    f05a:	0018      	movs	r0, r3
    f05c:	4790      	blx	r2
    f05e:	683a      	ldr	r2, [r7, #0]
    f060:	2380      	movs	r3, #128	; 0x80
    f062:	009b      	lsls	r3, r3, #2
    f064:	4013      	ands	r3, r2
    f066:	d016      	beq.n	f096 <_usb_host_interrupt_handler+0x4ca>
    f068:	4b0e      	ldr	r3, [pc, #56]	; (f0a4 <_usb_host_interrupt_handler+0x4d8>)
    f06a:	2200      	movs	r2, #0
    f06c:	601a      	str	r2, [r3, #0]
    f06e:	4b0c      	ldr	r3, [pc, #48]	; (f0a0 <_usb_host_interrupt_handler+0x4d4>)
    f070:	681b      	ldr	r3, [r3, #0]
    f072:	681b      	ldr	r3, [r3, #0]
    f074:	2280      	movs	r2, #128	; 0x80
    f076:	0092      	lsls	r2, r2, #2
    f078:	839a      	strh	r2, [r3, #28]
    f07a:	4b09      	ldr	r3, [pc, #36]	; (f0a0 <_usb_host_interrupt_handler+0x4d4>)
    f07c:	681b      	ldr	r3, [r3, #0]
    f07e:	22a5      	movs	r2, #165	; 0xa5
    f080:	5c9b      	ldrb	r3, [r3, r2]
    f082:	b25b      	sxtb	r3, r3
    f084:	2b00      	cmp	r3, #0
    f086:	da06      	bge.n	f096 <_usb_host_interrupt_handler+0x4ca>
    f088:	4b05      	ldr	r3, [pc, #20]	; (f0a0 <_usb_host_interrupt_handler+0x4d4>)
    f08a:	681b      	ldr	r3, [r3, #0]
    f08c:	6a1a      	ldr	r2, [r3, #32]
    f08e:	4b04      	ldr	r3, [pc, #16]	; (f0a0 <_usb_host_interrupt_handler+0x4d4>)
    f090:	681b      	ldr	r3, [r3, #0]
    f092:	0018      	movs	r0, r3
    f094:	4790      	blx	r2
    f096:	46c0      	nop			; (mov r8, r8)
    f098:	46bd      	mov	sp, r7
    f09a:	b002      	add	sp, #8
    f09c:	bd80      	pop	{r7, pc}
    f09e:	46c0      	nop			; (mov r8, r8)
    f0a0:	20000714 	.word	0x20000714
    f0a4:	2000072c 	.word	0x2000072c

0000f0a8 <_usb_device_interrupt_handler>:
    f0a8:	b580      	push	{r7, lr}
    f0aa:	b084      	sub	sp, #16
    f0ac:	af00      	add	r7, sp, #0
    f0ae:	4bbd      	ldr	r3, [pc, #756]	; (f3a4 <_usb_device_interrupt_handler+0x2fc>)
    f0b0:	681b      	ldr	r3, [r3, #0]
    f0b2:	681a      	ldr	r2, [r3, #0]
    f0b4:	2308      	movs	r3, #8
    f0b6:	18fb      	adds	r3, r7, r3
    f0b8:	8c12      	ldrh	r2, [r2, #32]
    f0ba:	801a      	strh	r2, [r3, #0]
    f0bc:	2308      	movs	r3, #8
    f0be:	18fb      	adds	r3, r7, r3
    f0c0:	881b      	ldrh	r3, [r3, #0]
    f0c2:	2b00      	cmp	r3, #0
    f0c4:	d155      	bne.n	f172 <_usb_device_interrupt_handler+0xca>
    f0c6:	4bb7      	ldr	r3, [pc, #732]	; (f3a4 <_usb_device_interrupt_handler+0x2fc>)
    f0c8:	681b      	ldr	r3, [r3, #0]
    f0ca:	681a      	ldr	r2, [r3, #0]
    f0cc:	1dbb      	adds	r3, r7, #6
    f0ce:	8b92      	ldrh	r2, [r2, #28]
    f0d0:	801a      	strh	r2, [r3, #0]
    f0d2:	4bb4      	ldr	r3, [pc, #720]	; (f3a4 <_usb_device_interrupt_handler+0x2fc>)
    f0d4:	681a      	ldr	r2, [r3, #0]
    f0d6:	23ab      	movs	r3, #171	; 0xab
    f0d8:	005b      	lsls	r3, r3, #1
    f0da:	5ad3      	ldrh	r3, [r2, r3]
    f0dc:	1dba      	adds	r2, r7, #6
    f0de:	8812      	ldrh	r2, [r2, #0]
    f0e0:	4013      	ands	r3, r2
    f0e2:	b29a      	uxth	r2, r3
    f0e4:	4baf      	ldr	r3, [pc, #700]	; (f3a4 <_usb_device_interrupt_handler+0x2fc>)
    f0e6:	6819      	ldr	r1, [r3, #0]
    f0e8:	23aa      	movs	r3, #170	; 0xaa
    f0ea:	005b      	lsls	r3, r3, #1
    f0ec:	5ac9      	ldrh	r1, [r1, r3]
    f0ee:	1d3b      	adds	r3, r7, #4
    f0f0:	400a      	ands	r2, r1
    f0f2:	801a      	strh	r2, [r3, #0]
    f0f4:	2300      	movs	r3, #0
    f0f6:	60fb      	str	r3, [r7, #12]
    f0f8:	e037      	b.n	f16a <_usb_device_interrupt_handler+0xc2>
    f0fa:	4bab      	ldr	r3, [pc, #684]	; (f3a8 <_usb_device_interrupt_handler+0x300>)
    f0fc:	68fa      	ldr	r2, [r7, #12]
    f0fe:	0052      	lsls	r2, r2, #1
    f100:	5ad3      	ldrh	r3, [r2, r3]
    f102:	1dba      	adds	r2, r7, #6
    f104:	8812      	ldrh	r2, [r2, #0]
    f106:	4013      	ands	r3, r2
    f108:	b29b      	uxth	r3, r3
    f10a:	2b00      	cmp	r3, #0
    f10c:	d007      	beq.n	f11e <_usb_device_interrupt_handler+0x76>
    f10e:	4ba5      	ldr	r3, [pc, #660]	; (f3a4 <_usb_device_interrupt_handler+0x2fc>)
    f110:	681b      	ldr	r3, [r3, #0]
    f112:	681b      	ldr	r3, [r3, #0]
    f114:	4aa4      	ldr	r2, [pc, #656]	; (f3a8 <_usb_device_interrupt_handler+0x300>)
    f116:	68f9      	ldr	r1, [r7, #12]
    f118:	0049      	lsls	r1, r1, #1
    f11a:	5a8a      	ldrh	r2, [r1, r2]
    f11c:	839a      	strh	r2, [r3, #28]
    f11e:	4ba2      	ldr	r3, [pc, #648]	; (f3a8 <_usb_device_interrupt_handler+0x300>)
    f120:	68fa      	ldr	r2, [r7, #12]
    f122:	0052      	lsls	r2, r2, #1
    f124:	5ad3      	ldrh	r3, [r2, r3]
    f126:	1d3a      	adds	r2, r7, #4
    f128:	8812      	ldrh	r2, [r2, #0]
    f12a:	4013      	ands	r3, r2
    f12c:	b29b      	uxth	r3, r3
    f12e:	2b00      	cmp	r3, #0
    f130:	d018      	beq.n	f164 <_usb_device_interrupt_handler+0xbc>
    f132:	68fb      	ldr	r3, [r7, #12]
    f134:	2b06      	cmp	r3, #6
    f136:	d10a      	bne.n	f14e <_usb_device_interrupt_handler+0xa6>
    f138:	4b9c      	ldr	r3, [pc, #624]	; (f3ac <_usb_device_interrupt_handler+0x304>)
    f13a:	891b      	ldrh	r3, [r3, #8]
    f13c:	045b      	lsls	r3, r3, #17
    f13e:	0d5b      	lsrs	r3, r3, #21
    f140:	b29b      	uxth	r3, r3
    f142:	001a      	movs	r2, r3
    f144:	2380      	movs	r3, #128	; 0x80
    f146:	005b      	lsls	r3, r3, #1
    f148:	401a      	ands	r2, r3
    f14a:	4b99      	ldr	r3, [pc, #612]	; (f3b0 <_usb_device_interrupt_handler+0x308>)
    f14c:	601a      	str	r2, [r3, #0]
    f14e:	4b95      	ldr	r3, [pc, #596]	; (f3a4 <_usb_device_interrupt_handler+0x2fc>)
    f150:	681b      	ldr	r3, [r3, #0]
    f152:	68fa      	ldr	r2, [r7, #12]
    f154:	322e      	adds	r2, #46	; 0x2e
    f156:	0092      	lsls	r2, r2, #2
    f158:	58d2      	ldr	r2, [r2, r3]
    f15a:	4b92      	ldr	r3, [pc, #584]	; (f3a4 <_usb_device_interrupt_handler+0x2fc>)
    f15c:	681b      	ldr	r3, [r3, #0]
    f15e:	4994      	ldr	r1, [pc, #592]	; (f3b0 <_usb_device_interrupt_handler+0x308>)
    f160:	0018      	movs	r0, r3
    f162:	4790      	blx	r2
    f164:	68fb      	ldr	r3, [r7, #12]
    f166:	3301      	adds	r3, #1
    f168:	60fb      	str	r3, [r7, #12]
    f16a:	68fb      	ldr	r3, [r7, #12]
    f16c:	2b06      	cmp	r3, #6
    f16e:	ddc4      	ble.n	f0fa <_usb_device_interrupt_handler+0x52>
    f170:	e250      	b.n	f614 <_usb_device_interrupt_handler+0x56c>
    f172:	230b      	movs	r3, #11
    f174:	18fb      	adds	r3, r7, r3
    f176:	2200      	movs	r2, #0
    f178:	701a      	strb	r2, [r3, #0]
    f17a:	e23b      	b.n	f5f4 <_usb_device_interrupt_handler+0x54c>
    f17c:	2308      	movs	r3, #8
    f17e:	18fb      	adds	r3, r7, r3
    f180:	881a      	ldrh	r2, [r3, #0]
    f182:	230b      	movs	r3, #11
    f184:	18fb      	adds	r3, r7, r3
    f186:	781b      	ldrb	r3, [r3, #0]
    f188:	411a      	asrs	r2, r3
    f18a:	0013      	movs	r3, r2
    f18c:	2201      	movs	r2, #1
    f18e:	4013      	ands	r3, r2
    f190:	d100      	bne.n	f194 <_usb_device_interrupt_handler+0xec>
    f192:	e228      	b.n	f5e6 <_usb_device_interrupt_handler+0x53e>
    f194:	4b83      	ldr	r3, [pc, #524]	; (f3a4 <_usb_device_interrupt_handler+0x2fc>)
    f196:	681b      	ldr	r3, [r3, #0]
    f198:	681a      	ldr	r2, [r3, #0]
    f19a:	230b      	movs	r3, #11
    f19c:	18fb      	adds	r3, r7, r3
    f19e:	781b      	ldrb	r3, [r3, #0]
    f1a0:	3308      	adds	r3, #8
    f1a2:	015b      	lsls	r3, r3, #5
    f1a4:	18d3      	adds	r3, r2, r3
    f1a6:	3307      	adds	r3, #7
    f1a8:	781b      	ldrb	r3, [r3, #0]
    f1aa:	b2da      	uxtb	r2, r3
    f1ac:	1dbb      	adds	r3, r7, #6
    f1ae:	801a      	strh	r2, [r3, #0]
    f1b0:	4b7c      	ldr	r3, [pc, #496]	; (f3a4 <_usb_device_interrupt_handler+0x2fc>)
    f1b2:	6819      	ldr	r1, [r3, #0]
    f1b4:	230b      	movs	r3, #11
    f1b6:	18fb      	adds	r3, r7, r3
    f1b8:	781a      	ldrb	r2, [r3, #0]
    f1ba:	23b0      	movs	r3, #176	; 0xb0
    f1bc:	005b      	lsls	r3, r3, #1
    f1be:	188a      	adds	r2, r1, r2
    f1c0:	18d3      	adds	r3, r2, r3
    f1c2:	781b      	ldrb	r3, [r3, #0]
    f1c4:	b29b      	uxth	r3, r3
    f1c6:	1dba      	adds	r2, r7, #6
    f1c8:	8812      	ldrh	r2, [r2, #0]
    f1ca:	4013      	ands	r3, r2
    f1cc:	b29b      	uxth	r3, r3
    f1ce:	b21a      	sxth	r2, r3
    f1d0:	4b74      	ldr	r3, [pc, #464]	; (f3a4 <_usb_device_interrupt_handler+0x2fc>)
    f1d2:	6818      	ldr	r0, [r3, #0]
    f1d4:	230b      	movs	r3, #11
    f1d6:	18fb      	adds	r3, r7, r3
    f1d8:	7819      	ldrb	r1, [r3, #0]
    f1da:	23ac      	movs	r3, #172	; 0xac
    f1dc:	005b      	lsls	r3, r3, #1
    f1de:	1841      	adds	r1, r0, r1
    f1e0:	18cb      	adds	r3, r1, r3
    f1e2:	781b      	ldrb	r3, [r3, #0]
    f1e4:	b21b      	sxth	r3, r3
    f1e6:	4013      	ands	r3, r2
    f1e8:	b21a      	sxth	r2, r3
    f1ea:	1d3b      	adds	r3, r7, #4
    f1ec:	801a      	strh	r2, [r3, #0]
    f1ee:	1dbb      	adds	r3, r7, #6
    f1f0:	881b      	ldrh	r3, [r3, #0]
    f1f2:	2260      	movs	r2, #96	; 0x60
    f1f4:	4013      	ands	r3, r2
    f1f6:	d05c      	beq.n	f2b2 <_usb_device_interrupt_handler+0x20a>
    f1f8:	4b6a      	ldr	r3, [pc, #424]	; (f3a4 <_usb_device_interrupt_handler+0x2fc>)
    f1fa:	681b      	ldr	r3, [r3, #0]
    f1fc:	681a      	ldr	r2, [r3, #0]
    f1fe:	230b      	movs	r3, #11
    f200:	18fb      	adds	r3, r7, r3
    f202:	781b      	ldrb	r3, [r3, #0]
    f204:	3308      	adds	r3, #8
    f206:	015b      	lsls	r3, r3, #5
    f208:	18d3      	adds	r3, r2, r3
    f20a:	3307      	adds	r3, #7
    f20c:	781b      	ldrb	r3, [r3, #0]
    f20e:	b2db      	uxtb	r3, r3
    f210:	001a      	movs	r2, r3
    f212:	2340      	movs	r3, #64	; 0x40
    f214:	4013      	ands	r3, r2
    f216:	d015      	beq.n	f244 <_usb_device_interrupt_handler+0x19c>
    f218:	4b62      	ldr	r3, [pc, #392]	; (f3a4 <_usb_device_interrupt_handler+0x2fc>)
    f21a:	681b      	ldr	r3, [r3, #0]
    f21c:	681a      	ldr	r2, [r3, #0]
    f21e:	230b      	movs	r3, #11
    f220:	18fb      	adds	r3, r7, r3
    f222:	781b      	ldrb	r3, [r3, #0]
    f224:	3308      	adds	r3, #8
    f226:	015b      	lsls	r3, r3, #5
    f228:	18d3      	adds	r3, r2, r3
    f22a:	3307      	adds	r3, #7
    f22c:	2240      	movs	r2, #64	; 0x40
    f22e:	701a      	strb	r2, [r3, #0]
    f230:	230b      	movs	r3, #11
    f232:	18fb      	adds	r3, r7, r3
    f234:	781b      	ldrb	r3, [r3, #0]
    f236:	2280      	movs	r2, #128	; 0x80
    f238:	4252      	negs	r2, r2
    f23a:	4313      	orrs	r3, r2
    f23c:	b2da      	uxtb	r2, r3
    f23e:	4b5d      	ldr	r3, [pc, #372]	; (f3b4 <_usb_device_interrupt_handler+0x30c>)
    f240:	719a      	strb	r2, [r3, #6]
    f242:	e020      	b.n	f286 <_usb_device_interrupt_handler+0x1de>
    f244:	4b57      	ldr	r3, [pc, #348]	; (f3a4 <_usb_device_interrupt_handler+0x2fc>)
    f246:	681b      	ldr	r3, [r3, #0]
    f248:	681a      	ldr	r2, [r3, #0]
    f24a:	230b      	movs	r3, #11
    f24c:	18fb      	adds	r3, r7, r3
    f24e:	781b      	ldrb	r3, [r3, #0]
    f250:	3308      	adds	r3, #8
    f252:	015b      	lsls	r3, r3, #5
    f254:	18d3      	adds	r3, r2, r3
    f256:	3307      	adds	r3, #7
    f258:	781b      	ldrb	r3, [r3, #0]
    f25a:	b2db      	uxtb	r3, r3
    f25c:	001a      	movs	r2, r3
    f25e:	2320      	movs	r3, #32
    f260:	4013      	ands	r3, r2
    f262:	d010      	beq.n	f286 <_usb_device_interrupt_handler+0x1de>
    f264:	4b4f      	ldr	r3, [pc, #316]	; (f3a4 <_usb_device_interrupt_handler+0x2fc>)
    f266:	681b      	ldr	r3, [r3, #0]
    f268:	681a      	ldr	r2, [r3, #0]
    f26a:	230b      	movs	r3, #11
    f26c:	18fb      	adds	r3, r7, r3
    f26e:	781b      	ldrb	r3, [r3, #0]
    f270:	3308      	adds	r3, #8
    f272:	015b      	lsls	r3, r3, #5
    f274:	18d3      	adds	r3, r2, r3
    f276:	3307      	adds	r3, #7
    f278:	2220      	movs	r2, #32
    f27a:	701a      	strb	r2, [r3, #0]
    f27c:	4b4d      	ldr	r3, [pc, #308]	; (f3b4 <_usb_device_interrupt_handler+0x30c>)
    f27e:	220b      	movs	r2, #11
    f280:	18ba      	adds	r2, r7, r2
    f282:	7812      	ldrb	r2, [r2, #0]
    f284:	719a      	strb	r2, [r3, #6]
    f286:	1d3b      	adds	r3, r7, #4
    f288:	881b      	ldrh	r3, [r3, #0]
    f28a:	2260      	movs	r2, #96	; 0x60
    f28c:	4013      	ands	r3, r2
    f28e:	d100      	bne.n	f292 <_usb_device_interrupt_handler+0x1ea>
    f290:	e1b7      	b.n	f602 <_usb_device_interrupt_handler+0x55a>
    f292:	4b44      	ldr	r3, [pc, #272]	; (f3a4 <_usb_device_interrupt_handler+0x2fc>)
    f294:	681a      	ldr	r2, [r3, #0]
    f296:	230b      	movs	r3, #11
    f298:	18fb      	adds	r3, r7, r3
    f29a:	781b      	ldrb	r3, [r3, #0]
    f29c:	21e0      	movs	r1, #224	; 0xe0
    f29e:	011b      	lsls	r3, r3, #4
    f2a0:	18d3      	adds	r3, r2, r3
    f2a2:	185b      	adds	r3, r3, r1
    f2a4:	681a      	ldr	r2, [r3, #0]
    f2a6:	4b3f      	ldr	r3, [pc, #252]	; (f3a4 <_usb_device_interrupt_handler+0x2fc>)
    f2a8:	681b      	ldr	r3, [r3, #0]
    f2aa:	4942      	ldr	r1, [pc, #264]	; (f3b4 <_usb_device_interrupt_handler+0x30c>)
    f2ac:	0018      	movs	r0, r3
    f2ae:	4790      	blx	r2
    f2b0:	e1a7      	b.n	f602 <_usb_device_interrupt_handler+0x55a>
    f2b2:	1dbb      	adds	r3, r7, #6
    f2b4:	881b      	ldrh	r3, [r3, #0]
    f2b6:	2210      	movs	r2, #16
    f2b8:	4013      	ands	r3, r2
    f2ba:	d038      	beq.n	f32e <_usb_device_interrupt_handler+0x286>
    f2bc:	4b39      	ldr	r3, [pc, #228]	; (f3a4 <_usb_device_interrupt_handler+0x2fc>)
    f2be:	681b      	ldr	r3, [r3, #0]
    f2c0:	681a      	ldr	r2, [r3, #0]
    f2c2:	230b      	movs	r3, #11
    f2c4:	18fb      	adds	r3, r7, r3
    f2c6:	781b      	ldrb	r3, [r3, #0]
    f2c8:	3308      	adds	r3, #8
    f2ca:	015b      	lsls	r3, r3, #5
    f2cc:	18d3      	adds	r3, r2, r3
    f2ce:	3307      	adds	r3, #7
    f2d0:	2210      	movs	r2, #16
    f2d2:	701a      	strb	r2, [r3, #0]
    f2d4:	4b33      	ldr	r3, [pc, #204]	; (f3a4 <_usb_device_interrupt_handler+0x2fc>)
    f2d6:	6819      	ldr	r1, [r3, #0]
    f2d8:	230b      	movs	r3, #11
    f2da:	18fb      	adds	r3, r7, r3
    f2dc:	781a      	ldrb	r2, [r3, #0]
    f2de:	23b0      	movs	r3, #176	; 0xb0
    f2e0:	005b      	lsls	r3, r3, #1
    f2e2:	188a      	adds	r2, r1, r2
    f2e4:	18d3      	adds	r3, r2, r3
    f2e6:	781b      	ldrb	r3, [r3, #0]
    f2e8:	2210      	movs	r2, #16
    f2ea:	4013      	ands	r3, r2
    f2ec:	b2db      	uxtb	r3, r3
    f2ee:	2b00      	cmp	r3, #0
    f2f0:	d100      	bne.n	f2f4 <_usb_device_interrupt_handler+0x24c>
    f2f2:	e188      	b.n	f606 <_usb_device_interrupt_handler+0x55e>
    f2f4:	230b      	movs	r3, #11
    f2f6:	18fb      	adds	r3, r7, r3
    f2f8:	781b      	ldrb	r3, [r3, #0]
    f2fa:	4a2c      	ldr	r2, [pc, #176]	; (f3ac <_usb_device_interrupt_handler+0x304>)
    f2fc:	015b      	lsls	r3, r3, #5
    f2fe:	18d3      	adds	r3, r2, r3
    f300:	685b      	ldr	r3, [r3, #4]
    f302:	049b      	lsls	r3, r3, #18
    f304:	0c9b      	lsrs	r3, r3, #18
    f306:	b29b      	uxth	r3, r3
    f308:	001a      	movs	r2, r3
    f30a:	4b2a      	ldr	r3, [pc, #168]	; (f3b4 <_usb_device_interrupt_handler+0x30c>)
    f30c:	801a      	strh	r2, [r3, #0]
    f30e:	4b25      	ldr	r3, [pc, #148]	; (f3a4 <_usb_device_interrupt_handler+0x2fc>)
    f310:	681a      	ldr	r2, [r3, #0]
    f312:	230b      	movs	r3, #11
    f314:	18fb      	adds	r3, r7, r3
    f316:	781b      	ldrb	r3, [r3, #0]
    f318:	21dc      	movs	r1, #220	; 0xdc
    f31a:	011b      	lsls	r3, r3, #4
    f31c:	18d3      	adds	r3, r2, r3
    f31e:	185b      	adds	r3, r3, r1
    f320:	681a      	ldr	r2, [r3, #0]
    f322:	4b20      	ldr	r3, [pc, #128]	; (f3a4 <_usb_device_interrupt_handler+0x2fc>)
    f324:	681b      	ldr	r3, [r3, #0]
    f326:	4923      	ldr	r1, [pc, #140]	; (f3b4 <_usb_device_interrupt_handler+0x30c>)
    f328:	0018      	movs	r0, r3
    f32a:	4790      	blx	r2
    f32c:	e16b      	b.n	f606 <_usb_device_interrupt_handler+0x55e>
    f32e:	1dbb      	adds	r3, r7, #6
    f330:	881b      	ldrh	r3, [r3, #0]
    f332:	2203      	movs	r2, #3
    f334:	4013      	ands	r3, r2
    f336:	d100      	bne.n	f33a <_usb_device_interrupt_handler+0x292>
    f338:	e08f      	b.n	f45a <_usb_device_interrupt_handler+0x3b2>
    f33a:	4b1a      	ldr	r3, [pc, #104]	; (f3a4 <_usb_device_interrupt_handler+0x2fc>)
    f33c:	681b      	ldr	r3, [r3, #0]
    f33e:	681a      	ldr	r2, [r3, #0]
    f340:	230b      	movs	r3, #11
    f342:	18fb      	adds	r3, r7, r3
    f344:	781b      	ldrb	r3, [r3, #0]
    f346:	3308      	adds	r3, #8
    f348:	015b      	lsls	r3, r3, #5
    f34a:	18d3      	adds	r3, r2, r3
    f34c:	3307      	adds	r3, #7
    f34e:	781b      	ldrb	r3, [r3, #0]
    f350:	b2db      	uxtb	r3, r3
    f352:	001a      	movs	r2, r3
    f354:	2302      	movs	r3, #2
    f356:	4013      	ands	r3, r2
    f358:	d02e      	beq.n	f3b8 <_usb_device_interrupt_handler+0x310>
    f35a:	4b12      	ldr	r3, [pc, #72]	; (f3a4 <_usb_device_interrupt_handler+0x2fc>)
    f35c:	681b      	ldr	r3, [r3, #0]
    f35e:	681a      	ldr	r2, [r3, #0]
    f360:	230b      	movs	r3, #11
    f362:	18fb      	adds	r3, r7, r3
    f364:	781b      	ldrb	r3, [r3, #0]
    f366:	3308      	adds	r3, #8
    f368:	015b      	lsls	r3, r3, #5
    f36a:	18d3      	adds	r3, r2, r3
    f36c:	3307      	adds	r3, #7
    f36e:	2202      	movs	r2, #2
    f370:	701a      	strb	r2, [r3, #0]
    f372:	230b      	movs	r3, #11
    f374:	18fb      	adds	r3, r7, r3
    f376:	781b      	ldrb	r3, [r3, #0]
    f378:	2280      	movs	r2, #128	; 0x80
    f37a:	4252      	negs	r2, r2
    f37c:	4313      	orrs	r3, r2
    f37e:	b2da      	uxtb	r2, r3
    f380:	4b0c      	ldr	r3, [pc, #48]	; (f3b4 <_usb_device_interrupt_handler+0x30c>)
    f382:	719a      	strb	r2, [r3, #6]
    f384:	230b      	movs	r3, #11
    f386:	18fb      	adds	r3, r7, r3
    f388:	781b      	ldrb	r3, [r3, #0]
    f38a:	4a08      	ldr	r2, [pc, #32]	; (f3ac <_usb_device_interrupt_handler+0x304>)
    f38c:	015b      	lsls	r3, r3, #5
    f38e:	18d3      	adds	r3, r2, r3
    f390:	3310      	adds	r3, #16
    f392:	685b      	ldr	r3, [r3, #4]
    f394:	049b      	lsls	r3, r3, #18
    f396:	0c9b      	lsrs	r3, r3, #18
    f398:	b29b      	uxth	r3, r3
    f39a:	001a      	movs	r2, r3
    f39c:	4b05      	ldr	r3, [pc, #20]	; (f3b4 <_usb_device_interrupt_handler+0x30c>)
    f39e:	805a      	strh	r2, [r3, #2]
    f3a0:	e045      	b.n	f42e <_usb_device_interrupt_handler+0x386>
    f3a2:	46c0      	nop			; (mov r8, r8)
    f3a4:	20000714 	.word	0x20000714
    f3a8:	000124c8 	.word	0x000124c8
    f3ac:	20000d44 	.word	0x20000d44
    f3b0:	20000720 	.word	0x20000720
    f3b4:	20000724 	.word	0x20000724
    f3b8:	4b98      	ldr	r3, [pc, #608]	; (f61c <_usb_device_interrupt_handler+0x574>)
    f3ba:	681b      	ldr	r3, [r3, #0]
    f3bc:	681a      	ldr	r2, [r3, #0]
    f3be:	230b      	movs	r3, #11
    f3c0:	18fb      	adds	r3, r7, r3
    f3c2:	781b      	ldrb	r3, [r3, #0]
    f3c4:	3308      	adds	r3, #8
    f3c6:	015b      	lsls	r3, r3, #5
    f3c8:	18d3      	adds	r3, r2, r3
    f3ca:	3307      	adds	r3, #7
    f3cc:	781b      	ldrb	r3, [r3, #0]
    f3ce:	b2db      	uxtb	r3, r3
    f3d0:	001a      	movs	r2, r3
    f3d2:	2301      	movs	r3, #1
    f3d4:	4013      	ands	r3, r2
    f3d6:	d02a      	beq.n	f42e <_usb_device_interrupt_handler+0x386>
    f3d8:	4b90      	ldr	r3, [pc, #576]	; (f61c <_usb_device_interrupt_handler+0x574>)
    f3da:	681b      	ldr	r3, [r3, #0]
    f3dc:	681a      	ldr	r2, [r3, #0]
    f3de:	230b      	movs	r3, #11
    f3e0:	18fb      	adds	r3, r7, r3
    f3e2:	781b      	ldrb	r3, [r3, #0]
    f3e4:	3308      	adds	r3, #8
    f3e6:	015b      	lsls	r3, r3, #5
    f3e8:	18d3      	adds	r3, r2, r3
    f3ea:	3307      	adds	r3, #7
    f3ec:	2201      	movs	r2, #1
    f3ee:	701a      	strb	r2, [r3, #0]
    f3f0:	4b8b      	ldr	r3, [pc, #556]	; (f620 <_usb_device_interrupt_handler+0x578>)
    f3f2:	220b      	movs	r2, #11
    f3f4:	18ba      	adds	r2, r7, r2
    f3f6:	7812      	ldrb	r2, [r2, #0]
    f3f8:	719a      	strb	r2, [r3, #6]
    f3fa:	230b      	movs	r3, #11
    f3fc:	18fb      	adds	r3, r7, r3
    f3fe:	781b      	ldrb	r3, [r3, #0]
    f400:	4a88      	ldr	r2, [pc, #544]	; (f624 <_usb_device_interrupt_handler+0x57c>)
    f402:	015b      	lsls	r3, r3, #5
    f404:	18d3      	adds	r3, r2, r3
    f406:	685b      	ldr	r3, [r3, #4]
    f408:	049b      	lsls	r3, r3, #18
    f40a:	0c9b      	lsrs	r3, r3, #18
    f40c:	b29b      	uxth	r3, r3
    f40e:	001a      	movs	r2, r3
    f410:	4b83      	ldr	r3, [pc, #524]	; (f620 <_usb_device_interrupt_handler+0x578>)
    f412:	801a      	strh	r2, [r3, #0]
    f414:	230b      	movs	r3, #11
    f416:	18fb      	adds	r3, r7, r3
    f418:	781b      	ldrb	r3, [r3, #0]
    f41a:	4a82      	ldr	r2, [pc, #520]	; (f624 <_usb_device_interrupt_handler+0x57c>)
    f41c:	015b      	lsls	r3, r3, #5
    f41e:	18d3      	adds	r3, r2, r3
    f420:	685b      	ldr	r3, [r3, #4]
    f422:	011b      	lsls	r3, r3, #4
    f424:	0c9b      	lsrs	r3, r3, #18
    f426:	b29b      	uxth	r3, r3
    f428:	001a      	movs	r2, r3
    f42a:	4b7d      	ldr	r3, [pc, #500]	; (f620 <_usb_device_interrupt_handler+0x578>)
    f42c:	809a      	strh	r2, [r3, #4]
    f42e:	1d3b      	adds	r3, r7, #4
    f430:	881b      	ldrh	r3, [r3, #0]
    f432:	2203      	movs	r2, #3
    f434:	4013      	ands	r3, r2
    f436:	d100      	bne.n	f43a <_usb_device_interrupt_handler+0x392>
    f438:	e0e7      	b.n	f60a <_usb_device_interrupt_handler+0x562>
    f43a:	4b78      	ldr	r3, [pc, #480]	; (f61c <_usb_device_interrupt_handler+0x574>)
    f43c:	681a      	ldr	r2, [r3, #0]
    f43e:	230b      	movs	r3, #11
    f440:	18fb      	adds	r3, r7, r3
    f442:	781b      	ldrb	r3, [r3, #0]
    f444:	330d      	adds	r3, #13
    f446:	011b      	lsls	r3, r3, #4
    f448:	18d3      	adds	r3, r2, r3
    f44a:	3304      	adds	r3, #4
    f44c:	681a      	ldr	r2, [r3, #0]
    f44e:	4b73      	ldr	r3, [pc, #460]	; (f61c <_usb_device_interrupt_handler+0x574>)
    f450:	681b      	ldr	r3, [r3, #0]
    f452:	4973      	ldr	r1, [pc, #460]	; (f620 <_usb_device_interrupt_handler+0x578>)
    f454:	0018      	movs	r0, r3
    f456:	4790      	blx	r2
    f458:	e0d7      	b.n	f60a <_usb_device_interrupt_handler+0x562>
    f45a:	1dbb      	adds	r3, r7, #6
    f45c:	881b      	ldrh	r3, [r3, #0]
    f45e:	220c      	movs	r2, #12
    f460:	4013      	ands	r3, r2
    f462:	d100      	bne.n	f466 <_usb_device_interrupt_handler+0x3be>
    f464:	e0bf      	b.n	f5e6 <_usb_device_interrupt_handler+0x53e>
    f466:	4b6d      	ldr	r3, [pc, #436]	; (f61c <_usb_device_interrupt_handler+0x574>)
    f468:	681b      	ldr	r3, [r3, #0]
    f46a:	681a      	ldr	r2, [r3, #0]
    f46c:	230b      	movs	r3, #11
    f46e:	18fb      	adds	r3, r7, r3
    f470:	781b      	ldrb	r3, [r3, #0]
    f472:	3308      	adds	r3, #8
    f474:	015b      	lsls	r3, r3, #5
    f476:	18d3      	adds	r3, r2, r3
    f478:	3307      	adds	r3, #7
    f47a:	781b      	ldrb	r3, [r3, #0]
    f47c:	b2db      	uxtb	r3, r3
    f47e:	001a      	movs	r2, r3
    f480:	2308      	movs	r3, #8
    f482:	4013      	ands	r3, r2
    f484:	d047      	beq.n	f516 <_usb_device_interrupt_handler+0x46e>
    f486:	4b65      	ldr	r3, [pc, #404]	; (f61c <_usb_device_interrupt_handler+0x574>)
    f488:	681b      	ldr	r3, [r3, #0]
    f48a:	681a      	ldr	r2, [r3, #0]
    f48c:	230b      	movs	r3, #11
    f48e:	18fb      	adds	r3, r7, r3
    f490:	781b      	ldrb	r3, [r3, #0]
    f492:	3308      	adds	r3, #8
    f494:	015b      	lsls	r3, r3, #5
    f496:	18d3      	adds	r3, r2, r3
    f498:	3307      	adds	r3, #7
    f49a:	2208      	movs	r2, #8
    f49c:	701a      	strb	r2, [r3, #0]
    f49e:	230b      	movs	r3, #11
    f4a0:	18fb      	adds	r3, r7, r3
    f4a2:	781b      	ldrb	r3, [r3, #0]
    f4a4:	4a5f      	ldr	r2, [pc, #380]	; (f624 <_usb_device_interrupt_handler+0x57c>)
    f4a6:	015b      	lsls	r3, r3, #5
    f4a8:	18d3      	adds	r3, r2, r3
    f4aa:	331a      	adds	r3, #26
    f4ac:	781b      	ldrb	r3, [r3, #0]
    f4ae:	b2db      	uxtb	r3, r3
    f4b0:	001a      	movs	r2, r3
    f4b2:	2302      	movs	r3, #2
    f4b4:	4013      	ands	r3, r2
    f4b6:	d014      	beq.n	f4e2 <_usb_device_interrupt_handler+0x43a>
    f4b8:	230b      	movs	r3, #11
    f4ba:	18fb      	adds	r3, r7, r3
    f4bc:	781b      	ldrb	r3, [r3, #0]
    f4be:	220b      	movs	r2, #11
    f4c0:	18ba      	adds	r2, r7, r2
    f4c2:	7812      	ldrb	r2, [r2, #0]
    f4c4:	4957      	ldr	r1, [pc, #348]	; (f624 <_usb_device_interrupt_handler+0x57c>)
    f4c6:	0152      	lsls	r2, r2, #5
    f4c8:	188a      	adds	r2, r1, r2
    f4ca:	321a      	adds	r2, #26
    f4cc:	7812      	ldrb	r2, [r2, #0]
    f4ce:	b2d2      	uxtb	r2, r2
    f4d0:	2102      	movs	r1, #2
    f4d2:	438a      	bics	r2, r1
    f4d4:	b2d1      	uxtb	r1, r2
    f4d6:	4a53      	ldr	r2, [pc, #332]	; (f624 <_usb_device_interrupt_handler+0x57c>)
    f4d8:	015b      	lsls	r3, r3, #5
    f4da:	18d3      	adds	r3, r2, r3
    f4dc:	331a      	adds	r3, #26
    f4de:	1c0a      	adds	r2, r1, #0
    f4e0:	701a      	strb	r2, [r3, #0]
    f4e2:	230b      	movs	r3, #11
    f4e4:	18fb      	adds	r3, r7, r3
    f4e6:	781b      	ldrb	r3, [r3, #0]
    f4e8:	2280      	movs	r2, #128	; 0x80
    f4ea:	4252      	negs	r2, r2
    f4ec:	4313      	orrs	r3, r2
    f4ee:	b2da      	uxtb	r2, r3
    f4f0:	4b4b      	ldr	r3, [pc, #300]	; (f620 <_usb_device_interrupt_handler+0x578>)
    f4f2:	719a      	strb	r2, [r3, #6]
    f4f4:	4b49      	ldr	r3, [pc, #292]	; (f61c <_usb_device_interrupt_handler+0x574>)
    f4f6:	681b      	ldr	r3, [r3, #0]
    f4f8:	681a      	ldr	r2, [r3, #0]
    f4fa:	230b      	movs	r3, #11
    f4fc:	18fb      	adds	r3, r7, r3
    f4fe:	781b      	ldrb	r3, [r3, #0]
    f500:	3308      	adds	r3, #8
    f502:	015b      	lsls	r3, r3, #5
    f504:	18d3      	adds	r3, r2, r3
    f506:	3307      	adds	r3, #7
    f508:	781b      	ldrb	r3, [r3, #0]
    f50a:	b2db      	uxtb	r3, r3
    f50c:	001a      	movs	r2, r3
    f50e:	2302      	movs	r3, #2
    f510:	4013      	ands	r3, r2
    f512:	d053      	beq.n	f5bc <_usb_device_interrupt_handler+0x514>
    f514:	e07e      	b.n	f614 <_usb_device_interrupt_handler+0x56c>
    f516:	4b41      	ldr	r3, [pc, #260]	; (f61c <_usb_device_interrupt_handler+0x574>)
    f518:	681b      	ldr	r3, [r3, #0]
    f51a:	681a      	ldr	r2, [r3, #0]
    f51c:	230b      	movs	r3, #11
    f51e:	18fb      	adds	r3, r7, r3
    f520:	781b      	ldrb	r3, [r3, #0]
    f522:	3308      	adds	r3, #8
    f524:	015b      	lsls	r3, r3, #5
    f526:	18d3      	adds	r3, r2, r3
    f528:	3307      	adds	r3, #7
    f52a:	781b      	ldrb	r3, [r3, #0]
    f52c:	b2db      	uxtb	r3, r3
    f52e:	001a      	movs	r2, r3
    f530:	2304      	movs	r3, #4
    f532:	4013      	ands	r3, r2
    f534:	d042      	beq.n	f5bc <_usb_device_interrupt_handler+0x514>
    f536:	4b39      	ldr	r3, [pc, #228]	; (f61c <_usb_device_interrupt_handler+0x574>)
    f538:	681b      	ldr	r3, [r3, #0]
    f53a:	681a      	ldr	r2, [r3, #0]
    f53c:	230b      	movs	r3, #11
    f53e:	18fb      	adds	r3, r7, r3
    f540:	781b      	ldrb	r3, [r3, #0]
    f542:	3308      	adds	r3, #8
    f544:	015b      	lsls	r3, r3, #5
    f546:	18d3      	adds	r3, r2, r3
    f548:	3307      	adds	r3, #7
    f54a:	2204      	movs	r2, #4
    f54c:	701a      	strb	r2, [r3, #0]
    f54e:	230b      	movs	r3, #11
    f550:	18fb      	adds	r3, r7, r3
    f552:	781b      	ldrb	r3, [r3, #0]
    f554:	4a33      	ldr	r2, [pc, #204]	; (f624 <_usb_device_interrupt_handler+0x57c>)
    f556:	015b      	lsls	r3, r3, #5
    f558:	18d3      	adds	r3, r2, r3
    f55a:	330a      	adds	r3, #10
    f55c:	781b      	ldrb	r3, [r3, #0]
    f55e:	b2db      	uxtb	r3, r3
    f560:	001a      	movs	r2, r3
    f562:	2302      	movs	r3, #2
    f564:	4013      	ands	r3, r2
    f566:	d014      	beq.n	f592 <_usb_device_interrupt_handler+0x4ea>
    f568:	230b      	movs	r3, #11
    f56a:	18fb      	adds	r3, r7, r3
    f56c:	781b      	ldrb	r3, [r3, #0]
    f56e:	220b      	movs	r2, #11
    f570:	18ba      	adds	r2, r7, r2
    f572:	7812      	ldrb	r2, [r2, #0]
    f574:	492b      	ldr	r1, [pc, #172]	; (f624 <_usb_device_interrupt_handler+0x57c>)
    f576:	0152      	lsls	r2, r2, #5
    f578:	188a      	adds	r2, r1, r2
    f57a:	320a      	adds	r2, #10
    f57c:	7812      	ldrb	r2, [r2, #0]
    f57e:	b2d2      	uxtb	r2, r2
    f580:	2102      	movs	r1, #2
    f582:	438a      	bics	r2, r1
    f584:	b2d1      	uxtb	r1, r2
    f586:	4a27      	ldr	r2, [pc, #156]	; (f624 <_usb_device_interrupt_handler+0x57c>)
    f588:	015b      	lsls	r3, r3, #5
    f58a:	18d3      	adds	r3, r2, r3
    f58c:	330a      	adds	r3, #10
    f58e:	1c0a      	adds	r2, r1, #0
    f590:	701a      	strb	r2, [r3, #0]
    f592:	4b23      	ldr	r3, [pc, #140]	; (f620 <_usb_device_interrupt_handler+0x578>)
    f594:	220b      	movs	r2, #11
    f596:	18ba      	adds	r2, r7, r2
    f598:	7812      	ldrb	r2, [r2, #0]
    f59a:	719a      	strb	r2, [r3, #6]
    f59c:	4b1f      	ldr	r3, [pc, #124]	; (f61c <_usb_device_interrupt_handler+0x574>)
    f59e:	681b      	ldr	r3, [r3, #0]
    f5a0:	681a      	ldr	r2, [r3, #0]
    f5a2:	230b      	movs	r3, #11
    f5a4:	18fb      	adds	r3, r7, r3
    f5a6:	781b      	ldrb	r3, [r3, #0]
    f5a8:	3308      	adds	r3, #8
    f5aa:	015b      	lsls	r3, r3, #5
    f5ac:	18d3      	adds	r3, r2, r3
    f5ae:	3307      	adds	r3, #7
    f5b0:	781b      	ldrb	r3, [r3, #0]
    f5b2:	b2db      	uxtb	r3, r3
    f5b4:	001a      	movs	r2, r3
    f5b6:	2301      	movs	r3, #1
    f5b8:	4013      	ands	r3, r2
    f5ba:	d128      	bne.n	f60e <_usb_device_interrupt_handler+0x566>
    f5bc:	1d3b      	adds	r3, r7, #4
    f5be:	881b      	ldrh	r3, [r3, #0]
    f5c0:	220c      	movs	r2, #12
    f5c2:	4013      	ands	r3, r2
    f5c4:	d025      	beq.n	f612 <_usb_device_interrupt_handler+0x56a>
    f5c6:	4b15      	ldr	r3, [pc, #84]	; (f61c <_usb_device_interrupt_handler+0x574>)
    f5c8:	681a      	ldr	r2, [r3, #0]
    f5ca:	230b      	movs	r3, #11
    f5cc:	18fb      	adds	r3, r7, r3
    f5ce:	781b      	ldrb	r3, [r3, #0]
    f5d0:	21d8      	movs	r1, #216	; 0xd8
    f5d2:	011b      	lsls	r3, r3, #4
    f5d4:	18d3      	adds	r3, r2, r3
    f5d6:	185b      	adds	r3, r3, r1
    f5d8:	681a      	ldr	r2, [r3, #0]
    f5da:	4b10      	ldr	r3, [pc, #64]	; (f61c <_usb_device_interrupt_handler+0x574>)
    f5dc:	681b      	ldr	r3, [r3, #0]
    f5de:	4910      	ldr	r1, [pc, #64]	; (f620 <_usb_device_interrupt_handler+0x578>)
    f5e0:	0018      	movs	r0, r3
    f5e2:	4790      	blx	r2
    f5e4:	e015      	b.n	f612 <_usb_device_interrupt_handler+0x56a>
    f5e6:	230b      	movs	r3, #11
    f5e8:	18fb      	adds	r3, r7, r3
    f5ea:	781a      	ldrb	r2, [r3, #0]
    f5ec:	230b      	movs	r3, #11
    f5ee:	18fb      	adds	r3, r7, r3
    f5f0:	3201      	adds	r2, #1
    f5f2:	701a      	strb	r2, [r3, #0]
    f5f4:	230b      	movs	r3, #11
    f5f6:	18fb      	adds	r3, r7, r3
    f5f8:	781b      	ldrb	r3, [r3, #0]
    f5fa:	2b07      	cmp	r3, #7
    f5fc:	d800      	bhi.n	f600 <_usb_device_interrupt_handler+0x558>
    f5fe:	e5bd      	b.n	f17c <_usb_device_interrupt_handler+0xd4>
    f600:	e008      	b.n	f614 <_usb_device_interrupt_handler+0x56c>
    f602:	46c0      	nop			; (mov r8, r8)
    f604:	e006      	b.n	f614 <_usb_device_interrupt_handler+0x56c>
    f606:	46c0      	nop			; (mov r8, r8)
    f608:	e004      	b.n	f614 <_usb_device_interrupt_handler+0x56c>
    f60a:	46c0      	nop			; (mov r8, r8)
    f60c:	e002      	b.n	f614 <_usb_device_interrupt_handler+0x56c>
    f60e:	46c0      	nop			; (mov r8, r8)
    f610:	e000      	b.n	f614 <_usb_device_interrupt_handler+0x56c>
    f612:	46c0      	nop			; (mov r8, r8)
    f614:	46bd      	mov	sp, r7
    f616:	b004      	add	sp, #16
    f618:	bd80      	pop	{r7, pc}
    f61a:	46c0      	nop			; (mov r8, r8)
    f61c:	20000714 	.word	0x20000714
    f620:	20000724 	.word	0x20000724
    f624:	20000d44 	.word	0x20000d44

0000f628 <USB_Handler>:
    f628:	b580      	push	{r7, lr}
    f62a:	af00      	add	r7, sp, #0
    f62c:	4b08      	ldr	r3, [pc, #32]	; (f650 <USB_Handler+0x28>)
    f62e:	681b      	ldr	r3, [r3, #0]
    f630:	681b      	ldr	r3, [r3, #0]
    f632:	781b      	ldrb	r3, [r3, #0]
    f634:	061b      	lsls	r3, r3, #24
    f636:	0fdb      	lsrs	r3, r3, #31
    f638:	b2db      	uxtb	r3, r3
    f63a:	2b00      	cmp	r3, #0
    f63c:	d002      	beq.n	f644 <USB_Handler+0x1c>
    f63e:	4b05      	ldr	r3, [pc, #20]	; (f654 <USB_Handler+0x2c>)
    f640:	4798      	blx	r3
    f642:	e001      	b.n	f648 <USB_Handler+0x20>
    f644:	4b04      	ldr	r3, [pc, #16]	; (f658 <USB_Handler+0x30>)
    f646:	4798      	blx	r3
    f648:	46c0      	nop			; (mov r8, r8)
    f64a:	46bd      	mov	sp, r7
    f64c:	bd80      	pop	{r7, pc}
    f64e:	46c0      	nop			; (mov r8, r8)
    f650:	20000714 	.word	0x20000714
    f654:	0000ebcd 	.word	0x0000ebcd
    f658:	0000f0a9 	.word	0x0000f0a9

0000f65c <nvm_get_config_defaults>:
    f65c:	b580      	push	{r7, lr}
    f65e:	b082      	sub	sp, #8
    f660:	af00      	add	r7, sp, #0
    f662:	6078      	str	r0, [r7, #4]
    f664:	687b      	ldr	r3, [r7, #4]
    f666:	2200      	movs	r2, #0
    f668:	701a      	strb	r2, [r3, #0]
    f66a:	687b      	ldr	r3, [r7, #4]
    f66c:	2201      	movs	r2, #1
    f66e:	705a      	strb	r2, [r3, #1]
    f670:	4b08      	ldr	r3, [pc, #32]	; (f694 <nvm_get_config_defaults+0x38>)
    f672:	685b      	ldr	r3, [r3, #4]
    f674:	06db      	lsls	r3, r3, #27
    f676:	0f1b      	lsrs	r3, r3, #28
    f678:	b2db      	uxtb	r3, r3
    f67a:	001a      	movs	r2, r3
    f67c:	687b      	ldr	r3, [r7, #4]
    f67e:	709a      	strb	r2, [r3, #2]
    f680:	687b      	ldr	r3, [r7, #4]
    f682:	2200      	movs	r2, #0
    f684:	70da      	strb	r2, [r3, #3]
    f686:	687b      	ldr	r3, [r7, #4]
    f688:	2200      	movs	r2, #0
    f68a:	711a      	strb	r2, [r3, #4]
    f68c:	46c0      	nop			; (mov r8, r8)
    f68e:	46bd      	mov	sp, r7
    f690:	b002      	add	sp, #8
    f692:	bd80      	pop	{r7, pc}
    f694:	41004000 	.word	0x41004000

0000f698 <_eeprom_emulator_nvm_erase_row>:
    f698:	b590      	push	{r4, r7, lr}
    f69a:	b085      	sub	sp, #20
    f69c:	af00      	add	r7, sp, #0
    f69e:	0002      	movs	r2, r0
    f6a0:	1dfb      	adds	r3, r7, #7
    f6a2:	701a      	strb	r2, [r3, #0]
    f6a4:	230f      	movs	r3, #15
    f6a6:	18fb      	adds	r3, r7, r3
    f6a8:	2200      	movs	r2, #0
    f6aa:	701a      	strb	r2, [r3, #0]
    f6ac:	4b0a      	ldr	r3, [pc, #40]	; (f6d8 <_eeprom_emulator_nvm_erase_row+0x40>)
    f6ae:	685b      	ldr	r3, [r3, #4]
    f6b0:	1dfa      	adds	r2, r7, #7
    f6b2:	7812      	ldrb	r2, [r2, #0]
    f6b4:	0212      	lsls	r2, r2, #8
    f6b6:	189b      	adds	r3, r3, r2
    f6b8:	220f      	movs	r2, #15
    f6ba:	18bc      	adds	r4, r7, r2
    f6bc:	0018      	movs	r0, r3
    f6be:	4b07      	ldr	r3, [pc, #28]	; (f6dc <_eeprom_emulator_nvm_erase_row+0x44>)
    f6c0:	4798      	blx	r3
    f6c2:	0003      	movs	r3, r0
    f6c4:	7023      	strb	r3, [r4, #0]
    f6c6:	230f      	movs	r3, #15
    f6c8:	18fb      	adds	r3, r7, r3
    f6ca:	781b      	ldrb	r3, [r3, #0]
    f6cc:	2b05      	cmp	r3, #5
    f6ce:	d0ed      	beq.n	f6ac <_eeprom_emulator_nvm_erase_row+0x14>
    f6d0:	46c0      	nop			; (mov r8, r8)
    f6d2:	46bd      	mov	sp, r7
    f6d4:	b005      	add	sp, #20
    f6d6:	bd90      	pop	{r4, r7, pc}
    f6d8:	20000730 	.word	0x20000730
    f6dc:	0000a805 	.word	0x0000a805

0000f6e0 <_eeprom_emulator_nvm_fill_cache>:
    f6e0:	b590      	push	{r4, r7, lr}
    f6e2:	b085      	sub	sp, #20
    f6e4:	af00      	add	r7, sp, #0
    f6e6:	0002      	movs	r2, r0
    f6e8:	6039      	str	r1, [r7, #0]
    f6ea:	1dbb      	adds	r3, r7, #6
    f6ec:	801a      	strh	r2, [r3, #0]
    f6ee:	230f      	movs	r3, #15
    f6f0:	18fb      	adds	r3, r7, r3
    f6f2:	2200      	movs	r2, #0
    f6f4:	701a      	strb	r2, [r3, #0]
    f6f6:	4b0c      	ldr	r3, [pc, #48]	; (f728 <_eeprom_emulator_nvm_fill_cache+0x48>)
    f6f8:	685a      	ldr	r2, [r3, #4]
    f6fa:	1dbb      	adds	r3, r7, #6
    f6fc:	881b      	ldrh	r3, [r3, #0]
    f6fe:	019b      	lsls	r3, r3, #6
    f700:	18d3      	adds	r3, r2, r3
    f702:	0018      	movs	r0, r3
    f704:	230f      	movs	r3, #15
    f706:	18fc      	adds	r4, r7, r3
    f708:	683b      	ldr	r3, [r7, #0]
    f70a:	2240      	movs	r2, #64	; 0x40
    f70c:	0019      	movs	r1, r3
    f70e:	4b07      	ldr	r3, [pc, #28]	; (f72c <_eeprom_emulator_nvm_fill_cache+0x4c>)
    f710:	4798      	blx	r3
    f712:	0003      	movs	r3, r0
    f714:	7023      	strb	r3, [r4, #0]
    f716:	230f      	movs	r3, #15
    f718:	18fb      	adds	r3, r7, r3
    f71a:	781b      	ldrb	r3, [r3, #0]
    f71c:	2b05      	cmp	r3, #5
    f71e:	d0ea      	beq.n	f6f6 <_eeprom_emulator_nvm_fill_cache+0x16>
    f720:	46c0      	nop			; (mov r8, r8)
    f722:	46bd      	mov	sp, r7
    f724:	b005      	add	sp, #20
    f726:	bd90      	pop	{r4, r7, pc}
    f728:	20000730 	.word	0x20000730
    f72c:	0000a5bd 	.word	0x0000a5bd

0000f730 <_eeprom_emulator_nvm_commit_cache>:
    f730:	b590      	push	{r4, r7, lr}
    f732:	b085      	sub	sp, #20
    f734:	af00      	add	r7, sp, #0
    f736:	0002      	movs	r2, r0
    f738:	1dbb      	adds	r3, r7, #6
    f73a:	801a      	strh	r2, [r3, #0]
    f73c:	230f      	movs	r3, #15
    f73e:	18fb      	adds	r3, r7, r3
    f740:	2200      	movs	r2, #0
    f742:	701a      	strb	r2, [r3, #0]
    f744:	4b0b      	ldr	r3, [pc, #44]	; (f774 <_eeprom_emulator_nvm_commit_cache+0x44>)
    f746:	685a      	ldr	r2, [r3, #4]
    f748:	1dbb      	adds	r3, r7, #6
    f74a:	881b      	ldrh	r3, [r3, #0]
    f74c:	019b      	lsls	r3, r3, #6
    f74e:	18d3      	adds	r3, r2, r3
    f750:	220f      	movs	r2, #15
    f752:	18bc      	adds	r4, r7, r2
    f754:	2200      	movs	r2, #0
    f756:	0019      	movs	r1, r3
    f758:	2004      	movs	r0, #4
    f75a:	4b07      	ldr	r3, [pc, #28]	; (f778 <_eeprom_emulator_nvm_commit_cache+0x48>)
    f75c:	4798      	blx	r3
    f75e:	0003      	movs	r3, r0
    f760:	7023      	strb	r3, [r4, #0]
    f762:	230f      	movs	r3, #15
    f764:	18fb      	adds	r3, r7, r3
    f766:	781b      	ldrb	r3, [r3, #0]
    f768:	2b05      	cmp	r3, #5
    f76a:	d0eb      	beq.n	f744 <_eeprom_emulator_nvm_commit_cache+0x14>
    f76c:	46c0      	nop			; (mov r8, r8)
    f76e:	46bd      	mov	sp, r7
    f770:	b005      	add	sp, #20
    f772:	bd90      	pop	{r4, r7, pc}
    f774:	20000730 	.word	0x20000730
    f778:	0000a4a5 	.word	0x0000a4a5

0000f77c <_eeprom_emulator_nvm_read_page>:
    f77c:	b590      	push	{r4, r7, lr}
    f77e:	b085      	sub	sp, #20
    f780:	af00      	add	r7, sp, #0
    f782:	0002      	movs	r2, r0
    f784:	6039      	str	r1, [r7, #0]
    f786:	1dbb      	adds	r3, r7, #6
    f788:	801a      	strh	r2, [r3, #0]
    f78a:	230f      	movs	r3, #15
    f78c:	18fb      	adds	r3, r7, r3
    f78e:	2200      	movs	r2, #0
    f790:	701a      	strb	r2, [r3, #0]
    f792:	4b0c      	ldr	r3, [pc, #48]	; (f7c4 <_eeprom_emulator_nvm_read_page+0x48>)
    f794:	685a      	ldr	r2, [r3, #4]
    f796:	1dbb      	adds	r3, r7, #6
    f798:	881b      	ldrh	r3, [r3, #0]
    f79a:	019b      	lsls	r3, r3, #6
    f79c:	18d3      	adds	r3, r2, r3
    f79e:	0018      	movs	r0, r3
    f7a0:	230f      	movs	r3, #15
    f7a2:	18fc      	adds	r4, r7, r3
    f7a4:	683b      	ldr	r3, [r7, #0]
    f7a6:	2240      	movs	r2, #64	; 0x40
    f7a8:	0019      	movs	r1, r3
    f7aa:	4b07      	ldr	r3, [pc, #28]	; (f7c8 <_eeprom_emulator_nvm_read_page+0x4c>)
    f7ac:	4798      	blx	r3
    f7ae:	0003      	movs	r3, r0
    f7b0:	7023      	strb	r3, [r4, #0]
    f7b2:	230f      	movs	r3, #15
    f7b4:	18fb      	adds	r3, r7, r3
    f7b6:	781b      	ldrb	r3, [r3, #0]
    f7b8:	2b05      	cmp	r3, #5
    f7ba:	d0ea      	beq.n	f792 <_eeprom_emulator_nvm_read_page+0x16>
    f7bc:	46c0      	nop			; (mov r8, r8)
    f7be:	46bd      	mov	sp, r7
    f7c0:	b005      	add	sp, #20
    f7c2:	bd90      	pop	{r4, r7, pc}
    f7c4:	20000730 	.word	0x20000730
    f7c8:	0000a709 	.word	0x0000a709

0000f7cc <_eeprom_emulator_format_memory>:
    f7cc:	b580      	push	{r7, lr}
    f7ce:	b092      	sub	sp, #72	; 0x48
    f7d0:	af00      	add	r7, sp, #0
    f7d2:	2346      	movs	r3, #70	; 0x46
    f7d4:	18fb      	adds	r3, r7, r3
    f7d6:	2200      	movs	r2, #0
    f7d8:	801a      	strh	r2, [r3, #0]
    f7da:	4b32      	ldr	r3, [pc, #200]	; (f8a4 <_eeprom_emulator_format_memory+0xd8>)
    f7dc:	2287      	movs	r2, #135	; 0x87
    f7de:	2100      	movs	r1, #0
    f7e0:	5499      	strb	r1, [r3, r2]
    f7e2:	4b30      	ldr	r3, [pc, #192]	; (f8a4 <_eeprom_emulator_format_memory+0xd8>)
    f7e4:	2287      	movs	r2, #135	; 0x87
    f7e6:	5c9b      	ldrb	r3, [r3, r2]
    f7e8:	0018      	movs	r0, r3
    f7ea:	4b2f      	ldr	r3, [pc, #188]	; (f8a8 <_eeprom_emulator_format_memory+0xdc>)
    f7ec:	4798      	blx	r3
    f7ee:	2344      	movs	r3, #68	; 0x44
    f7f0:	18fb      	adds	r3, r7, r3
    f7f2:	2204      	movs	r2, #4
    f7f4:	801a      	strh	r2, [r3, #0]
    f7f6:	e04a      	b.n	f88e <_eeprom_emulator_format_memory+0xc2>
    f7f8:	2344      	movs	r3, #68	; 0x44
    f7fa:	18fb      	adds	r3, r7, r3
    f7fc:	881a      	ldrh	r2, [r3, #0]
    f7fe:	4b29      	ldr	r3, [pc, #164]	; (f8a4 <_eeprom_emulator_format_memory+0xd8>)
    f800:	891b      	ldrh	r3, [r3, #8]
    f802:	3b01      	subs	r3, #1
    f804:	429a      	cmp	r2, r3
    f806:	d03a      	beq.n	f87e <_eeprom_emulator_format_memory+0xb2>
    f808:	2344      	movs	r3, #68	; 0x44
    f80a:	18fb      	adds	r3, r7, r3
    f80c:	881b      	ldrh	r3, [r3, #0]
    f80e:	2203      	movs	r2, #3
    f810:	4013      	ands	r3, r2
    f812:	b29b      	uxth	r3, r3
    f814:	2b00      	cmp	r3, #0
    f816:	d108      	bne.n	f82a <_eeprom_emulator_format_memory+0x5e>
    f818:	2344      	movs	r3, #68	; 0x44
    f81a:	18fb      	adds	r3, r7, r3
    f81c:	881b      	ldrh	r3, [r3, #0]
    f81e:	089b      	lsrs	r3, r3, #2
    f820:	b29b      	uxth	r3, r3
    f822:	b2db      	uxtb	r3, r3
    f824:	0018      	movs	r0, r3
    f826:	4b20      	ldr	r3, [pc, #128]	; (f8a8 <_eeprom_emulator_format_memory+0xdc>)
    f828:	4798      	blx	r3
    f82a:	2344      	movs	r3, #68	; 0x44
    f82c:	18fb      	adds	r3, r7, r3
    f82e:	881b      	ldrh	r3, [r3, #0]
    f830:	2203      	movs	r2, #3
    f832:	4013      	ands	r3, r2
    f834:	b29b      	uxth	r3, r3
    f836:	2b01      	cmp	r3, #1
    f838:	d822      	bhi.n	f880 <_eeprom_emulator_format_memory+0xb4>
    f83a:	1d3b      	adds	r3, r7, #4
    f83c:	2240      	movs	r2, #64	; 0x40
    f83e:	21ff      	movs	r1, #255	; 0xff
    f840:	0018      	movs	r0, r3
    f842:	4b1a      	ldr	r3, [pc, #104]	; (f8ac <_eeprom_emulator_format_memory+0xe0>)
    f844:	4798      	blx	r3
    f846:	2346      	movs	r3, #70	; 0x46
    f848:	18fb      	adds	r3, r7, r3
    f84a:	881b      	ldrh	r3, [r3, #0]
    f84c:	b2da      	uxtb	r2, r3
    f84e:	1d3b      	adds	r3, r7, #4
    f850:	701a      	strb	r2, [r3, #0]
    f852:	1d3a      	adds	r2, r7, #4
    f854:	2344      	movs	r3, #68	; 0x44
    f856:	18fb      	adds	r3, r7, r3
    f858:	881b      	ldrh	r3, [r3, #0]
    f85a:	0011      	movs	r1, r2
    f85c:	0018      	movs	r0, r3
    f85e:	4b14      	ldr	r3, [pc, #80]	; (f8b0 <_eeprom_emulator_format_memory+0xe4>)
    f860:	4798      	blx	r3
    f862:	2344      	movs	r3, #68	; 0x44
    f864:	18fb      	adds	r3, r7, r3
    f866:	881b      	ldrh	r3, [r3, #0]
    f868:	0018      	movs	r0, r3
    f86a:	4b12      	ldr	r3, [pc, #72]	; (f8b4 <_eeprom_emulator_format_memory+0xe8>)
    f86c:	4798      	blx	r3
    f86e:	2346      	movs	r3, #70	; 0x46
    f870:	18fb      	adds	r3, r7, r3
    f872:	881a      	ldrh	r2, [r3, #0]
    f874:	2346      	movs	r3, #70	; 0x46
    f876:	18fb      	adds	r3, r7, r3
    f878:	3201      	adds	r2, #1
    f87a:	801a      	strh	r2, [r3, #0]
    f87c:	e000      	b.n	f880 <_eeprom_emulator_format_memory+0xb4>
    f87e:	46c0      	nop			; (mov r8, r8)
    f880:	2344      	movs	r3, #68	; 0x44
    f882:	18fb      	adds	r3, r7, r3
    f884:	881a      	ldrh	r2, [r3, #0]
    f886:	2344      	movs	r3, #68	; 0x44
    f888:	18fb      	adds	r3, r7, r3
    f88a:	3201      	adds	r2, #1
    f88c:	801a      	strh	r2, [r3, #0]
    f88e:	4b05      	ldr	r3, [pc, #20]	; (f8a4 <_eeprom_emulator_format_memory+0xd8>)
    f890:	891b      	ldrh	r3, [r3, #8]
    f892:	2244      	movs	r2, #68	; 0x44
    f894:	18ba      	adds	r2, r7, r2
    f896:	8812      	ldrh	r2, [r2, #0]
    f898:	429a      	cmp	r2, r3
    f89a:	d3ad      	bcc.n	f7f8 <_eeprom_emulator_format_memory+0x2c>
    f89c:	46c0      	nop			; (mov r8, r8)
    f89e:	46bd      	mov	sp, r7
    f8a0:	b012      	add	sp, #72	; 0x48
    f8a2:	bd80      	pop	{r7, pc}
    f8a4:	20000730 	.word	0x20000730
    f8a8:	0000f699 	.word	0x0000f699
    f8ac:	00011c3d 	.word	0x00011c3d
    f8b0:	0000f6e1 	.word	0x0000f6e1
    f8b4:	0000f731 	.word	0x0000f731

0000f8b8 <_eeprom_emulator_is_full_row>:
    f8b8:	b580      	push	{r7, lr}
    f8ba:	b082      	sub	sp, #8
    f8bc:	af00      	add	r7, sp, #0
    f8be:	0002      	movs	r2, r0
    f8c0:	1dbb      	adds	r3, r7, #6
    f8c2:	801a      	strh	r2, [r3, #0]
    f8c4:	4b14      	ldr	r3, [pc, #80]	; (f918 <_eeprom_emulator_is_full_row+0x60>)
    f8c6:	685a      	ldr	r2, [r3, #4]
    f8c8:	1dbb      	adds	r3, r7, #6
    f8ca:	881b      	ldrh	r3, [r3, #0]
    f8cc:	019b      	lsls	r3, r3, #6
    f8ce:	18d3      	adds	r3, r2, r3
    f8d0:	781a      	ldrb	r2, [r3, #0]
    f8d2:	4b11      	ldr	r3, [pc, #68]	; (f918 <_eeprom_emulator_is_full_row+0x60>)
    f8d4:	6859      	ldr	r1, [r3, #4]
    f8d6:	1dbb      	adds	r3, r7, #6
    f8d8:	881b      	ldrh	r3, [r3, #0]
    f8da:	3302      	adds	r3, #2
    f8dc:	019b      	lsls	r3, r3, #6
    f8de:	18cb      	adds	r3, r1, r3
    f8e0:	781b      	ldrb	r3, [r3, #0]
    f8e2:	429a      	cmp	r2, r3
    f8e4:	d011      	beq.n	f90a <_eeprom_emulator_is_full_row+0x52>
    f8e6:	4b0c      	ldr	r3, [pc, #48]	; (f918 <_eeprom_emulator_is_full_row+0x60>)
    f8e8:	685a      	ldr	r2, [r3, #4]
    f8ea:	1dbb      	adds	r3, r7, #6
    f8ec:	881b      	ldrh	r3, [r3, #0]
    f8ee:	3301      	adds	r3, #1
    f8f0:	019b      	lsls	r3, r3, #6
    f8f2:	18d3      	adds	r3, r2, r3
    f8f4:	781a      	ldrb	r2, [r3, #0]
    f8f6:	4b08      	ldr	r3, [pc, #32]	; (f918 <_eeprom_emulator_is_full_row+0x60>)
    f8f8:	6859      	ldr	r1, [r3, #4]
    f8fa:	1dbb      	adds	r3, r7, #6
    f8fc:	881b      	ldrh	r3, [r3, #0]
    f8fe:	3302      	adds	r3, #2
    f900:	019b      	lsls	r3, r3, #6
    f902:	18cb      	adds	r3, r1, r3
    f904:	781b      	ldrb	r3, [r3, #0]
    f906:	429a      	cmp	r2, r3
    f908:	d101      	bne.n	f90e <_eeprom_emulator_is_full_row+0x56>
    f90a:	2301      	movs	r3, #1
    f90c:	e000      	b.n	f910 <_eeprom_emulator_is_full_row+0x58>
    f90e:	2300      	movs	r3, #0
    f910:	0018      	movs	r0, r3
    f912:	46bd      	mov	sp, r7
    f914:	b002      	add	sp, #8
    f916:	bd80      	pop	{r7, pc}
    f918:	20000730 	.word	0x20000730

0000f91c <_eeprom_emulator_erase_invalid_page>:
    f91c:	b580      	push	{r7, lr}
    f91e:	b082      	sub	sp, #8
    f920:	af00      	add	r7, sp, #0
    f922:	0002      	movs	r2, r0
    f924:	1dbb      	adds	r3, r7, #6
    f926:	801a      	strh	r2, [r3, #0]
    f928:	1d3b      	adds	r3, r7, #4
    f92a:	1c0a      	adds	r2, r1, #0
    f92c:	801a      	strh	r2, [r3, #0]
    f92e:	1dbb      	adds	r3, r7, #6
    f930:	881b      	ldrh	r3, [r3, #0]
    f932:	0018      	movs	r0, r3
    f934:	4b0c      	ldr	r3, [pc, #48]	; (f968 <_eeprom_emulator_erase_invalid_page+0x4c>)
    f936:	4798      	blx	r3
    f938:	1e03      	subs	r3, r0, #0
    f93a:	d008      	beq.n	f94e <_eeprom_emulator_erase_invalid_page+0x32>
    f93c:	1dbb      	adds	r3, r7, #6
    f93e:	881b      	ldrh	r3, [r3, #0]
    f940:	089b      	lsrs	r3, r3, #2
    f942:	b29b      	uxth	r3, r3
    f944:	b2db      	uxtb	r3, r3
    f946:	0018      	movs	r0, r3
    f948:	4b08      	ldr	r3, [pc, #32]	; (f96c <_eeprom_emulator_erase_invalid_page+0x50>)
    f94a:	4798      	blx	r3
    f94c:	e007      	b.n	f95e <_eeprom_emulator_erase_invalid_page+0x42>
    f94e:	1d3b      	adds	r3, r7, #4
    f950:	881b      	ldrh	r3, [r3, #0]
    f952:	089b      	lsrs	r3, r3, #2
    f954:	b29b      	uxth	r3, r3
    f956:	b2db      	uxtb	r3, r3
    f958:	0018      	movs	r0, r3
    f95a:	4b04      	ldr	r3, [pc, #16]	; (f96c <_eeprom_emulator_erase_invalid_page+0x50>)
    f95c:	4798      	blx	r3
    f95e:	46c0      	nop			; (mov r8, r8)
    f960:	46bd      	mov	sp, r7
    f962:	b002      	add	sp, #8
    f964:	bd80      	pop	{r7, pc}
    f966:	46c0      	nop			; (mov r8, r8)
    f968:	0000f8b9 	.word	0x0000f8b9
    f96c:	0000f699 	.word	0x0000f699

0000f970 <_eeprom_emulator_check_logical_page>:
    f970:	b580      	push	{r7, lr}
    f972:	b082      	sub	sp, #8
    f974:	af00      	add	r7, sp, #0
    f976:	1dbb      	adds	r3, r7, #6
    f978:	2200      	movs	r2, #0
    f97a:	801a      	strh	r2, [r3, #0]
    f97c:	1d3b      	adds	r3, r7, #4
    f97e:	2200      	movs	r2, #0
    f980:	801a      	strh	r2, [r3, #0]
    f982:	1dbb      	adds	r3, r7, #6
    f984:	2200      	movs	r2, #0
    f986:	801a      	strh	r2, [r3, #0]
    f988:	e04a      	b.n	fa20 <_eeprom_emulator_check_logical_page+0xb0>
    f98a:	4b2a      	ldr	r3, [pc, #168]	; (fa34 <_eeprom_emulator_check_logical_page+0xc4>)
    f98c:	685a      	ldr	r2, [r3, #4]
    f98e:	1dbb      	adds	r3, r7, #6
    f990:	881b      	ldrh	r3, [r3, #0]
    f992:	019b      	lsls	r3, r3, #6
    f994:	18d3      	adds	r3, r2, r3
    f996:	781a      	ldrb	r2, [r3, #0]
    f998:	1cbb      	adds	r3, r7, #2
    f99a:	801a      	strh	r2, [r3, #0]
    f99c:	1cbb      	adds	r3, r7, #2
    f99e:	881b      	ldrh	r3, [r3, #0]
    f9a0:	2bff      	cmp	r3, #255	; 0xff
    f9a2:	d037      	beq.n	fa14 <_eeprom_emulator_check_logical_page+0xa4>
    f9a4:	1d3b      	adds	r3, r7, #4
    f9a6:	1dba      	adds	r2, r7, #6
    f9a8:	8812      	ldrh	r2, [r2, #0]
    f9aa:	3204      	adds	r2, #4
    f9ac:	801a      	strh	r2, [r3, #0]
    f9ae:	e02a      	b.n	fa06 <_eeprom_emulator_check_logical_page+0x96>
    f9b0:	1d3b      	adds	r3, r7, #4
    f9b2:	881a      	ldrh	r2, [r3, #0]
    f9b4:	4b1f      	ldr	r3, [pc, #124]	; (fa34 <_eeprom_emulator_check_logical_page+0xc4>)
    f9b6:	891b      	ldrh	r3, [r3, #8]
    f9b8:	3b01      	subs	r3, #1
    f9ba:	429a      	cmp	r2, r3
    f9bc:	d01b      	beq.n	f9f6 <_eeprom_emulator_check_logical_page+0x86>
    f9be:	4b1d      	ldr	r3, [pc, #116]	; (fa34 <_eeprom_emulator_check_logical_page+0xc4>)
    f9c0:	685a      	ldr	r2, [r3, #4]
    f9c2:	1d3b      	adds	r3, r7, #4
    f9c4:	881b      	ldrh	r3, [r3, #0]
    f9c6:	019b      	lsls	r3, r3, #6
    f9c8:	18d3      	adds	r3, r2, r3
    f9ca:	781a      	ldrb	r2, [r3, #0]
    f9cc:	003b      	movs	r3, r7
    f9ce:	801a      	strh	r2, [r3, #0]
    f9d0:	003b      	movs	r3, r7
    f9d2:	881b      	ldrh	r3, [r3, #0]
    f9d4:	2bff      	cmp	r3, #255	; 0xff
    f9d6:	d010      	beq.n	f9fa <_eeprom_emulator_check_logical_page+0x8a>
    f9d8:	1cba      	adds	r2, r7, #2
    f9da:	003b      	movs	r3, r7
    f9dc:	8812      	ldrh	r2, [r2, #0]
    f9de:	881b      	ldrh	r3, [r3, #0]
    f9e0:	429a      	cmp	r2, r3
    f9e2:	d10b      	bne.n	f9fc <_eeprom_emulator_check_logical_page+0x8c>
    f9e4:	1d3b      	adds	r3, r7, #4
    f9e6:	881a      	ldrh	r2, [r3, #0]
    f9e8:	1dbb      	adds	r3, r7, #6
    f9ea:	881b      	ldrh	r3, [r3, #0]
    f9ec:	0011      	movs	r1, r2
    f9ee:	0018      	movs	r0, r3
    f9f0:	4b11      	ldr	r3, [pc, #68]	; (fa38 <_eeprom_emulator_check_logical_page+0xc8>)
    f9f2:	4798      	blx	r3
    f9f4:	e002      	b.n	f9fc <_eeprom_emulator_check_logical_page+0x8c>
    f9f6:	46c0      	nop			; (mov r8, r8)
    f9f8:	e000      	b.n	f9fc <_eeprom_emulator_check_logical_page+0x8c>
    f9fa:	46c0      	nop			; (mov r8, r8)
    f9fc:	1d3b      	adds	r3, r7, #4
    f9fe:	1d3a      	adds	r2, r7, #4
    fa00:	8812      	ldrh	r2, [r2, #0]
    fa02:	3204      	adds	r2, #4
    fa04:	801a      	strh	r2, [r3, #0]
    fa06:	4b0b      	ldr	r3, [pc, #44]	; (fa34 <_eeprom_emulator_check_logical_page+0xc4>)
    fa08:	891b      	ldrh	r3, [r3, #8]
    fa0a:	1d3a      	adds	r2, r7, #4
    fa0c:	8812      	ldrh	r2, [r2, #0]
    fa0e:	429a      	cmp	r2, r3
    fa10:	d3ce      	bcc.n	f9b0 <_eeprom_emulator_check_logical_page+0x40>
    fa12:	e000      	b.n	fa16 <_eeprom_emulator_check_logical_page+0xa6>
    fa14:	46c0      	nop			; (mov r8, r8)
    fa16:	1dbb      	adds	r3, r7, #6
    fa18:	1dba      	adds	r2, r7, #6
    fa1a:	8812      	ldrh	r2, [r2, #0]
    fa1c:	3204      	adds	r2, #4
    fa1e:	801a      	strh	r2, [r3, #0]
    fa20:	4b04      	ldr	r3, [pc, #16]	; (fa34 <_eeprom_emulator_check_logical_page+0xc4>)
    fa22:	891b      	ldrh	r3, [r3, #8]
    fa24:	1dba      	adds	r2, r7, #6
    fa26:	8812      	ldrh	r2, [r2, #0]
    fa28:	429a      	cmp	r2, r3
    fa2a:	d3ae      	bcc.n	f98a <_eeprom_emulator_check_logical_page+0x1a>
    fa2c:	46c0      	nop			; (mov r8, r8)
    fa2e:	46bd      	mov	sp, r7
    fa30:	b002      	add	sp, #8
    fa32:	bd80      	pop	{r7, pc}
    fa34:	20000730 	.word	0x20000730
    fa38:	0000f91d 	.word	0x0000f91d

0000fa3c <_eeprom_emulator_update_page_mapping>:
    fa3c:	b580      	push	{r7, lr}
    fa3e:	b084      	sub	sp, #16
    fa40:	af00      	add	r7, sp, #0
    fa42:	4b51      	ldr	r3, [pc, #324]	; (fb88 <_eeprom_emulator_update_page_mapping+0x14c>)
    fa44:	4798      	blx	r3
    fa46:	230e      	movs	r3, #14
    fa48:	18fb      	adds	r3, r7, r3
    fa4a:	2200      	movs	r2, #0
    fa4c:	801a      	strh	r2, [r3, #0]
    fa4e:	e033      	b.n	fab8 <_eeprom_emulator_update_page_mapping+0x7c>
    fa50:	230e      	movs	r3, #14
    fa52:	18fb      	adds	r3, r7, r3
    fa54:	881a      	ldrh	r2, [r3, #0]
    fa56:	4b4d      	ldr	r3, [pc, #308]	; (fb8c <_eeprom_emulator_update_page_mapping+0x150>)
    fa58:	891b      	ldrh	r3, [r3, #8]
    fa5a:	3b01      	subs	r3, #1
    fa5c:	429a      	cmp	r2, r3
    fa5e:	d023      	beq.n	faa8 <_eeprom_emulator_update_page_mapping+0x6c>
    fa60:	4b4a      	ldr	r3, [pc, #296]	; (fb8c <_eeprom_emulator_update_page_mapping+0x150>)
    fa62:	685a      	ldr	r2, [r3, #4]
    fa64:	230e      	movs	r3, #14
    fa66:	18fb      	adds	r3, r7, r3
    fa68:	881b      	ldrh	r3, [r3, #0]
    fa6a:	019b      	lsls	r3, r3, #6
    fa6c:	18d3      	adds	r3, r2, r3
    fa6e:	781a      	ldrb	r2, [r3, #0]
    fa70:	2308      	movs	r3, #8
    fa72:	18fb      	adds	r3, r7, r3
    fa74:	801a      	strh	r2, [r3, #0]
    fa76:	2308      	movs	r3, #8
    fa78:	18fb      	adds	r3, r7, r3
    fa7a:	881b      	ldrh	r3, [r3, #0]
    fa7c:	2bff      	cmp	r3, #255	; 0xff
    fa7e:	d014      	beq.n	faaa <_eeprom_emulator_update_page_mapping+0x6e>
    fa80:	4b42      	ldr	r3, [pc, #264]	; (fb8c <_eeprom_emulator_update_page_mapping+0x150>)
    fa82:	7a9b      	ldrb	r3, [r3, #10]
    fa84:	b29b      	uxth	r3, r3
    fa86:	2208      	movs	r2, #8
    fa88:	18ba      	adds	r2, r7, r2
    fa8a:	8812      	ldrh	r2, [r2, #0]
    fa8c:	429a      	cmp	r2, r3
    fa8e:	d20c      	bcs.n	faaa <_eeprom_emulator_update_page_mapping+0x6e>
    fa90:	2308      	movs	r3, #8
    fa92:	18fb      	adds	r3, r7, r3
    fa94:	881b      	ldrh	r3, [r3, #0]
    fa96:	220e      	movs	r2, #14
    fa98:	18ba      	adds	r2, r7, r2
    fa9a:	8812      	ldrh	r2, [r2, #0]
    fa9c:	b2d1      	uxtb	r1, r2
    fa9e:	4a3b      	ldr	r2, [pc, #236]	; (fb8c <_eeprom_emulator_update_page_mapping+0x150>)
    faa0:	18d3      	adds	r3, r2, r3
    faa2:	1c0a      	adds	r2, r1, #0
    faa4:	72da      	strb	r2, [r3, #11]
    faa6:	e000      	b.n	faaa <_eeprom_emulator_update_page_mapping+0x6e>
    faa8:	46c0      	nop			; (mov r8, r8)
    faaa:	230e      	movs	r3, #14
    faac:	18fb      	adds	r3, r7, r3
    faae:	881a      	ldrh	r2, [r3, #0]
    fab0:	230e      	movs	r3, #14
    fab2:	18fb      	adds	r3, r7, r3
    fab4:	3201      	adds	r2, #1
    fab6:	801a      	strh	r2, [r3, #0]
    fab8:	4b34      	ldr	r3, [pc, #208]	; (fb8c <_eeprom_emulator_update_page_mapping+0x150>)
    faba:	891b      	ldrh	r3, [r3, #8]
    fabc:	220e      	movs	r2, #14
    fabe:	18ba      	adds	r2, r7, r2
    fac0:	8812      	ldrh	r2, [r2, #0]
    fac2:	429a      	cmp	r2, r3
    fac4:	d3c4      	bcc.n	fa50 <_eeprom_emulator_update_page_mapping+0x14>
    fac6:	4b31      	ldr	r3, [pc, #196]	; (fb8c <_eeprom_emulator_update_page_mapping+0x150>)
    fac8:	2287      	movs	r2, #135	; 0x87
    faca:	213f      	movs	r1, #63	; 0x3f
    facc:	5499      	strb	r1, [r3, r2]
    face:	230c      	movs	r3, #12
    fad0:	18fb      	adds	r3, r7, r3
    fad2:	2200      	movs	r2, #0
    fad4:	801a      	strh	r2, [r3, #0]
    fad6:	e04a      	b.n	fb6e <_eeprom_emulator_update_page_mapping+0x132>
    fad8:	230b      	movs	r3, #11
    fada:	18fb      	adds	r3, r7, r3
    fadc:	2201      	movs	r2, #1
    fade:	701a      	strb	r2, [r3, #0]
    fae0:	230a      	movs	r3, #10
    fae2:	18fb      	adds	r3, r7, r3
    fae4:	2200      	movs	r2, #0
    fae6:	701a      	strb	r2, [r3, #0]
    fae8:	e028      	b.n	fb3c <_eeprom_emulator_update_page_mapping+0x100>
    faea:	230c      	movs	r3, #12
    faec:	18fb      	adds	r3, r7, r3
    faee:	881b      	ldrh	r3, [r3, #0]
    faf0:	009b      	lsls	r3, r3, #2
    faf2:	b299      	uxth	r1, r3
    faf4:	230a      	movs	r3, #10
    faf6:	18fb      	adds	r3, r7, r3
    faf8:	781b      	ldrb	r3, [r3, #0]
    fafa:	b29a      	uxth	r2, r3
    fafc:	1dbb      	adds	r3, r7, #6
    fafe:	188a      	adds	r2, r1, r2
    fb00:	801a      	strh	r2, [r3, #0]
    fb02:	1dbb      	adds	r3, r7, #6
    fb04:	881a      	ldrh	r2, [r3, #0]
    fb06:	4b21      	ldr	r3, [pc, #132]	; (fb8c <_eeprom_emulator_update_page_mapping+0x150>)
    fb08:	891b      	ldrh	r3, [r3, #8]
    fb0a:	3b01      	subs	r3, #1
    fb0c:	429a      	cmp	r2, r3
    fb0e:	d00d      	beq.n	fb2c <_eeprom_emulator_update_page_mapping+0xf0>
    fb10:	4b1e      	ldr	r3, [pc, #120]	; (fb8c <_eeprom_emulator_update_page_mapping+0x150>)
    fb12:	685a      	ldr	r2, [r3, #4]
    fb14:	1dbb      	adds	r3, r7, #6
    fb16:	881b      	ldrh	r3, [r3, #0]
    fb18:	019b      	lsls	r3, r3, #6
    fb1a:	18d3      	adds	r3, r2, r3
    fb1c:	781b      	ldrb	r3, [r3, #0]
    fb1e:	2bff      	cmp	r3, #255	; 0xff
    fb20:	d005      	beq.n	fb2e <_eeprom_emulator_update_page_mapping+0xf2>
    fb22:	230b      	movs	r3, #11
    fb24:	18fb      	adds	r3, r7, r3
    fb26:	2200      	movs	r2, #0
    fb28:	701a      	strb	r2, [r3, #0]
    fb2a:	e000      	b.n	fb2e <_eeprom_emulator_update_page_mapping+0xf2>
    fb2c:	46c0      	nop			; (mov r8, r8)
    fb2e:	230a      	movs	r3, #10
    fb30:	18fb      	adds	r3, r7, r3
    fb32:	781a      	ldrb	r2, [r3, #0]
    fb34:	230a      	movs	r3, #10
    fb36:	18fb      	adds	r3, r7, r3
    fb38:	3201      	adds	r2, #1
    fb3a:	701a      	strb	r2, [r3, #0]
    fb3c:	230a      	movs	r3, #10
    fb3e:	18fb      	adds	r3, r7, r3
    fb40:	781b      	ldrb	r3, [r3, #0]
    fb42:	2b03      	cmp	r3, #3
    fb44:	d9d1      	bls.n	faea <_eeprom_emulator_update_page_mapping+0xae>
    fb46:	230b      	movs	r3, #11
    fb48:	18fb      	adds	r3, r7, r3
    fb4a:	781b      	ldrb	r3, [r3, #0]
    fb4c:	2b00      	cmp	r3, #0
    fb4e:	d007      	beq.n	fb60 <_eeprom_emulator_update_page_mapping+0x124>
    fb50:	230c      	movs	r3, #12
    fb52:	18fb      	adds	r3, r7, r3
    fb54:	881b      	ldrh	r3, [r3, #0]
    fb56:	b2d9      	uxtb	r1, r3
    fb58:	4b0c      	ldr	r3, [pc, #48]	; (fb8c <_eeprom_emulator_update_page_mapping+0x150>)
    fb5a:	2287      	movs	r2, #135	; 0x87
    fb5c:	5499      	strb	r1, [r3, r2]
    fb5e:	e00f      	b.n	fb80 <_eeprom_emulator_update_page_mapping+0x144>
    fb60:	230c      	movs	r3, #12
    fb62:	18fb      	adds	r3, r7, r3
    fb64:	881a      	ldrh	r2, [r3, #0]
    fb66:	230c      	movs	r3, #12
    fb68:	18fb      	adds	r3, r7, r3
    fb6a:	3201      	adds	r2, #1
    fb6c:	801a      	strh	r2, [r3, #0]
    fb6e:	4b07      	ldr	r3, [pc, #28]	; (fb8c <_eeprom_emulator_update_page_mapping+0x150>)
    fb70:	891b      	ldrh	r3, [r3, #8]
    fb72:	089b      	lsrs	r3, r3, #2
    fb74:	b29b      	uxth	r3, r3
    fb76:	220c      	movs	r2, #12
    fb78:	18ba      	adds	r2, r7, r2
    fb7a:	8812      	ldrh	r2, [r2, #0]
    fb7c:	429a      	cmp	r2, r3
    fb7e:	d3ab      	bcc.n	fad8 <_eeprom_emulator_update_page_mapping+0x9c>
    fb80:	46c0      	nop			; (mov r8, r8)
    fb82:	46bd      	mov	sp, r7
    fb84:	b004      	add	sp, #16
    fb86:	bd80      	pop	{r7, pc}
    fb88:	0000f971 	.word	0x0000f971
    fb8c:	20000730 	.word	0x20000730

0000fb90 <_eeprom_emulator_create_master_page>:
    fb90:	b590      	push	{r4, r7, lr}
    fb92:	b095      	sub	sp, #84	; 0x54
    fb94:	af00      	add	r7, sp, #0
    fb96:	2340      	movs	r3, #64	; 0x40
    fb98:	18fb      	adds	r3, r7, r3
    fb9a:	4a29      	ldr	r2, [pc, #164]	; (fc40 <_eeprom_emulator_create_master_page+0xb0>)
    fb9c:	ca13      	ldmia	r2!, {r0, r1, r4}
    fb9e:	c313      	stmia	r3!, {r0, r1, r4}
    fba0:	003b      	movs	r3, r7
    fba2:	2240      	movs	r2, #64	; 0x40
    fba4:	21ff      	movs	r1, #255	; 0xff
    fba6:	0018      	movs	r0, r3
    fba8:	4b26      	ldr	r3, [pc, #152]	; (fc44 <_eeprom_emulator_create_master_page+0xb4>)
    fbaa:	4798      	blx	r3
    fbac:	234f      	movs	r3, #79	; 0x4f
    fbae:	18fb      	adds	r3, r7, r3
    fbb0:	2200      	movs	r2, #0
    fbb2:	701a      	strb	r2, [r3, #0]
    fbb4:	e013      	b.n	fbde <_eeprom_emulator_create_master_page+0x4e>
    fbb6:	234f      	movs	r3, #79	; 0x4f
    fbb8:	18fb      	adds	r3, r7, r3
    fbba:	781a      	ldrb	r2, [r3, #0]
    fbbc:	234f      	movs	r3, #79	; 0x4f
    fbbe:	18fb      	adds	r3, r7, r3
    fbc0:	7819      	ldrb	r1, [r3, #0]
    fbc2:	2340      	movs	r3, #64	; 0x40
    fbc4:	18fb      	adds	r3, r7, r3
    fbc6:	0089      	lsls	r1, r1, #2
    fbc8:	58c9      	ldr	r1, [r1, r3]
    fbca:	003b      	movs	r3, r7
    fbcc:	0092      	lsls	r2, r2, #2
    fbce:	50d1      	str	r1, [r2, r3]
    fbd0:	234f      	movs	r3, #79	; 0x4f
    fbd2:	18fb      	adds	r3, r7, r3
    fbd4:	781a      	ldrb	r2, [r3, #0]
    fbd6:	234f      	movs	r3, #79	; 0x4f
    fbd8:	18fb      	adds	r3, r7, r3
    fbda:	3201      	adds	r2, #1
    fbdc:	701a      	strb	r2, [r3, #0]
    fbde:	234f      	movs	r3, #79	; 0x4f
    fbe0:	18fb      	adds	r3, r7, r3
    fbe2:	781b      	ldrb	r3, [r3, #0]
    fbe4:	2b02      	cmp	r3, #2
    fbe6:	d9e6      	bls.n	fbb6 <_eeprom_emulator_create_master_page+0x26>
    fbe8:	003b      	movs	r3, r7
    fbea:	2201      	movs	r2, #1
    fbec:	73da      	strb	r2, [r3, #15]
    fbee:	003b      	movs	r3, r7
    fbf0:	2201      	movs	r2, #1
    fbf2:	731a      	strb	r2, [r3, #12]
    fbf4:	003b      	movs	r3, r7
    fbf6:	2200      	movs	r2, #0
    fbf8:	735a      	strb	r2, [r3, #13]
    fbfa:	003b      	movs	r3, r7
    fbfc:	2200      	movs	r2, #0
    fbfe:	739a      	strb	r2, [r3, #14]
    fc00:	4b11      	ldr	r3, [pc, #68]	; (fc48 <_eeprom_emulator_create_master_page+0xb8>)
    fc02:	891b      	ldrh	r3, [r3, #8]
    fc04:	3b01      	subs	r3, #1
    fc06:	2b00      	cmp	r3, #0
    fc08:	da00      	bge.n	fc0c <_eeprom_emulator_create_master_page+0x7c>
    fc0a:	3303      	adds	r3, #3
    fc0c:	109b      	asrs	r3, r3, #2
    fc0e:	b2db      	uxtb	r3, r3
    fc10:	0018      	movs	r0, r3
    fc12:	4b0e      	ldr	r3, [pc, #56]	; (fc4c <_eeprom_emulator_create_master_page+0xbc>)
    fc14:	4798      	blx	r3
    fc16:	4b0c      	ldr	r3, [pc, #48]	; (fc48 <_eeprom_emulator_create_master_page+0xb8>)
    fc18:	891b      	ldrh	r3, [r3, #8]
    fc1a:	3b01      	subs	r3, #1
    fc1c:	b29b      	uxth	r3, r3
    fc1e:	003a      	movs	r2, r7
    fc20:	0011      	movs	r1, r2
    fc22:	0018      	movs	r0, r3
    fc24:	4b0a      	ldr	r3, [pc, #40]	; (fc50 <_eeprom_emulator_create_master_page+0xc0>)
    fc26:	4798      	blx	r3
    fc28:	4b07      	ldr	r3, [pc, #28]	; (fc48 <_eeprom_emulator_create_master_page+0xb8>)
    fc2a:	891b      	ldrh	r3, [r3, #8]
    fc2c:	3b01      	subs	r3, #1
    fc2e:	b29b      	uxth	r3, r3
    fc30:	0018      	movs	r0, r3
    fc32:	4b08      	ldr	r3, [pc, #32]	; (fc54 <_eeprom_emulator_create_master_page+0xc4>)
    fc34:	4798      	blx	r3
    fc36:	46c0      	nop			; (mov r8, r8)
    fc38:	46bd      	mov	sp, r7
    fc3a:	b015      	add	sp, #84	; 0x54
    fc3c:	bd90      	pop	{r4, r7, pc}
    fc3e:	46c0      	nop			; (mov r8, r8)
    fc40:	000124d8 	.word	0x000124d8
    fc44:	00011c3d 	.word	0x00011c3d
    fc48:	20000730 	.word	0x20000730
    fc4c:	0000f699 	.word	0x0000f699
    fc50:	0000f6e1 	.word	0x0000f6e1
    fc54:	0000f731 	.word	0x0000f731

0000fc58 <_eeprom_emulator_verify_master_page>:
    fc58:	b590      	push	{r4, r7, lr}
    fc5a:	b095      	sub	sp, #84	; 0x54
    fc5c:	af00      	add	r7, sp, #0
    fc5e:	2340      	movs	r3, #64	; 0x40
    fc60:	18fb      	adds	r3, r7, r3
    fc62:	4a22      	ldr	r2, [pc, #136]	; (fcec <_eeprom_emulator_verify_master_page+0x94>)
    fc64:	ca13      	ldmia	r2!, {r0, r1, r4}
    fc66:	c313      	stmia	r3!, {r0, r1, r4}
    fc68:	4b21      	ldr	r3, [pc, #132]	; (fcf0 <_eeprom_emulator_verify_master_page+0x98>)
    fc6a:	891b      	ldrh	r3, [r3, #8]
    fc6c:	3b01      	subs	r3, #1
    fc6e:	b29b      	uxth	r3, r3
    fc70:	003a      	movs	r2, r7
    fc72:	0011      	movs	r1, r2
    fc74:	0018      	movs	r0, r3
    fc76:	4b1f      	ldr	r3, [pc, #124]	; (fcf4 <_eeprom_emulator_verify_master_page+0x9c>)
    fc78:	4798      	blx	r3
    fc7a:	234f      	movs	r3, #79	; 0x4f
    fc7c:	18fb      	adds	r3, r7, r3
    fc7e:	2200      	movs	r2, #0
    fc80:	701a      	strb	r2, [r3, #0]
    fc82:	e017      	b.n	fcb4 <_eeprom_emulator_verify_master_page+0x5c>
    fc84:	234f      	movs	r3, #79	; 0x4f
    fc86:	18fb      	adds	r3, r7, r3
    fc88:	781a      	ldrb	r2, [r3, #0]
    fc8a:	003b      	movs	r3, r7
    fc8c:	0092      	lsls	r2, r2, #2
    fc8e:	58d2      	ldr	r2, [r2, r3]
    fc90:	234f      	movs	r3, #79	; 0x4f
    fc92:	18fb      	adds	r3, r7, r3
    fc94:	7819      	ldrb	r1, [r3, #0]
    fc96:	2340      	movs	r3, #64	; 0x40
    fc98:	18fb      	adds	r3, r7, r3
    fc9a:	0089      	lsls	r1, r1, #2
    fc9c:	58cb      	ldr	r3, [r1, r3]
    fc9e:	429a      	cmp	r2, r3
    fca0:	d001      	beq.n	fca6 <_eeprom_emulator_verify_master_page+0x4e>
    fca2:	231a      	movs	r3, #26
    fca4:	e01e      	b.n	fce4 <_eeprom_emulator_verify_master_page+0x8c>
    fca6:	234f      	movs	r3, #79	; 0x4f
    fca8:	18fb      	adds	r3, r7, r3
    fcaa:	781a      	ldrb	r2, [r3, #0]
    fcac:	234f      	movs	r3, #79	; 0x4f
    fcae:	18fb      	adds	r3, r7, r3
    fcb0:	3201      	adds	r2, #1
    fcb2:	701a      	strb	r2, [r3, #0]
    fcb4:	234f      	movs	r3, #79	; 0x4f
    fcb6:	18fb      	adds	r3, r7, r3
    fcb8:	781b      	ldrb	r3, [r3, #0]
    fcba:	2b02      	cmp	r3, #2
    fcbc:	d9e2      	bls.n	fc84 <_eeprom_emulator_verify_master_page+0x2c>
    fcbe:	003b      	movs	r3, r7
    fcc0:	7bdb      	ldrb	r3, [r3, #15]
    fcc2:	2b01      	cmp	r3, #1
    fcc4:	d001      	beq.n	fcca <_eeprom_emulator_verify_master_page+0x72>
    fcc6:	2310      	movs	r3, #16
    fcc8:	e00c      	b.n	fce4 <_eeprom_emulator_verify_master_page+0x8c>
    fcca:	003b      	movs	r3, r7
    fccc:	7b1b      	ldrb	r3, [r3, #12]
    fcce:	2b01      	cmp	r3, #1
    fcd0:	d001      	beq.n	fcd6 <_eeprom_emulator_verify_master_page+0x7e>
    fcd2:	2310      	movs	r3, #16
    fcd4:	e006      	b.n	fce4 <_eeprom_emulator_verify_master_page+0x8c>
    fcd6:	003b      	movs	r3, r7
    fcd8:	7b5b      	ldrb	r3, [r3, #13]
    fcda:	2b00      	cmp	r3, #0
    fcdc:	d001      	beq.n	fce2 <_eeprom_emulator_verify_master_page+0x8a>
    fcde:	2310      	movs	r3, #16
    fce0:	e000      	b.n	fce4 <_eeprom_emulator_verify_master_page+0x8c>
    fce2:	2300      	movs	r3, #0
    fce4:	0018      	movs	r0, r3
    fce6:	46bd      	mov	sp, r7
    fce8:	b015      	add	sp, #84	; 0x54
    fcea:	bd90      	pop	{r4, r7, pc}
    fcec:	000124d8 	.word	0x000124d8
    fcf0:	20000730 	.word	0x20000730
    fcf4:	0000f77d 	.word	0x0000f77d

0000fcf8 <eeprom_emulator_init>:
    fcf8:	b590      	push	{r4, r7, lr}
    fcfa:	b087      	sub	sp, #28
    fcfc:	af00      	add	r7, sp, #0
    fcfe:	2317      	movs	r3, #23
    fd00:	18fb      	adds	r3, r7, r3
    fd02:	2200      	movs	r2, #0
    fd04:	701a      	strb	r2, [r3, #0]
    fd06:	2310      	movs	r3, #16
    fd08:	18fb      	adds	r3, r7, r3
    fd0a:	0018      	movs	r0, r3
    fd0c:	4b2e      	ldr	r3, [pc, #184]	; (fdc8 <eeprom_emulator_init+0xd0>)
    fd0e:	4798      	blx	r3
    fd10:	2310      	movs	r3, #16
    fd12:	18fb      	adds	r3, r7, r3
    fd14:	2201      	movs	r2, #1
    fd16:	705a      	strb	r2, [r3, #1]
    fd18:	2317      	movs	r3, #23
    fd1a:	18fc      	adds	r4, r7, r3
    fd1c:	2310      	movs	r3, #16
    fd1e:	18fb      	adds	r3, r7, r3
    fd20:	0018      	movs	r0, r3
    fd22:	4b2a      	ldr	r3, [pc, #168]	; (fdcc <eeprom_emulator_init+0xd4>)
    fd24:	4798      	blx	r3
    fd26:	0003      	movs	r3, r0
    fd28:	7023      	strb	r3, [r4, #0]
    fd2a:	2317      	movs	r3, #23
    fd2c:	18fb      	adds	r3, r7, r3
    fd2e:	781b      	ldrb	r3, [r3, #0]
    fd30:	2b05      	cmp	r3, #5
    fd32:	d0f1      	beq.n	fd18 <eeprom_emulator_init+0x20>
    fd34:	1d3b      	adds	r3, r7, #4
    fd36:	0018      	movs	r0, r3
    fd38:	4b25      	ldr	r3, [pc, #148]	; (fdd0 <eeprom_emulator_init+0xd8>)
    fd3a:	4798      	blx	r3
    fd3c:	1d3b      	adds	r3, r7, #4
    fd3e:	685b      	ldr	r3, [r3, #4]
    fd40:	2b0b      	cmp	r3, #11
    fd42:	d801      	bhi.n	fd48 <eeprom_emulator_init+0x50>
    fd44:	2316      	movs	r3, #22
    fd46:	e03b      	b.n	fdc0 <eeprom_emulator_init+0xc8>
    fd48:	1d3b      	adds	r3, r7, #4
    fd4a:	685b      	ldr	r3, [r3, #4]
    fd4c:	b29a      	uxth	r2, r3
    fd4e:	4b21      	ldr	r3, [pc, #132]	; (fdd4 <eeprom_emulator_init+0xdc>)
    fd50:	811a      	strh	r2, [r3, #8]
    fd52:	1d3b      	adds	r3, r7, #4
    fd54:	685b      	ldr	r3, [r3, #4]
    fd56:	3b08      	subs	r3, #8
    fd58:	085b      	lsrs	r3, r3, #1
    fd5a:	b2da      	uxtb	r2, r3
    fd5c:	4b1d      	ldr	r3, [pc, #116]	; (fdd4 <eeprom_emulator_init+0xdc>)
    fd5e:	729a      	strb	r2, [r3, #10]
    fd60:	4b1c      	ldr	r3, [pc, #112]	; (fdd4 <eeprom_emulator_init+0xdc>)
    fd62:	891b      	ldrh	r3, [r3, #8]
    fd64:	001a      	movs	r2, r3
    fd66:	0013      	movs	r3, r2
    fd68:	069b      	lsls	r3, r3, #26
    fd6a:	1a9b      	subs	r3, r3, r2
    fd6c:	019b      	lsls	r3, r3, #6
    fd6e:	2280      	movs	r2, #128	; 0x80
    fd70:	02d2      	lsls	r2, r2, #11
    fd72:	4694      	mov	ip, r2
    fd74:	4463      	add	r3, ip
    fd76:	001a      	movs	r2, r3
    fd78:	4b16      	ldr	r3, [pc, #88]	; (fdd4 <eeprom_emulator_init+0xdc>)
    fd7a:	605a      	str	r2, [r3, #4]
    fd7c:	4b15      	ldr	r3, [pc, #84]	; (fdd4 <eeprom_emulator_init+0xdc>)
    fd7e:	22c8      	movs	r2, #200	; 0xc8
    fd80:	2100      	movs	r1, #0
    fd82:	5499      	strb	r1, [r3, r2]
    fd84:	4b14      	ldr	r3, [pc, #80]	; (fdd8 <eeprom_emulator_init+0xe0>)
    fd86:	4798      	blx	r3
    fd88:	4b12      	ldr	r3, [pc, #72]	; (fdd4 <eeprom_emulator_init+0xdc>)
    fd8a:	2287      	movs	r2, #135	; 0x87
    fd8c:	5c9b      	ldrb	r3, [r3, r2]
    fd8e:	2b3f      	cmp	r3, #63	; 0x3f
    fd90:	d101      	bne.n	fd96 <eeprom_emulator_init+0x9e>
    fd92:	231a      	movs	r3, #26
    fd94:	e014      	b.n	fdc0 <eeprom_emulator_init+0xc8>
    fd96:	2317      	movs	r3, #23
    fd98:	18fc      	adds	r4, r7, r3
    fd9a:	4b10      	ldr	r3, [pc, #64]	; (fddc <eeprom_emulator_init+0xe4>)
    fd9c:	4798      	blx	r3
    fd9e:	0003      	movs	r3, r0
    fda0:	7023      	strb	r3, [r4, #0]
    fda2:	2317      	movs	r3, #23
    fda4:	18fb      	adds	r3, r7, r3
    fda6:	781b      	ldrb	r3, [r3, #0]
    fda8:	2b00      	cmp	r3, #0
    fdaa:	d003      	beq.n	fdb4 <eeprom_emulator_init+0xbc>
    fdac:	2317      	movs	r3, #23
    fdae:	18fb      	adds	r3, r7, r3
    fdb0:	781b      	ldrb	r3, [r3, #0]
    fdb2:	e005      	b.n	fdc0 <eeprom_emulator_init+0xc8>
    fdb4:	4b07      	ldr	r3, [pc, #28]	; (fdd4 <eeprom_emulator_init+0xdc>)
    fdb6:	2201      	movs	r2, #1
    fdb8:	701a      	strb	r2, [r3, #0]
    fdba:	2317      	movs	r3, #23
    fdbc:	18fb      	adds	r3, r7, r3
    fdbe:	781b      	ldrb	r3, [r3, #0]
    fdc0:	0018      	movs	r0, r3
    fdc2:	46bd      	mov	sp, r7
    fdc4:	b007      	add	sp, #28
    fdc6:	bd90      	pop	{r4, r7, pc}
    fdc8:	0000f65d 	.word	0x0000f65d
    fdcc:	0000a3cd 	.word	0x0000a3cd
    fdd0:	0000a8ad 	.word	0x0000a8ad
    fdd4:	20000730 	.word	0x20000730
    fdd8:	0000fa3d 	.word	0x0000fa3d
    fddc:	0000fc59 	.word	0x0000fc59

0000fde0 <eeprom_emulator_erase_memory>:
    fde0:	b580      	push	{r7, lr}
    fde2:	af00      	add	r7, sp, #0
    fde4:	4b04      	ldr	r3, [pc, #16]	; (fdf8 <eeprom_emulator_erase_memory+0x18>)
    fde6:	4798      	blx	r3
    fde8:	4b04      	ldr	r3, [pc, #16]	; (fdfc <eeprom_emulator_erase_memory+0x1c>)
    fdea:	4798      	blx	r3
    fdec:	4b04      	ldr	r3, [pc, #16]	; (fe00 <eeprom_emulator_erase_memory+0x20>)
    fdee:	4798      	blx	r3
    fdf0:	46c0      	nop			; (mov r8, r8)
    fdf2:	46bd      	mov	sp, r7
    fdf4:	bd80      	pop	{r7, pc}
    fdf6:	46c0      	nop			; (mov r8, r8)
    fdf8:	0000f7cd 	.word	0x0000f7cd
    fdfc:	0000fb91 	.word	0x0000fb91
    fe00:	0000fa3d 	.word	0x0000fa3d

0000fe04 <eeprom_emulator_read_page>:
    fe04:	b580      	push	{r7, lr}
    fe06:	b092      	sub	sp, #72	; 0x48
    fe08:	af00      	add	r7, sp, #0
    fe0a:	0002      	movs	r2, r0
    fe0c:	6039      	str	r1, [r7, #0]
    fe0e:	1dfb      	adds	r3, r7, #7
    fe10:	701a      	strb	r2, [r3, #0]
    fe12:	4b20      	ldr	r3, [pc, #128]	; (fe94 <eeprom_emulator_read_page+0x90>)
    fe14:	781b      	ldrb	r3, [r3, #0]
    fe16:	2201      	movs	r2, #1
    fe18:	4053      	eors	r3, r2
    fe1a:	b2db      	uxtb	r3, r3
    fe1c:	2b00      	cmp	r3, #0
    fe1e:	d001      	beq.n	fe24 <eeprom_emulator_read_page+0x20>
    fe20:	231f      	movs	r3, #31
    fe22:	e033      	b.n	fe8c <eeprom_emulator_read_page+0x88>
    fe24:	4b1b      	ldr	r3, [pc, #108]	; (fe94 <eeprom_emulator_read_page+0x90>)
    fe26:	7a9b      	ldrb	r3, [r3, #10]
    fe28:	1dfa      	adds	r2, r7, #7
    fe2a:	7812      	ldrb	r2, [r2, #0]
    fe2c:	429a      	cmp	r2, r3
    fe2e:	d301      	bcc.n	fe34 <eeprom_emulator_read_page+0x30>
    fe30:	2318      	movs	r3, #24
    fe32:	e02b      	b.n	fe8c <eeprom_emulator_read_page+0x88>
    fe34:	4b17      	ldr	r3, [pc, #92]	; (fe94 <eeprom_emulator_read_page+0x90>)
    fe36:	22c8      	movs	r2, #200	; 0xc8
    fe38:	5c9b      	ldrb	r3, [r3, r2]
    fe3a:	2b00      	cmp	r3, #0
    fe3c:	d010      	beq.n	fe60 <eeprom_emulator_read_page+0x5c>
    fe3e:	4b15      	ldr	r3, [pc, #84]	; (fe94 <eeprom_emulator_read_page+0x90>)
    fe40:	2288      	movs	r2, #136	; 0x88
    fe42:	5c9b      	ldrb	r3, [r3, r2]
    fe44:	1dfa      	adds	r2, r7, #7
    fe46:	7812      	ldrb	r2, [r2, #0]
    fe48:	429a      	cmp	r2, r3
    fe4a:	d109      	bne.n	fe60 <eeprom_emulator_read_page+0x5c>
    fe4c:	6839      	ldr	r1, [r7, #0]
    fe4e:	4b11      	ldr	r3, [pc, #68]	; (fe94 <eeprom_emulator_read_page+0x90>)
    fe50:	228c      	movs	r2, #140	; 0x8c
    fe52:	0008      	movs	r0, r1
    fe54:	189b      	adds	r3, r3, r2
    fe56:	223c      	movs	r2, #60	; 0x3c
    fe58:	0019      	movs	r1, r3
    fe5a:	4b0f      	ldr	r3, [pc, #60]	; (fe98 <eeprom_emulator_read_page+0x94>)
    fe5c:	4798      	blx	r3
    fe5e:	e014      	b.n	fe8a <eeprom_emulator_read_page+0x86>
    fe60:	1dfb      	adds	r3, r7, #7
    fe62:	781b      	ldrb	r3, [r3, #0]
    fe64:	4a0b      	ldr	r2, [pc, #44]	; (fe94 <eeprom_emulator_read_page+0x90>)
    fe66:	18d3      	adds	r3, r2, r3
    fe68:	7adb      	ldrb	r3, [r3, #11]
    fe6a:	b29b      	uxth	r3, r3
    fe6c:	2208      	movs	r2, #8
    fe6e:	18ba      	adds	r2, r7, r2
    fe70:	0011      	movs	r1, r2
    fe72:	0018      	movs	r0, r3
    fe74:	4b09      	ldr	r3, [pc, #36]	; (fe9c <eeprom_emulator_read_page+0x98>)
    fe76:	4798      	blx	r3
    fe78:	683a      	ldr	r2, [r7, #0]
    fe7a:	2308      	movs	r3, #8
    fe7c:	18fb      	adds	r3, r7, r3
    fe7e:	0010      	movs	r0, r2
    fe80:	3304      	adds	r3, #4
    fe82:	223c      	movs	r2, #60	; 0x3c
    fe84:	0019      	movs	r1, r3
    fe86:	4b04      	ldr	r3, [pc, #16]	; (fe98 <eeprom_emulator_read_page+0x94>)
    fe88:	4798      	blx	r3
    fe8a:	2300      	movs	r3, #0
    fe8c:	0018      	movs	r0, r3
    fe8e:	46bd      	mov	sp, r7
    fe90:	b012      	add	sp, #72	; 0x48
    fe92:	bd80      	pop	{r7, pc}
    fe94:	20000730 	.word	0x20000730
    fe98:	00011bb9 	.word	0x00011bb9
    fe9c:	0000f77d 	.word	0x0000f77d

0000fea0 <__udivsi3>:
    fea0:	2200      	movs	r2, #0
    fea2:	0843      	lsrs	r3, r0, #1
    fea4:	428b      	cmp	r3, r1
    fea6:	d374      	bcc.n	ff92 <__udivsi3+0xf2>
    fea8:	0903      	lsrs	r3, r0, #4
    feaa:	428b      	cmp	r3, r1
    feac:	d35f      	bcc.n	ff6e <__udivsi3+0xce>
    feae:	0a03      	lsrs	r3, r0, #8
    feb0:	428b      	cmp	r3, r1
    feb2:	d344      	bcc.n	ff3e <__udivsi3+0x9e>
    feb4:	0b03      	lsrs	r3, r0, #12
    feb6:	428b      	cmp	r3, r1
    feb8:	d328      	bcc.n	ff0c <__udivsi3+0x6c>
    feba:	0c03      	lsrs	r3, r0, #16
    febc:	428b      	cmp	r3, r1
    febe:	d30d      	bcc.n	fedc <__udivsi3+0x3c>
    fec0:	22ff      	movs	r2, #255	; 0xff
    fec2:	0209      	lsls	r1, r1, #8
    fec4:	ba12      	rev	r2, r2
    fec6:	0c03      	lsrs	r3, r0, #16
    fec8:	428b      	cmp	r3, r1
    feca:	d302      	bcc.n	fed2 <__udivsi3+0x32>
    fecc:	1212      	asrs	r2, r2, #8
    fece:	0209      	lsls	r1, r1, #8
    fed0:	d065      	beq.n	ff9e <__udivsi3+0xfe>
    fed2:	0b03      	lsrs	r3, r0, #12
    fed4:	428b      	cmp	r3, r1
    fed6:	d319      	bcc.n	ff0c <__udivsi3+0x6c>
    fed8:	e000      	b.n	fedc <__udivsi3+0x3c>
    feda:	0a09      	lsrs	r1, r1, #8
    fedc:	0bc3      	lsrs	r3, r0, #15
    fede:	428b      	cmp	r3, r1
    fee0:	d301      	bcc.n	fee6 <__udivsi3+0x46>
    fee2:	03cb      	lsls	r3, r1, #15
    fee4:	1ac0      	subs	r0, r0, r3
    fee6:	4152      	adcs	r2, r2
    fee8:	0b83      	lsrs	r3, r0, #14
    feea:	428b      	cmp	r3, r1
    feec:	d301      	bcc.n	fef2 <__udivsi3+0x52>
    feee:	038b      	lsls	r3, r1, #14
    fef0:	1ac0      	subs	r0, r0, r3
    fef2:	4152      	adcs	r2, r2
    fef4:	0b43      	lsrs	r3, r0, #13
    fef6:	428b      	cmp	r3, r1
    fef8:	d301      	bcc.n	fefe <__udivsi3+0x5e>
    fefa:	034b      	lsls	r3, r1, #13
    fefc:	1ac0      	subs	r0, r0, r3
    fefe:	4152      	adcs	r2, r2
    ff00:	0b03      	lsrs	r3, r0, #12
    ff02:	428b      	cmp	r3, r1
    ff04:	d301      	bcc.n	ff0a <__udivsi3+0x6a>
    ff06:	030b      	lsls	r3, r1, #12
    ff08:	1ac0      	subs	r0, r0, r3
    ff0a:	4152      	adcs	r2, r2
    ff0c:	0ac3      	lsrs	r3, r0, #11
    ff0e:	428b      	cmp	r3, r1
    ff10:	d301      	bcc.n	ff16 <__udivsi3+0x76>
    ff12:	02cb      	lsls	r3, r1, #11
    ff14:	1ac0      	subs	r0, r0, r3
    ff16:	4152      	adcs	r2, r2
    ff18:	0a83      	lsrs	r3, r0, #10
    ff1a:	428b      	cmp	r3, r1
    ff1c:	d301      	bcc.n	ff22 <__udivsi3+0x82>
    ff1e:	028b      	lsls	r3, r1, #10
    ff20:	1ac0      	subs	r0, r0, r3
    ff22:	4152      	adcs	r2, r2
    ff24:	0a43      	lsrs	r3, r0, #9
    ff26:	428b      	cmp	r3, r1
    ff28:	d301      	bcc.n	ff2e <__udivsi3+0x8e>
    ff2a:	024b      	lsls	r3, r1, #9
    ff2c:	1ac0      	subs	r0, r0, r3
    ff2e:	4152      	adcs	r2, r2
    ff30:	0a03      	lsrs	r3, r0, #8
    ff32:	428b      	cmp	r3, r1
    ff34:	d301      	bcc.n	ff3a <__udivsi3+0x9a>
    ff36:	020b      	lsls	r3, r1, #8
    ff38:	1ac0      	subs	r0, r0, r3
    ff3a:	4152      	adcs	r2, r2
    ff3c:	d2cd      	bcs.n	feda <__udivsi3+0x3a>
    ff3e:	09c3      	lsrs	r3, r0, #7
    ff40:	428b      	cmp	r3, r1
    ff42:	d301      	bcc.n	ff48 <__udivsi3+0xa8>
    ff44:	01cb      	lsls	r3, r1, #7
    ff46:	1ac0      	subs	r0, r0, r3
    ff48:	4152      	adcs	r2, r2
    ff4a:	0983      	lsrs	r3, r0, #6
    ff4c:	428b      	cmp	r3, r1
    ff4e:	d301      	bcc.n	ff54 <__udivsi3+0xb4>
    ff50:	018b      	lsls	r3, r1, #6
    ff52:	1ac0      	subs	r0, r0, r3
    ff54:	4152      	adcs	r2, r2
    ff56:	0943      	lsrs	r3, r0, #5
    ff58:	428b      	cmp	r3, r1
    ff5a:	d301      	bcc.n	ff60 <__udivsi3+0xc0>
    ff5c:	014b      	lsls	r3, r1, #5
    ff5e:	1ac0      	subs	r0, r0, r3
    ff60:	4152      	adcs	r2, r2
    ff62:	0903      	lsrs	r3, r0, #4
    ff64:	428b      	cmp	r3, r1
    ff66:	d301      	bcc.n	ff6c <__udivsi3+0xcc>
    ff68:	010b      	lsls	r3, r1, #4
    ff6a:	1ac0      	subs	r0, r0, r3
    ff6c:	4152      	adcs	r2, r2
    ff6e:	08c3      	lsrs	r3, r0, #3
    ff70:	428b      	cmp	r3, r1
    ff72:	d301      	bcc.n	ff78 <__udivsi3+0xd8>
    ff74:	00cb      	lsls	r3, r1, #3
    ff76:	1ac0      	subs	r0, r0, r3
    ff78:	4152      	adcs	r2, r2
    ff7a:	0883      	lsrs	r3, r0, #2
    ff7c:	428b      	cmp	r3, r1
    ff7e:	d301      	bcc.n	ff84 <__udivsi3+0xe4>
    ff80:	008b      	lsls	r3, r1, #2
    ff82:	1ac0      	subs	r0, r0, r3
    ff84:	4152      	adcs	r2, r2
    ff86:	0843      	lsrs	r3, r0, #1
    ff88:	428b      	cmp	r3, r1
    ff8a:	d301      	bcc.n	ff90 <__udivsi3+0xf0>
    ff8c:	004b      	lsls	r3, r1, #1
    ff8e:	1ac0      	subs	r0, r0, r3
    ff90:	4152      	adcs	r2, r2
    ff92:	1a41      	subs	r1, r0, r1
    ff94:	d200      	bcs.n	ff98 <__udivsi3+0xf8>
    ff96:	4601      	mov	r1, r0
    ff98:	4152      	adcs	r2, r2
    ff9a:	4610      	mov	r0, r2
    ff9c:	4770      	bx	lr
    ff9e:	e7ff      	b.n	ffa0 <__udivsi3+0x100>
    ffa0:	b501      	push	{r0, lr}
    ffa2:	2000      	movs	r0, #0
    ffa4:	f000 f806 	bl	ffb4 <__aeabi_idiv0>
    ffa8:	bd02      	pop	{r1, pc}
    ffaa:	46c0      	nop			; (mov r8, r8)

0000ffac <__aeabi_uidivmod>:
    ffac:	2900      	cmp	r1, #0
    ffae:	d0f7      	beq.n	ffa0 <__udivsi3+0x100>
    ffb0:	e776      	b.n	fea0 <__udivsi3>
    ffb2:	4770      	bx	lr

0000ffb4 <__aeabi_idiv0>:
    ffb4:	4770      	bx	lr
    ffb6:	46c0      	nop			; (mov r8, r8)

0000ffb8 <__clzsi2>:
    ffb8:	211c      	movs	r1, #28
    ffba:	2301      	movs	r3, #1
    ffbc:	041b      	lsls	r3, r3, #16
    ffbe:	4298      	cmp	r0, r3
    ffc0:	d301      	bcc.n	ffc6 <__clzsi2+0xe>
    ffc2:	0c00      	lsrs	r0, r0, #16
    ffc4:	3910      	subs	r1, #16
    ffc6:	0a1b      	lsrs	r3, r3, #8
    ffc8:	4298      	cmp	r0, r3
    ffca:	d301      	bcc.n	ffd0 <__clzsi2+0x18>
    ffcc:	0a00      	lsrs	r0, r0, #8
    ffce:	3908      	subs	r1, #8
    ffd0:	091b      	lsrs	r3, r3, #4
    ffd2:	4298      	cmp	r0, r3
    ffd4:	d301      	bcc.n	ffda <__clzsi2+0x22>
    ffd6:	0900      	lsrs	r0, r0, #4
    ffd8:	3904      	subs	r1, #4
    ffda:	a202      	add	r2, pc, #8	; (adr r2, ffe4 <__clzsi2+0x2c>)
    ffdc:	5c10      	ldrb	r0, [r2, r0]
    ffde:	1840      	adds	r0, r0, r1
    ffe0:	4770      	bx	lr
    ffe2:	46c0      	nop			; (mov r8, r8)
    ffe4:	02020304 	.word	0x02020304
    ffe8:	01010101 	.word	0x01010101
	...

0000fff4 <__ctzsi2>:
    fff4:	4241      	negs	r1, r0
    fff6:	4008      	ands	r0, r1
    fff8:	211c      	movs	r1, #28
    fffa:	2301      	movs	r3, #1
    fffc:	041b      	lsls	r3, r3, #16
    fffe:	4298      	cmp	r0, r3
   10000:	d301      	bcc.n	10006 <__ctzsi2+0x12>
   10002:	0c00      	lsrs	r0, r0, #16
   10004:	3910      	subs	r1, #16
   10006:	0a1b      	lsrs	r3, r3, #8
   10008:	4298      	cmp	r0, r3
   1000a:	d301      	bcc.n	10010 <__ctzsi2+0x1c>
   1000c:	0a00      	lsrs	r0, r0, #8
   1000e:	3908      	subs	r1, #8
   10010:	091b      	lsrs	r3, r3, #4
   10012:	4298      	cmp	r0, r3
   10014:	d301      	bcc.n	1001a <__ctzsi2+0x26>
   10016:	0900      	lsrs	r0, r0, #4
   10018:	3904      	subs	r1, #4
   1001a:	a202      	add	r2, pc, #8	; (adr r2, 10024 <__ctzsi2+0x30>)
   1001c:	5c10      	ldrb	r0, [r2, r0]
   1001e:	1a40      	subs	r0, r0, r1
   10020:	4770      	bx	lr
   10022:	46c0      	nop			; (mov r8, r8)
   10024:	1d1d1c1b 	.word	0x1d1d1c1b
   10028:	1e1e1e1e 	.word	0x1e1e1e1e
   1002c:	1f1f1f1f 	.word	0x1f1f1f1f
   10030:	1f1f1f1f 	.word	0x1f1f1f1f

00010034 <__aeabi_uldivmod>:
   10034:	2b00      	cmp	r3, #0
   10036:	d111      	bne.n	1005c <__aeabi_uldivmod+0x28>
   10038:	2a00      	cmp	r2, #0
   1003a:	d10f      	bne.n	1005c <__aeabi_uldivmod+0x28>
   1003c:	2900      	cmp	r1, #0
   1003e:	d100      	bne.n	10042 <__aeabi_uldivmod+0xe>
   10040:	2800      	cmp	r0, #0
   10042:	d002      	beq.n	1004a <__aeabi_uldivmod+0x16>
   10044:	2100      	movs	r1, #0
   10046:	43c9      	mvns	r1, r1
   10048:	1c08      	adds	r0, r1, #0
   1004a:	b407      	push	{r0, r1, r2}
   1004c:	4802      	ldr	r0, [pc, #8]	; (10058 <__aeabi_uldivmod+0x24>)
   1004e:	a102      	add	r1, pc, #8	; (adr r1, 10058 <__aeabi_uldivmod+0x24>)
   10050:	1840      	adds	r0, r0, r1
   10052:	9002      	str	r0, [sp, #8]
   10054:	bd03      	pop	{r0, r1, pc}
   10056:	46c0      	nop			; (mov r8, r8)
   10058:	ffffff5d 	.word	0xffffff5d
   1005c:	b403      	push	{r0, r1}
   1005e:	4668      	mov	r0, sp
   10060:	b501      	push	{r0, lr}
   10062:	9802      	ldr	r0, [sp, #8]
   10064:	f000 f830 	bl	100c8 <__udivmoddi4>
   10068:	9b01      	ldr	r3, [sp, #4]
   1006a:	469e      	mov	lr, r3
   1006c:	b002      	add	sp, #8
   1006e:	bc0c      	pop	{r2, r3}
   10070:	4770      	bx	lr
   10072:	46c0      	nop			; (mov r8, r8)

00010074 <__aeabi_lmul>:
   10074:	b5f0      	push	{r4, r5, r6, r7, lr}
   10076:	46ce      	mov	lr, r9
   10078:	4647      	mov	r7, r8
   1007a:	0415      	lsls	r5, r2, #16
   1007c:	0c2d      	lsrs	r5, r5, #16
   1007e:	002e      	movs	r6, r5
   10080:	b580      	push	{r7, lr}
   10082:	0407      	lsls	r7, r0, #16
   10084:	0c14      	lsrs	r4, r2, #16
   10086:	0c3f      	lsrs	r7, r7, #16
   10088:	4699      	mov	r9, r3
   1008a:	0c03      	lsrs	r3, r0, #16
   1008c:	437e      	muls	r6, r7
   1008e:	435d      	muls	r5, r3
   10090:	4367      	muls	r7, r4
   10092:	4363      	muls	r3, r4
   10094:	197f      	adds	r7, r7, r5
   10096:	0c34      	lsrs	r4, r6, #16
   10098:	19e4      	adds	r4, r4, r7
   1009a:	469c      	mov	ip, r3
   1009c:	42a5      	cmp	r5, r4
   1009e:	d903      	bls.n	100a8 <__aeabi_lmul+0x34>
   100a0:	2380      	movs	r3, #128	; 0x80
   100a2:	025b      	lsls	r3, r3, #9
   100a4:	4698      	mov	r8, r3
   100a6:	44c4      	add	ip, r8
   100a8:	464b      	mov	r3, r9
   100aa:	4351      	muls	r1, r2
   100ac:	4343      	muls	r3, r0
   100ae:	0436      	lsls	r6, r6, #16
   100b0:	0c36      	lsrs	r6, r6, #16
   100b2:	0c25      	lsrs	r5, r4, #16
   100b4:	0424      	lsls	r4, r4, #16
   100b6:	4465      	add	r5, ip
   100b8:	19a4      	adds	r4, r4, r6
   100ba:	1859      	adds	r1, r3, r1
   100bc:	1949      	adds	r1, r1, r5
   100be:	0020      	movs	r0, r4
   100c0:	bc0c      	pop	{r2, r3}
   100c2:	4690      	mov	r8, r2
   100c4:	4699      	mov	r9, r3
   100c6:	bdf0      	pop	{r4, r5, r6, r7, pc}

000100c8 <__udivmoddi4>:
   100c8:	b5f0      	push	{r4, r5, r6, r7, lr}
   100ca:	4657      	mov	r7, sl
   100cc:	464e      	mov	r6, r9
   100ce:	4645      	mov	r5, r8
   100d0:	46de      	mov	lr, fp
   100d2:	b5e0      	push	{r5, r6, r7, lr}
   100d4:	0004      	movs	r4, r0
   100d6:	b083      	sub	sp, #12
   100d8:	000d      	movs	r5, r1
   100da:	4692      	mov	sl, r2
   100dc:	4699      	mov	r9, r3
   100de:	428b      	cmp	r3, r1
   100e0:	d82f      	bhi.n	10142 <__udivmoddi4+0x7a>
   100e2:	d02c      	beq.n	1013e <__udivmoddi4+0x76>
   100e4:	4649      	mov	r1, r9
   100e6:	4650      	mov	r0, sl
   100e8:	f001 fcf4 	bl	11ad4 <__clzdi2>
   100ec:	0029      	movs	r1, r5
   100ee:	0006      	movs	r6, r0
   100f0:	0020      	movs	r0, r4
   100f2:	f001 fcef 	bl	11ad4 <__clzdi2>
   100f6:	1a33      	subs	r3, r6, r0
   100f8:	4698      	mov	r8, r3
   100fa:	3b20      	subs	r3, #32
   100fc:	469b      	mov	fp, r3
   100fe:	d500      	bpl.n	10102 <__udivmoddi4+0x3a>
   10100:	e074      	b.n	101ec <__udivmoddi4+0x124>
   10102:	4653      	mov	r3, sl
   10104:	465a      	mov	r2, fp
   10106:	4093      	lsls	r3, r2
   10108:	001f      	movs	r7, r3
   1010a:	4653      	mov	r3, sl
   1010c:	4642      	mov	r2, r8
   1010e:	4093      	lsls	r3, r2
   10110:	001e      	movs	r6, r3
   10112:	42af      	cmp	r7, r5
   10114:	d829      	bhi.n	1016a <__udivmoddi4+0xa2>
   10116:	d026      	beq.n	10166 <__udivmoddi4+0x9e>
   10118:	465b      	mov	r3, fp
   1011a:	1ba4      	subs	r4, r4, r6
   1011c:	41bd      	sbcs	r5, r7
   1011e:	2b00      	cmp	r3, #0
   10120:	da00      	bge.n	10124 <__udivmoddi4+0x5c>
   10122:	e079      	b.n	10218 <__udivmoddi4+0x150>
   10124:	2200      	movs	r2, #0
   10126:	2300      	movs	r3, #0
   10128:	9200      	str	r2, [sp, #0]
   1012a:	9301      	str	r3, [sp, #4]
   1012c:	2301      	movs	r3, #1
   1012e:	465a      	mov	r2, fp
   10130:	4093      	lsls	r3, r2
   10132:	9301      	str	r3, [sp, #4]
   10134:	2301      	movs	r3, #1
   10136:	4642      	mov	r2, r8
   10138:	4093      	lsls	r3, r2
   1013a:	9300      	str	r3, [sp, #0]
   1013c:	e019      	b.n	10172 <__udivmoddi4+0xaa>
   1013e:	4282      	cmp	r2, r0
   10140:	d9d0      	bls.n	100e4 <__udivmoddi4+0x1c>
   10142:	2200      	movs	r2, #0
   10144:	2300      	movs	r3, #0
   10146:	9200      	str	r2, [sp, #0]
   10148:	9301      	str	r3, [sp, #4]
   1014a:	9b0c      	ldr	r3, [sp, #48]	; 0x30
   1014c:	2b00      	cmp	r3, #0
   1014e:	d001      	beq.n	10154 <__udivmoddi4+0x8c>
   10150:	601c      	str	r4, [r3, #0]
   10152:	605d      	str	r5, [r3, #4]
   10154:	9800      	ldr	r0, [sp, #0]
   10156:	9901      	ldr	r1, [sp, #4]
   10158:	b003      	add	sp, #12
   1015a:	bc3c      	pop	{r2, r3, r4, r5}
   1015c:	4690      	mov	r8, r2
   1015e:	4699      	mov	r9, r3
   10160:	46a2      	mov	sl, r4
   10162:	46ab      	mov	fp, r5
   10164:	bdf0      	pop	{r4, r5, r6, r7, pc}
   10166:	42a3      	cmp	r3, r4
   10168:	d9d6      	bls.n	10118 <__udivmoddi4+0x50>
   1016a:	2200      	movs	r2, #0
   1016c:	2300      	movs	r3, #0
   1016e:	9200      	str	r2, [sp, #0]
   10170:	9301      	str	r3, [sp, #4]
   10172:	4643      	mov	r3, r8
   10174:	2b00      	cmp	r3, #0
   10176:	d0e8      	beq.n	1014a <__udivmoddi4+0x82>
   10178:	07fb      	lsls	r3, r7, #31
   1017a:	0872      	lsrs	r2, r6, #1
   1017c:	431a      	orrs	r2, r3
   1017e:	4646      	mov	r6, r8
   10180:	087b      	lsrs	r3, r7, #1
   10182:	e00e      	b.n	101a2 <__udivmoddi4+0xda>
   10184:	42ab      	cmp	r3, r5
   10186:	d101      	bne.n	1018c <__udivmoddi4+0xc4>
   10188:	42a2      	cmp	r2, r4
   1018a:	d80c      	bhi.n	101a6 <__udivmoddi4+0xde>
   1018c:	1aa4      	subs	r4, r4, r2
   1018e:	419d      	sbcs	r5, r3
   10190:	2001      	movs	r0, #1
   10192:	1924      	adds	r4, r4, r4
   10194:	416d      	adcs	r5, r5
   10196:	2100      	movs	r1, #0
   10198:	3e01      	subs	r6, #1
   1019a:	1824      	adds	r4, r4, r0
   1019c:	414d      	adcs	r5, r1
   1019e:	2e00      	cmp	r6, #0
   101a0:	d006      	beq.n	101b0 <__udivmoddi4+0xe8>
   101a2:	42ab      	cmp	r3, r5
   101a4:	d9ee      	bls.n	10184 <__udivmoddi4+0xbc>
   101a6:	3e01      	subs	r6, #1
   101a8:	1924      	adds	r4, r4, r4
   101aa:	416d      	adcs	r5, r5
   101ac:	2e00      	cmp	r6, #0
   101ae:	d1f8      	bne.n	101a2 <__udivmoddi4+0xda>
   101b0:	465b      	mov	r3, fp
   101b2:	9800      	ldr	r0, [sp, #0]
   101b4:	9901      	ldr	r1, [sp, #4]
   101b6:	1900      	adds	r0, r0, r4
   101b8:	4169      	adcs	r1, r5
   101ba:	2b00      	cmp	r3, #0
   101bc:	db22      	blt.n	10204 <__udivmoddi4+0x13c>
   101be:	002b      	movs	r3, r5
   101c0:	465a      	mov	r2, fp
   101c2:	40d3      	lsrs	r3, r2
   101c4:	002a      	movs	r2, r5
   101c6:	4644      	mov	r4, r8
   101c8:	40e2      	lsrs	r2, r4
   101ca:	001c      	movs	r4, r3
   101cc:	465b      	mov	r3, fp
   101ce:	0015      	movs	r5, r2
   101d0:	2b00      	cmp	r3, #0
   101d2:	db2c      	blt.n	1022e <__udivmoddi4+0x166>
   101d4:	0026      	movs	r6, r4
   101d6:	409e      	lsls	r6, r3
   101d8:	0033      	movs	r3, r6
   101da:	0026      	movs	r6, r4
   101dc:	4647      	mov	r7, r8
   101de:	40be      	lsls	r6, r7
   101e0:	0032      	movs	r2, r6
   101e2:	1a80      	subs	r0, r0, r2
   101e4:	4199      	sbcs	r1, r3
   101e6:	9000      	str	r0, [sp, #0]
   101e8:	9101      	str	r1, [sp, #4]
   101ea:	e7ae      	b.n	1014a <__udivmoddi4+0x82>
   101ec:	4642      	mov	r2, r8
   101ee:	2320      	movs	r3, #32
   101f0:	1a9b      	subs	r3, r3, r2
   101f2:	4652      	mov	r2, sl
   101f4:	40da      	lsrs	r2, r3
   101f6:	4641      	mov	r1, r8
   101f8:	0013      	movs	r3, r2
   101fa:	464a      	mov	r2, r9
   101fc:	408a      	lsls	r2, r1
   101fe:	0017      	movs	r7, r2
   10200:	431f      	orrs	r7, r3
   10202:	e782      	b.n	1010a <__udivmoddi4+0x42>
   10204:	4642      	mov	r2, r8
   10206:	2320      	movs	r3, #32
   10208:	1a9b      	subs	r3, r3, r2
   1020a:	002a      	movs	r2, r5
   1020c:	4646      	mov	r6, r8
   1020e:	409a      	lsls	r2, r3
   10210:	0023      	movs	r3, r4
   10212:	40f3      	lsrs	r3, r6
   10214:	4313      	orrs	r3, r2
   10216:	e7d5      	b.n	101c4 <__udivmoddi4+0xfc>
   10218:	4642      	mov	r2, r8
   1021a:	2320      	movs	r3, #32
   1021c:	2100      	movs	r1, #0
   1021e:	1a9b      	subs	r3, r3, r2
   10220:	2200      	movs	r2, #0
   10222:	9100      	str	r1, [sp, #0]
   10224:	9201      	str	r2, [sp, #4]
   10226:	2201      	movs	r2, #1
   10228:	40da      	lsrs	r2, r3
   1022a:	9201      	str	r2, [sp, #4]
   1022c:	e782      	b.n	10134 <__udivmoddi4+0x6c>
   1022e:	4642      	mov	r2, r8
   10230:	2320      	movs	r3, #32
   10232:	0026      	movs	r6, r4
   10234:	1a9b      	subs	r3, r3, r2
   10236:	40de      	lsrs	r6, r3
   10238:	002f      	movs	r7, r5
   1023a:	46b4      	mov	ip, r6
   1023c:	4097      	lsls	r7, r2
   1023e:	4666      	mov	r6, ip
   10240:	003b      	movs	r3, r7
   10242:	4333      	orrs	r3, r6
   10244:	e7c9      	b.n	101da <__udivmoddi4+0x112>
   10246:	46c0      	nop			; (mov r8, r8)

00010248 <__aeabi_dadd>:
   10248:	b5f8      	push	{r3, r4, r5, r6, r7, lr}
   1024a:	4645      	mov	r5, r8
   1024c:	46de      	mov	lr, fp
   1024e:	4657      	mov	r7, sl
   10250:	464e      	mov	r6, r9
   10252:	030c      	lsls	r4, r1, #12
   10254:	b5e0      	push	{r5, r6, r7, lr}
   10256:	004e      	lsls	r6, r1, #1
   10258:	0fc9      	lsrs	r1, r1, #31
   1025a:	4688      	mov	r8, r1
   1025c:	000d      	movs	r5, r1
   1025e:	0a61      	lsrs	r1, r4, #9
   10260:	0f44      	lsrs	r4, r0, #29
   10262:	430c      	orrs	r4, r1
   10264:	00c7      	lsls	r7, r0, #3
   10266:	0319      	lsls	r1, r3, #12
   10268:	0058      	lsls	r0, r3, #1
   1026a:	0fdb      	lsrs	r3, r3, #31
   1026c:	469b      	mov	fp, r3
   1026e:	0a4b      	lsrs	r3, r1, #9
   10270:	0f51      	lsrs	r1, r2, #29
   10272:	430b      	orrs	r3, r1
   10274:	0d76      	lsrs	r6, r6, #21
   10276:	0d40      	lsrs	r0, r0, #21
   10278:	0019      	movs	r1, r3
   1027a:	00d2      	lsls	r2, r2, #3
   1027c:	45d8      	cmp	r8, fp
   1027e:	d100      	bne.n	10282 <__aeabi_dadd+0x3a>
   10280:	e0ae      	b.n	103e0 <__aeabi_dadd+0x198>
   10282:	1a35      	subs	r5, r6, r0
   10284:	2d00      	cmp	r5, #0
   10286:	dc00      	bgt.n	1028a <__aeabi_dadd+0x42>
   10288:	e0f6      	b.n	10478 <__aeabi_dadd+0x230>
   1028a:	2800      	cmp	r0, #0
   1028c:	d10f      	bne.n	102ae <__aeabi_dadd+0x66>
   1028e:	4313      	orrs	r3, r2
   10290:	d100      	bne.n	10294 <__aeabi_dadd+0x4c>
   10292:	e0db      	b.n	1044c <__aeabi_dadd+0x204>
   10294:	1e6b      	subs	r3, r5, #1
   10296:	2b00      	cmp	r3, #0
   10298:	d000      	beq.n	1029c <__aeabi_dadd+0x54>
   1029a:	e137      	b.n	1050c <__aeabi_dadd+0x2c4>
   1029c:	1aba      	subs	r2, r7, r2
   1029e:	4297      	cmp	r7, r2
   102a0:	41bf      	sbcs	r7, r7
   102a2:	1a64      	subs	r4, r4, r1
   102a4:	427f      	negs	r7, r7
   102a6:	1be4      	subs	r4, r4, r7
   102a8:	2601      	movs	r6, #1
   102aa:	0017      	movs	r7, r2
   102ac:	e024      	b.n	102f8 <__aeabi_dadd+0xb0>
   102ae:	4bc6      	ldr	r3, [pc, #792]	; (105c8 <__aeabi_dadd+0x380>)
   102b0:	429e      	cmp	r6, r3
   102b2:	d04d      	beq.n	10350 <__aeabi_dadd+0x108>
   102b4:	2380      	movs	r3, #128	; 0x80
   102b6:	041b      	lsls	r3, r3, #16
   102b8:	4319      	orrs	r1, r3
   102ba:	2d38      	cmp	r5, #56	; 0x38
   102bc:	dd00      	ble.n	102c0 <__aeabi_dadd+0x78>
   102be:	e107      	b.n	104d0 <__aeabi_dadd+0x288>
   102c0:	2d1f      	cmp	r5, #31
   102c2:	dd00      	ble.n	102c6 <__aeabi_dadd+0x7e>
   102c4:	e138      	b.n	10538 <__aeabi_dadd+0x2f0>
   102c6:	2020      	movs	r0, #32
   102c8:	1b43      	subs	r3, r0, r5
   102ca:	469a      	mov	sl, r3
   102cc:	000b      	movs	r3, r1
   102ce:	4650      	mov	r0, sl
   102d0:	4083      	lsls	r3, r0
   102d2:	4699      	mov	r9, r3
   102d4:	0013      	movs	r3, r2
   102d6:	4648      	mov	r0, r9
   102d8:	40eb      	lsrs	r3, r5
   102da:	4318      	orrs	r0, r3
   102dc:	0003      	movs	r3, r0
   102de:	4650      	mov	r0, sl
   102e0:	4082      	lsls	r2, r0
   102e2:	1e50      	subs	r0, r2, #1
   102e4:	4182      	sbcs	r2, r0
   102e6:	40e9      	lsrs	r1, r5
   102e8:	431a      	orrs	r2, r3
   102ea:	1aba      	subs	r2, r7, r2
   102ec:	1a61      	subs	r1, r4, r1
   102ee:	4297      	cmp	r7, r2
   102f0:	41a4      	sbcs	r4, r4
   102f2:	0017      	movs	r7, r2
   102f4:	4264      	negs	r4, r4
   102f6:	1b0c      	subs	r4, r1, r4
   102f8:	0223      	lsls	r3, r4, #8
   102fa:	d562      	bpl.n	103c2 <__aeabi_dadd+0x17a>
   102fc:	0264      	lsls	r4, r4, #9
   102fe:	0a65      	lsrs	r5, r4, #9
   10300:	2d00      	cmp	r5, #0
   10302:	d100      	bne.n	10306 <__aeabi_dadd+0xbe>
   10304:	e0df      	b.n	104c6 <__aeabi_dadd+0x27e>
   10306:	0028      	movs	r0, r5
   10308:	f7ff fe56 	bl	ffb8 <__clzsi2>
   1030c:	0003      	movs	r3, r0
   1030e:	3b08      	subs	r3, #8
   10310:	2b1f      	cmp	r3, #31
   10312:	dd00      	ble.n	10316 <__aeabi_dadd+0xce>
   10314:	e0d2      	b.n	104bc <__aeabi_dadd+0x274>
   10316:	2220      	movs	r2, #32
   10318:	003c      	movs	r4, r7
   1031a:	1ad2      	subs	r2, r2, r3
   1031c:	409d      	lsls	r5, r3
   1031e:	40d4      	lsrs	r4, r2
   10320:	409f      	lsls	r7, r3
   10322:	4325      	orrs	r5, r4
   10324:	429e      	cmp	r6, r3
   10326:	dd00      	ble.n	1032a <__aeabi_dadd+0xe2>
   10328:	e0c4      	b.n	104b4 <__aeabi_dadd+0x26c>
   1032a:	1b9e      	subs	r6, r3, r6
   1032c:	1c73      	adds	r3, r6, #1
   1032e:	2b1f      	cmp	r3, #31
   10330:	dd00      	ble.n	10334 <__aeabi_dadd+0xec>
   10332:	e0f1      	b.n	10518 <__aeabi_dadd+0x2d0>
   10334:	2220      	movs	r2, #32
   10336:	0038      	movs	r0, r7
   10338:	0029      	movs	r1, r5
   1033a:	1ad2      	subs	r2, r2, r3
   1033c:	40d8      	lsrs	r0, r3
   1033e:	4091      	lsls	r1, r2
   10340:	4097      	lsls	r7, r2
   10342:	002c      	movs	r4, r5
   10344:	4301      	orrs	r1, r0
   10346:	1e78      	subs	r0, r7, #1
   10348:	4187      	sbcs	r7, r0
   1034a:	40dc      	lsrs	r4, r3
   1034c:	2600      	movs	r6, #0
   1034e:	430f      	orrs	r7, r1
   10350:	077b      	lsls	r3, r7, #29
   10352:	d009      	beq.n	10368 <__aeabi_dadd+0x120>
   10354:	230f      	movs	r3, #15
   10356:	403b      	ands	r3, r7
   10358:	2b04      	cmp	r3, #4
   1035a:	d005      	beq.n	10368 <__aeabi_dadd+0x120>
   1035c:	1d3b      	adds	r3, r7, #4
   1035e:	42bb      	cmp	r3, r7
   10360:	41bf      	sbcs	r7, r7
   10362:	427f      	negs	r7, r7
   10364:	19e4      	adds	r4, r4, r7
   10366:	001f      	movs	r7, r3
   10368:	0223      	lsls	r3, r4, #8
   1036a:	d52c      	bpl.n	103c6 <__aeabi_dadd+0x17e>
   1036c:	4b96      	ldr	r3, [pc, #600]	; (105c8 <__aeabi_dadd+0x380>)
   1036e:	3601      	adds	r6, #1
   10370:	429e      	cmp	r6, r3
   10372:	d100      	bne.n	10376 <__aeabi_dadd+0x12e>
   10374:	e09a      	b.n	104ac <__aeabi_dadd+0x264>
   10376:	4645      	mov	r5, r8
   10378:	4b94      	ldr	r3, [pc, #592]	; (105cc <__aeabi_dadd+0x384>)
   1037a:	08ff      	lsrs	r7, r7, #3
   1037c:	401c      	ands	r4, r3
   1037e:	0760      	lsls	r0, r4, #29
   10380:	0576      	lsls	r6, r6, #21
   10382:	0264      	lsls	r4, r4, #9
   10384:	4307      	orrs	r7, r0
   10386:	0b24      	lsrs	r4, r4, #12
   10388:	0d76      	lsrs	r6, r6, #21
   1038a:	2100      	movs	r1, #0
   1038c:	0324      	lsls	r4, r4, #12
   1038e:	0b23      	lsrs	r3, r4, #12
   10390:	0d0c      	lsrs	r4, r1, #20
   10392:	4a8f      	ldr	r2, [pc, #572]	; (105d0 <__aeabi_dadd+0x388>)
   10394:	0524      	lsls	r4, r4, #20
   10396:	431c      	orrs	r4, r3
   10398:	4014      	ands	r4, r2
   1039a:	0533      	lsls	r3, r6, #20
   1039c:	4323      	orrs	r3, r4
   1039e:	005b      	lsls	r3, r3, #1
   103a0:	07ed      	lsls	r5, r5, #31
   103a2:	085b      	lsrs	r3, r3, #1
   103a4:	432b      	orrs	r3, r5
   103a6:	0038      	movs	r0, r7
   103a8:	0019      	movs	r1, r3
   103aa:	bc3c      	pop	{r2, r3, r4, r5}
   103ac:	4690      	mov	r8, r2
   103ae:	4699      	mov	r9, r3
   103b0:	46a2      	mov	sl, r4
   103b2:	46ab      	mov	fp, r5
   103b4:	bdf8      	pop	{r3, r4, r5, r6, r7, pc}
   103b6:	4664      	mov	r4, ip
   103b8:	4304      	orrs	r4, r0
   103ba:	d100      	bne.n	103be <__aeabi_dadd+0x176>
   103bc:	e211      	b.n	107e2 <__aeabi_dadd+0x59a>
   103be:	0004      	movs	r4, r0
   103c0:	4667      	mov	r7, ip
   103c2:	077b      	lsls	r3, r7, #29
   103c4:	d1c6      	bne.n	10354 <__aeabi_dadd+0x10c>
   103c6:	4645      	mov	r5, r8
   103c8:	0760      	lsls	r0, r4, #29
   103ca:	08ff      	lsrs	r7, r7, #3
   103cc:	4307      	orrs	r7, r0
   103ce:	08e4      	lsrs	r4, r4, #3
   103d0:	4b7d      	ldr	r3, [pc, #500]	; (105c8 <__aeabi_dadd+0x380>)
   103d2:	429e      	cmp	r6, r3
   103d4:	d030      	beq.n	10438 <__aeabi_dadd+0x1f0>
   103d6:	0324      	lsls	r4, r4, #12
   103d8:	0576      	lsls	r6, r6, #21
   103da:	0b24      	lsrs	r4, r4, #12
   103dc:	0d76      	lsrs	r6, r6, #21
   103de:	e7d4      	b.n	1038a <__aeabi_dadd+0x142>
   103e0:	1a33      	subs	r3, r6, r0
   103e2:	469a      	mov	sl, r3
   103e4:	2b00      	cmp	r3, #0
   103e6:	dd78      	ble.n	104da <__aeabi_dadd+0x292>
   103e8:	2800      	cmp	r0, #0
   103ea:	d031      	beq.n	10450 <__aeabi_dadd+0x208>
   103ec:	4876      	ldr	r0, [pc, #472]	; (105c8 <__aeabi_dadd+0x380>)
   103ee:	4286      	cmp	r6, r0
   103f0:	d0ae      	beq.n	10350 <__aeabi_dadd+0x108>
   103f2:	2080      	movs	r0, #128	; 0x80
   103f4:	0400      	lsls	r0, r0, #16
   103f6:	4301      	orrs	r1, r0
   103f8:	4653      	mov	r3, sl
   103fa:	2b38      	cmp	r3, #56	; 0x38
   103fc:	dc00      	bgt.n	10400 <__aeabi_dadd+0x1b8>
   103fe:	e0e9      	b.n	105d4 <__aeabi_dadd+0x38c>
   10400:	430a      	orrs	r2, r1
   10402:	1e51      	subs	r1, r2, #1
   10404:	418a      	sbcs	r2, r1
   10406:	2100      	movs	r1, #0
   10408:	19d2      	adds	r2, r2, r7
   1040a:	42ba      	cmp	r2, r7
   1040c:	41bf      	sbcs	r7, r7
   1040e:	1909      	adds	r1, r1, r4
   10410:	427c      	negs	r4, r7
   10412:	0017      	movs	r7, r2
   10414:	190c      	adds	r4, r1, r4
   10416:	0223      	lsls	r3, r4, #8
   10418:	d5d3      	bpl.n	103c2 <__aeabi_dadd+0x17a>
   1041a:	4b6b      	ldr	r3, [pc, #428]	; (105c8 <__aeabi_dadd+0x380>)
   1041c:	3601      	adds	r6, #1
   1041e:	429e      	cmp	r6, r3
   10420:	d100      	bne.n	10424 <__aeabi_dadd+0x1dc>
   10422:	e13a      	b.n	1069a <__aeabi_dadd+0x452>
   10424:	2001      	movs	r0, #1
   10426:	4b69      	ldr	r3, [pc, #420]	; (105cc <__aeabi_dadd+0x384>)
   10428:	401c      	ands	r4, r3
   1042a:	087b      	lsrs	r3, r7, #1
   1042c:	4007      	ands	r7, r0
   1042e:	431f      	orrs	r7, r3
   10430:	07e0      	lsls	r0, r4, #31
   10432:	4307      	orrs	r7, r0
   10434:	0864      	lsrs	r4, r4, #1
   10436:	e78b      	b.n	10350 <__aeabi_dadd+0x108>
   10438:	0023      	movs	r3, r4
   1043a:	433b      	orrs	r3, r7
   1043c:	d100      	bne.n	10440 <__aeabi_dadd+0x1f8>
   1043e:	e1cb      	b.n	107d8 <__aeabi_dadd+0x590>
   10440:	2280      	movs	r2, #128	; 0x80
   10442:	0312      	lsls	r2, r2, #12
   10444:	4314      	orrs	r4, r2
   10446:	0324      	lsls	r4, r4, #12
   10448:	0b24      	lsrs	r4, r4, #12
   1044a:	e79e      	b.n	1038a <__aeabi_dadd+0x142>
   1044c:	002e      	movs	r6, r5
   1044e:	e77f      	b.n	10350 <__aeabi_dadd+0x108>
   10450:	0008      	movs	r0, r1
   10452:	4310      	orrs	r0, r2
   10454:	d100      	bne.n	10458 <__aeabi_dadd+0x210>
   10456:	e0b4      	b.n	105c2 <__aeabi_dadd+0x37a>
   10458:	1e58      	subs	r0, r3, #1
   1045a:	2800      	cmp	r0, #0
   1045c:	d000      	beq.n	10460 <__aeabi_dadd+0x218>
   1045e:	e0de      	b.n	1061e <__aeabi_dadd+0x3d6>
   10460:	18ba      	adds	r2, r7, r2
   10462:	42ba      	cmp	r2, r7
   10464:	419b      	sbcs	r3, r3
   10466:	1864      	adds	r4, r4, r1
   10468:	425b      	negs	r3, r3
   1046a:	18e4      	adds	r4, r4, r3
   1046c:	0017      	movs	r7, r2
   1046e:	2601      	movs	r6, #1
   10470:	0223      	lsls	r3, r4, #8
   10472:	d5a6      	bpl.n	103c2 <__aeabi_dadd+0x17a>
   10474:	2602      	movs	r6, #2
   10476:	e7d5      	b.n	10424 <__aeabi_dadd+0x1dc>
   10478:	2d00      	cmp	r5, #0
   1047a:	d16e      	bne.n	1055a <__aeabi_dadd+0x312>
   1047c:	1c70      	adds	r0, r6, #1
   1047e:	0540      	lsls	r0, r0, #21
   10480:	0d40      	lsrs	r0, r0, #21
   10482:	2801      	cmp	r0, #1
   10484:	dc00      	bgt.n	10488 <__aeabi_dadd+0x240>
   10486:	e0f9      	b.n	1067c <__aeabi_dadd+0x434>
   10488:	1ab8      	subs	r0, r7, r2
   1048a:	4684      	mov	ip, r0
   1048c:	4287      	cmp	r7, r0
   1048e:	4180      	sbcs	r0, r0
   10490:	1ae5      	subs	r5, r4, r3
   10492:	4240      	negs	r0, r0
   10494:	1a2d      	subs	r5, r5, r0
   10496:	0228      	lsls	r0, r5, #8
   10498:	d400      	bmi.n	1049c <__aeabi_dadd+0x254>
   1049a:	e089      	b.n	105b0 <__aeabi_dadd+0x368>
   1049c:	1bd7      	subs	r7, r2, r7
   1049e:	42ba      	cmp	r2, r7
   104a0:	4192      	sbcs	r2, r2
   104a2:	1b1c      	subs	r4, r3, r4
   104a4:	4252      	negs	r2, r2
   104a6:	1aa5      	subs	r5, r4, r2
   104a8:	46d8      	mov	r8, fp
   104aa:	e729      	b.n	10300 <__aeabi_dadd+0xb8>
   104ac:	4645      	mov	r5, r8
   104ae:	2400      	movs	r4, #0
   104b0:	2700      	movs	r7, #0
   104b2:	e76a      	b.n	1038a <__aeabi_dadd+0x142>
   104b4:	4c45      	ldr	r4, [pc, #276]	; (105cc <__aeabi_dadd+0x384>)
   104b6:	1af6      	subs	r6, r6, r3
   104b8:	402c      	ands	r4, r5
   104ba:	e749      	b.n	10350 <__aeabi_dadd+0x108>
   104bc:	003d      	movs	r5, r7
   104be:	3828      	subs	r0, #40	; 0x28
   104c0:	4085      	lsls	r5, r0
   104c2:	2700      	movs	r7, #0
   104c4:	e72e      	b.n	10324 <__aeabi_dadd+0xdc>
   104c6:	0038      	movs	r0, r7
   104c8:	f7ff fd76 	bl	ffb8 <__clzsi2>
   104cc:	3020      	adds	r0, #32
   104ce:	e71d      	b.n	1030c <__aeabi_dadd+0xc4>
   104d0:	430a      	orrs	r2, r1
   104d2:	1e51      	subs	r1, r2, #1
   104d4:	418a      	sbcs	r2, r1
   104d6:	2100      	movs	r1, #0
   104d8:	e707      	b.n	102ea <__aeabi_dadd+0xa2>
   104da:	2b00      	cmp	r3, #0
   104dc:	d000      	beq.n	104e0 <__aeabi_dadd+0x298>
   104de:	e0f3      	b.n	106c8 <__aeabi_dadd+0x480>
   104e0:	1c70      	adds	r0, r6, #1
   104e2:	0543      	lsls	r3, r0, #21
   104e4:	0d5b      	lsrs	r3, r3, #21
   104e6:	2b01      	cmp	r3, #1
   104e8:	dc00      	bgt.n	104ec <__aeabi_dadd+0x2a4>
   104ea:	e0ad      	b.n	10648 <__aeabi_dadd+0x400>
   104ec:	4b36      	ldr	r3, [pc, #216]	; (105c8 <__aeabi_dadd+0x380>)
   104ee:	4298      	cmp	r0, r3
   104f0:	d100      	bne.n	104f4 <__aeabi_dadd+0x2ac>
   104f2:	e0d1      	b.n	10698 <__aeabi_dadd+0x450>
   104f4:	18ba      	adds	r2, r7, r2
   104f6:	42ba      	cmp	r2, r7
   104f8:	41bf      	sbcs	r7, r7
   104fa:	1864      	adds	r4, r4, r1
   104fc:	427f      	negs	r7, r7
   104fe:	19e4      	adds	r4, r4, r7
   10500:	07e7      	lsls	r7, r4, #31
   10502:	0852      	lsrs	r2, r2, #1
   10504:	4317      	orrs	r7, r2
   10506:	0864      	lsrs	r4, r4, #1
   10508:	0006      	movs	r6, r0
   1050a:	e721      	b.n	10350 <__aeabi_dadd+0x108>
   1050c:	482e      	ldr	r0, [pc, #184]	; (105c8 <__aeabi_dadd+0x380>)
   1050e:	4285      	cmp	r5, r0
   10510:	d100      	bne.n	10514 <__aeabi_dadd+0x2cc>
   10512:	e093      	b.n	1063c <__aeabi_dadd+0x3f4>
   10514:	001d      	movs	r5, r3
   10516:	e6d0      	b.n	102ba <__aeabi_dadd+0x72>
   10518:	0029      	movs	r1, r5
   1051a:	3e1f      	subs	r6, #31
   1051c:	40f1      	lsrs	r1, r6
   1051e:	2b20      	cmp	r3, #32
   10520:	d100      	bne.n	10524 <__aeabi_dadd+0x2dc>
   10522:	e08d      	b.n	10640 <__aeabi_dadd+0x3f8>
   10524:	2240      	movs	r2, #64	; 0x40
   10526:	1ad3      	subs	r3, r2, r3
   10528:	409d      	lsls	r5, r3
   1052a:	432f      	orrs	r7, r5
   1052c:	1e7d      	subs	r5, r7, #1
   1052e:	41af      	sbcs	r7, r5
   10530:	2400      	movs	r4, #0
   10532:	430f      	orrs	r7, r1
   10534:	2600      	movs	r6, #0
   10536:	e744      	b.n	103c2 <__aeabi_dadd+0x17a>
   10538:	002b      	movs	r3, r5
   1053a:	0008      	movs	r0, r1
   1053c:	3b20      	subs	r3, #32
   1053e:	40d8      	lsrs	r0, r3
   10540:	0003      	movs	r3, r0
   10542:	2d20      	cmp	r5, #32
   10544:	d100      	bne.n	10548 <__aeabi_dadd+0x300>
   10546:	e07d      	b.n	10644 <__aeabi_dadd+0x3fc>
   10548:	2040      	movs	r0, #64	; 0x40
   1054a:	1b45      	subs	r5, r0, r5
   1054c:	40a9      	lsls	r1, r5
   1054e:	430a      	orrs	r2, r1
   10550:	1e51      	subs	r1, r2, #1
   10552:	418a      	sbcs	r2, r1
   10554:	2100      	movs	r1, #0
   10556:	431a      	orrs	r2, r3
   10558:	e6c7      	b.n	102ea <__aeabi_dadd+0xa2>
   1055a:	2e00      	cmp	r6, #0
   1055c:	d050      	beq.n	10600 <__aeabi_dadd+0x3b8>
   1055e:	4e1a      	ldr	r6, [pc, #104]	; (105c8 <__aeabi_dadd+0x380>)
   10560:	42b0      	cmp	r0, r6
   10562:	d057      	beq.n	10614 <__aeabi_dadd+0x3cc>
   10564:	2680      	movs	r6, #128	; 0x80
   10566:	426b      	negs	r3, r5
   10568:	4699      	mov	r9, r3
   1056a:	0436      	lsls	r6, r6, #16
   1056c:	4334      	orrs	r4, r6
   1056e:	464b      	mov	r3, r9
   10570:	2b38      	cmp	r3, #56	; 0x38
   10572:	dd00      	ble.n	10576 <__aeabi_dadd+0x32e>
   10574:	e0d6      	b.n	10724 <__aeabi_dadd+0x4dc>
   10576:	2b1f      	cmp	r3, #31
   10578:	dd00      	ble.n	1057c <__aeabi_dadd+0x334>
   1057a:	e135      	b.n	107e8 <__aeabi_dadd+0x5a0>
   1057c:	2620      	movs	r6, #32
   1057e:	1af5      	subs	r5, r6, r3
   10580:	0026      	movs	r6, r4
   10582:	40ae      	lsls	r6, r5
   10584:	46b2      	mov	sl, r6
   10586:	003e      	movs	r6, r7
   10588:	40de      	lsrs	r6, r3
   1058a:	46ac      	mov	ip, r5
   1058c:	0035      	movs	r5, r6
   1058e:	4656      	mov	r6, sl
   10590:	432e      	orrs	r6, r5
   10592:	4665      	mov	r5, ip
   10594:	40af      	lsls	r7, r5
   10596:	1e7d      	subs	r5, r7, #1
   10598:	41af      	sbcs	r7, r5
   1059a:	40dc      	lsrs	r4, r3
   1059c:	4337      	orrs	r7, r6
   1059e:	1bd7      	subs	r7, r2, r7
   105a0:	42ba      	cmp	r2, r7
   105a2:	4192      	sbcs	r2, r2
   105a4:	1b0c      	subs	r4, r1, r4
   105a6:	4252      	negs	r2, r2
   105a8:	1aa4      	subs	r4, r4, r2
   105aa:	0006      	movs	r6, r0
   105ac:	46d8      	mov	r8, fp
   105ae:	e6a3      	b.n	102f8 <__aeabi_dadd+0xb0>
   105b0:	4664      	mov	r4, ip
   105b2:	4667      	mov	r7, ip
   105b4:	432c      	orrs	r4, r5
   105b6:	d000      	beq.n	105ba <__aeabi_dadd+0x372>
   105b8:	e6a2      	b.n	10300 <__aeabi_dadd+0xb8>
   105ba:	2500      	movs	r5, #0
   105bc:	2600      	movs	r6, #0
   105be:	2700      	movs	r7, #0
   105c0:	e706      	b.n	103d0 <__aeabi_dadd+0x188>
   105c2:	001e      	movs	r6, r3
   105c4:	e6c4      	b.n	10350 <__aeabi_dadd+0x108>
   105c6:	46c0      	nop			; (mov r8, r8)
   105c8:	000007ff 	.word	0x000007ff
   105cc:	ff7fffff 	.word	0xff7fffff
   105d0:	800fffff 	.word	0x800fffff
   105d4:	2b1f      	cmp	r3, #31
   105d6:	dc63      	bgt.n	106a0 <__aeabi_dadd+0x458>
   105d8:	2020      	movs	r0, #32
   105da:	1ac3      	subs	r3, r0, r3
   105dc:	0008      	movs	r0, r1
   105de:	4098      	lsls	r0, r3
   105e0:	469c      	mov	ip, r3
   105e2:	4683      	mov	fp, r0
   105e4:	4653      	mov	r3, sl
   105e6:	0010      	movs	r0, r2
   105e8:	40d8      	lsrs	r0, r3
   105ea:	0003      	movs	r3, r0
   105ec:	4658      	mov	r0, fp
   105ee:	4318      	orrs	r0, r3
   105f0:	4663      	mov	r3, ip
   105f2:	409a      	lsls	r2, r3
   105f4:	1e53      	subs	r3, r2, #1
   105f6:	419a      	sbcs	r2, r3
   105f8:	4653      	mov	r3, sl
   105fa:	4302      	orrs	r2, r0
   105fc:	40d9      	lsrs	r1, r3
   105fe:	e703      	b.n	10408 <__aeabi_dadd+0x1c0>
   10600:	0026      	movs	r6, r4
   10602:	433e      	orrs	r6, r7
   10604:	d006      	beq.n	10614 <__aeabi_dadd+0x3cc>
   10606:	43eb      	mvns	r3, r5
   10608:	4699      	mov	r9, r3
   1060a:	2b00      	cmp	r3, #0
   1060c:	d0c7      	beq.n	1059e <__aeabi_dadd+0x356>
   1060e:	4e94      	ldr	r6, [pc, #592]	; (10860 <__aeabi_dadd+0x618>)
   10610:	42b0      	cmp	r0, r6
   10612:	d1ac      	bne.n	1056e <__aeabi_dadd+0x326>
   10614:	000c      	movs	r4, r1
   10616:	0017      	movs	r7, r2
   10618:	0006      	movs	r6, r0
   1061a:	46d8      	mov	r8, fp
   1061c:	e698      	b.n	10350 <__aeabi_dadd+0x108>
   1061e:	4b90      	ldr	r3, [pc, #576]	; (10860 <__aeabi_dadd+0x618>)
   10620:	459a      	cmp	sl, r3
   10622:	d00b      	beq.n	1063c <__aeabi_dadd+0x3f4>
   10624:	4682      	mov	sl, r0
   10626:	e6e7      	b.n	103f8 <__aeabi_dadd+0x1b0>
   10628:	2800      	cmp	r0, #0
   1062a:	d000      	beq.n	1062e <__aeabi_dadd+0x3e6>
   1062c:	e09e      	b.n	1076c <__aeabi_dadd+0x524>
   1062e:	0018      	movs	r0, r3
   10630:	4310      	orrs	r0, r2
   10632:	d100      	bne.n	10636 <__aeabi_dadd+0x3ee>
   10634:	e0e9      	b.n	1080a <__aeabi_dadd+0x5c2>
   10636:	001c      	movs	r4, r3
   10638:	0017      	movs	r7, r2
   1063a:	46d8      	mov	r8, fp
   1063c:	4e88      	ldr	r6, [pc, #544]	; (10860 <__aeabi_dadd+0x618>)
   1063e:	e687      	b.n	10350 <__aeabi_dadd+0x108>
   10640:	2500      	movs	r5, #0
   10642:	e772      	b.n	1052a <__aeabi_dadd+0x2e2>
   10644:	2100      	movs	r1, #0
   10646:	e782      	b.n	1054e <__aeabi_dadd+0x306>
   10648:	0023      	movs	r3, r4
   1064a:	433b      	orrs	r3, r7
   1064c:	2e00      	cmp	r6, #0
   1064e:	d000      	beq.n	10652 <__aeabi_dadd+0x40a>
   10650:	e0ab      	b.n	107aa <__aeabi_dadd+0x562>
   10652:	2b00      	cmp	r3, #0
   10654:	d100      	bne.n	10658 <__aeabi_dadd+0x410>
   10656:	e0e7      	b.n	10828 <__aeabi_dadd+0x5e0>
   10658:	000b      	movs	r3, r1
   1065a:	4313      	orrs	r3, r2
   1065c:	d100      	bne.n	10660 <__aeabi_dadd+0x418>
   1065e:	e677      	b.n	10350 <__aeabi_dadd+0x108>
   10660:	18ba      	adds	r2, r7, r2
   10662:	42ba      	cmp	r2, r7
   10664:	41bf      	sbcs	r7, r7
   10666:	1864      	adds	r4, r4, r1
   10668:	427f      	negs	r7, r7
   1066a:	19e4      	adds	r4, r4, r7
   1066c:	0223      	lsls	r3, r4, #8
   1066e:	d400      	bmi.n	10672 <__aeabi_dadd+0x42a>
   10670:	e0f2      	b.n	10858 <__aeabi_dadd+0x610>
   10672:	4b7c      	ldr	r3, [pc, #496]	; (10864 <__aeabi_dadd+0x61c>)
   10674:	0017      	movs	r7, r2
   10676:	401c      	ands	r4, r3
   10678:	0006      	movs	r6, r0
   1067a:	e669      	b.n	10350 <__aeabi_dadd+0x108>
   1067c:	0020      	movs	r0, r4
   1067e:	4338      	orrs	r0, r7
   10680:	2e00      	cmp	r6, #0
   10682:	d1d1      	bne.n	10628 <__aeabi_dadd+0x3e0>
   10684:	2800      	cmp	r0, #0
   10686:	d15b      	bne.n	10740 <__aeabi_dadd+0x4f8>
   10688:	001c      	movs	r4, r3
   1068a:	4314      	orrs	r4, r2
   1068c:	d100      	bne.n	10690 <__aeabi_dadd+0x448>
   1068e:	e0a8      	b.n	107e2 <__aeabi_dadd+0x59a>
   10690:	001c      	movs	r4, r3
   10692:	0017      	movs	r7, r2
   10694:	46d8      	mov	r8, fp
   10696:	e65b      	b.n	10350 <__aeabi_dadd+0x108>
   10698:	0006      	movs	r6, r0
   1069a:	2400      	movs	r4, #0
   1069c:	2700      	movs	r7, #0
   1069e:	e697      	b.n	103d0 <__aeabi_dadd+0x188>
   106a0:	4650      	mov	r0, sl
   106a2:	000b      	movs	r3, r1
   106a4:	3820      	subs	r0, #32
   106a6:	40c3      	lsrs	r3, r0
   106a8:	4699      	mov	r9, r3
   106aa:	4653      	mov	r3, sl
   106ac:	2b20      	cmp	r3, #32
   106ae:	d100      	bne.n	106b2 <__aeabi_dadd+0x46a>
   106b0:	e095      	b.n	107de <__aeabi_dadd+0x596>
   106b2:	2340      	movs	r3, #64	; 0x40
   106b4:	4650      	mov	r0, sl
   106b6:	1a1b      	subs	r3, r3, r0
   106b8:	4099      	lsls	r1, r3
   106ba:	430a      	orrs	r2, r1
   106bc:	1e51      	subs	r1, r2, #1
   106be:	418a      	sbcs	r2, r1
   106c0:	464b      	mov	r3, r9
   106c2:	2100      	movs	r1, #0
   106c4:	431a      	orrs	r2, r3
   106c6:	e69f      	b.n	10408 <__aeabi_dadd+0x1c0>
   106c8:	2e00      	cmp	r6, #0
   106ca:	d130      	bne.n	1072e <__aeabi_dadd+0x4e6>
   106cc:	0026      	movs	r6, r4
   106ce:	433e      	orrs	r6, r7
   106d0:	d067      	beq.n	107a2 <__aeabi_dadd+0x55a>
   106d2:	43db      	mvns	r3, r3
   106d4:	469a      	mov	sl, r3
   106d6:	2b00      	cmp	r3, #0
   106d8:	d01c      	beq.n	10714 <__aeabi_dadd+0x4cc>
   106da:	4e61      	ldr	r6, [pc, #388]	; (10860 <__aeabi_dadd+0x618>)
   106dc:	42b0      	cmp	r0, r6
   106de:	d060      	beq.n	107a2 <__aeabi_dadd+0x55a>
   106e0:	4653      	mov	r3, sl
   106e2:	2b38      	cmp	r3, #56	; 0x38
   106e4:	dd00      	ble.n	106e8 <__aeabi_dadd+0x4a0>
   106e6:	e096      	b.n	10816 <__aeabi_dadd+0x5ce>
   106e8:	2b1f      	cmp	r3, #31
   106ea:	dd00      	ble.n	106ee <__aeabi_dadd+0x4a6>
   106ec:	e09f      	b.n	1082e <__aeabi_dadd+0x5e6>
   106ee:	2620      	movs	r6, #32
   106f0:	1af3      	subs	r3, r6, r3
   106f2:	0026      	movs	r6, r4
   106f4:	409e      	lsls	r6, r3
   106f6:	469c      	mov	ip, r3
   106f8:	46b3      	mov	fp, r6
   106fa:	4653      	mov	r3, sl
   106fc:	003e      	movs	r6, r7
   106fe:	40de      	lsrs	r6, r3
   10700:	0033      	movs	r3, r6
   10702:	465e      	mov	r6, fp
   10704:	431e      	orrs	r6, r3
   10706:	4663      	mov	r3, ip
   10708:	409f      	lsls	r7, r3
   1070a:	1e7b      	subs	r3, r7, #1
   1070c:	419f      	sbcs	r7, r3
   1070e:	4653      	mov	r3, sl
   10710:	40dc      	lsrs	r4, r3
   10712:	4337      	orrs	r7, r6
   10714:	18bf      	adds	r7, r7, r2
   10716:	4297      	cmp	r7, r2
   10718:	4192      	sbcs	r2, r2
   1071a:	1864      	adds	r4, r4, r1
   1071c:	4252      	negs	r2, r2
   1071e:	18a4      	adds	r4, r4, r2
   10720:	0006      	movs	r6, r0
   10722:	e678      	b.n	10416 <__aeabi_dadd+0x1ce>
   10724:	4327      	orrs	r7, r4
   10726:	1e7c      	subs	r4, r7, #1
   10728:	41a7      	sbcs	r7, r4
   1072a:	2400      	movs	r4, #0
   1072c:	e737      	b.n	1059e <__aeabi_dadd+0x356>
   1072e:	4e4c      	ldr	r6, [pc, #304]	; (10860 <__aeabi_dadd+0x618>)
   10730:	42b0      	cmp	r0, r6
   10732:	d036      	beq.n	107a2 <__aeabi_dadd+0x55a>
   10734:	2680      	movs	r6, #128	; 0x80
   10736:	425b      	negs	r3, r3
   10738:	0436      	lsls	r6, r6, #16
   1073a:	469a      	mov	sl, r3
   1073c:	4334      	orrs	r4, r6
   1073e:	e7cf      	b.n	106e0 <__aeabi_dadd+0x498>
   10740:	0018      	movs	r0, r3
   10742:	4310      	orrs	r0, r2
   10744:	d100      	bne.n	10748 <__aeabi_dadd+0x500>
   10746:	e603      	b.n	10350 <__aeabi_dadd+0x108>
   10748:	1ab8      	subs	r0, r7, r2
   1074a:	4684      	mov	ip, r0
   1074c:	4567      	cmp	r7, ip
   1074e:	41ad      	sbcs	r5, r5
   10750:	1ae0      	subs	r0, r4, r3
   10752:	426d      	negs	r5, r5
   10754:	1b40      	subs	r0, r0, r5
   10756:	0205      	lsls	r5, r0, #8
   10758:	d400      	bmi.n	1075c <__aeabi_dadd+0x514>
   1075a:	e62c      	b.n	103b6 <__aeabi_dadd+0x16e>
   1075c:	1bd7      	subs	r7, r2, r7
   1075e:	42ba      	cmp	r2, r7
   10760:	4192      	sbcs	r2, r2
   10762:	1b1c      	subs	r4, r3, r4
   10764:	4252      	negs	r2, r2
   10766:	1aa4      	subs	r4, r4, r2
   10768:	46d8      	mov	r8, fp
   1076a:	e5f1      	b.n	10350 <__aeabi_dadd+0x108>
   1076c:	0018      	movs	r0, r3
   1076e:	4310      	orrs	r0, r2
   10770:	d100      	bne.n	10774 <__aeabi_dadd+0x52c>
   10772:	e763      	b.n	1063c <__aeabi_dadd+0x3f4>
   10774:	08f8      	lsrs	r0, r7, #3
   10776:	0767      	lsls	r7, r4, #29
   10778:	4307      	orrs	r7, r0
   1077a:	2080      	movs	r0, #128	; 0x80
   1077c:	08e4      	lsrs	r4, r4, #3
   1077e:	0300      	lsls	r0, r0, #12
   10780:	4204      	tst	r4, r0
   10782:	d008      	beq.n	10796 <__aeabi_dadd+0x54e>
   10784:	08dd      	lsrs	r5, r3, #3
   10786:	4205      	tst	r5, r0
   10788:	d105      	bne.n	10796 <__aeabi_dadd+0x54e>
   1078a:	08d2      	lsrs	r2, r2, #3
   1078c:	0759      	lsls	r1, r3, #29
   1078e:	4311      	orrs	r1, r2
   10790:	000f      	movs	r7, r1
   10792:	002c      	movs	r4, r5
   10794:	46d8      	mov	r8, fp
   10796:	0f7b      	lsrs	r3, r7, #29
   10798:	00e4      	lsls	r4, r4, #3
   1079a:	431c      	orrs	r4, r3
   1079c:	00ff      	lsls	r7, r7, #3
   1079e:	4e30      	ldr	r6, [pc, #192]	; (10860 <__aeabi_dadd+0x618>)
   107a0:	e5d6      	b.n	10350 <__aeabi_dadd+0x108>
   107a2:	000c      	movs	r4, r1
   107a4:	0017      	movs	r7, r2
   107a6:	0006      	movs	r6, r0
   107a8:	e5d2      	b.n	10350 <__aeabi_dadd+0x108>
   107aa:	2b00      	cmp	r3, #0
   107ac:	d038      	beq.n	10820 <__aeabi_dadd+0x5d8>
   107ae:	000b      	movs	r3, r1
   107b0:	4313      	orrs	r3, r2
   107b2:	d100      	bne.n	107b6 <__aeabi_dadd+0x56e>
   107b4:	e742      	b.n	1063c <__aeabi_dadd+0x3f4>
   107b6:	08f8      	lsrs	r0, r7, #3
   107b8:	0767      	lsls	r7, r4, #29
   107ba:	4307      	orrs	r7, r0
   107bc:	2080      	movs	r0, #128	; 0x80
   107be:	08e4      	lsrs	r4, r4, #3
   107c0:	0300      	lsls	r0, r0, #12
   107c2:	4204      	tst	r4, r0
   107c4:	d0e7      	beq.n	10796 <__aeabi_dadd+0x54e>
   107c6:	08cb      	lsrs	r3, r1, #3
   107c8:	4203      	tst	r3, r0
   107ca:	d1e4      	bne.n	10796 <__aeabi_dadd+0x54e>
   107cc:	08d2      	lsrs	r2, r2, #3
   107ce:	0749      	lsls	r1, r1, #29
   107d0:	4311      	orrs	r1, r2
   107d2:	000f      	movs	r7, r1
   107d4:	001c      	movs	r4, r3
   107d6:	e7de      	b.n	10796 <__aeabi_dadd+0x54e>
   107d8:	2700      	movs	r7, #0
   107da:	2400      	movs	r4, #0
   107dc:	e5d5      	b.n	1038a <__aeabi_dadd+0x142>
   107de:	2100      	movs	r1, #0
   107e0:	e76b      	b.n	106ba <__aeabi_dadd+0x472>
   107e2:	2500      	movs	r5, #0
   107e4:	2700      	movs	r7, #0
   107e6:	e5f3      	b.n	103d0 <__aeabi_dadd+0x188>
   107e8:	464e      	mov	r6, r9
   107ea:	0025      	movs	r5, r4
   107ec:	3e20      	subs	r6, #32
   107ee:	40f5      	lsrs	r5, r6
   107f0:	464b      	mov	r3, r9
   107f2:	002e      	movs	r6, r5
   107f4:	2b20      	cmp	r3, #32
   107f6:	d02d      	beq.n	10854 <__aeabi_dadd+0x60c>
   107f8:	2540      	movs	r5, #64	; 0x40
   107fa:	1aed      	subs	r5, r5, r3
   107fc:	40ac      	lsls	r4, r5
   107fe:	4327      	orrs	r7, r4
   10800:	1e7c      	subs	r4, r7, #1
   10802:	41a7      	sbcs	r7, r4
   10804:	2400      	movs	r4, #0
   10806:	4337      	orrs	r7, r6
   10808:	e6c9      	b.n	1059e <__aeabi_dadd+0x356>
   1080a:	2480      	movs	r4, #128	; 0x80
   1080c:	2500      	movs	r5, #0
   1080e:	0324      	lsls	r4, r4, #12
   10810:	4e13      	ldr	r6, [pc, #76]	; (10860 <__aeabi_dadd+0x618>)
   10812:	2700      	movs	r7, #0
   10814:	e5dc      	b.n	103d0 <__aeabi_dadd+0x188>
   10816:	4327      	orrs	r7, r4
   10818:	1e7c      	subs	r4, r7, #1
   1081a:	41a7      	sbcs	r7, r4
   1081c:	2400      	movs	r4, #0
   1081e:	e779      	b.n	10714 <__aeabi_dadd+0x4cc>
   10820:	000c      	movs	r4, r1
   10822:	0017      	movs	r7, r2
   10824:	4e0e      	ldr	r6, [pc, #56]	; (10860 <__aeabi_dadd+0x618>)
   10826:	e593      	b.n	10350 <__aeabi_dadd+0x108>
   10828:	000c      	movs	r4, r1
   1082a:	0017      	movs	r7, r2
   1082c:	e590      	b.n	10350 <__aeabi_dadd+0x108>
   1082e:	4656      	mov	r6, sl
   10830:	0023      	movs	r3, r4
   10832:	3e20      	subs	r6, #32
   10834:	40f3      	lsrs	r3, r6
   10836:	4699      	mov	r9, r3
   10838:	4653      	mov	r3, sl
   1083a:	2b20      	cmp	r3, #32
   1083c:	d00e      	beq.n	1085c <__aeabi_dadd+0x614>
   1083e:	2340      	movs	r3, #64	; 0x40
   10840:	4656      	mov	r6, sl
   10842:	1b9b      	subs	r3, r3, r6
   10844:	409c      	lsls	r4, r3
   10846:	4327      	orrs	r7, r4
   10848:	1e7c      	subs	r4, r7, #1
   1084a:	41a7      	sbcs	r7, r4
   1084c:	464b      	mov	r3, r9
   1084e:	2400      	movs	r4, #0
   10850:	431f      	orrs	r7, r3
   10852:	e75f      	b.n	10714 <__aeabi_dadd+0x4cc>
   10854:	2400      	movs	r4, #0
   10856:	e7d2      	b.n	107fe <__aeabi_dadd+0x5b6>
   10858:	0017      	movs	r7, r2
   1085a:	e5b2      	b.n	103c2 <__aeabi_dadd+0x17a>
   1085c:	2400      	movs	r4, #0
   1085e:	e7f2      	b.n	10846 <__aeabi_dadd+0x5fe>
   10860:	000007ff 	.word	0x000007ff
   10864:	ff7fffff 	.word	0xff7fffff

00010868 <__aeabi_ddiv>:
   10868:	b5f0      	push	{r4, r5, r6, r7, lr}
   1086a:	4657      	mov	r7, sl
   1086c:	4645      	mov	r5, r8
   1086e:	46de      	mov	lr, fp
   10870:	464e      	mov	r6, r9
   10872:	b5e0      	push	{r5, r6, r7, lr}
   10874:	004c      	lsls	r4, r1, #1
   10876:	030e      	lsls	r6, r1, #12
   10878:	b087      	sub	sp, #28
   1087a:	4683      	mov	fp, r0
   1087c:	4692      	mov	sl, r2
   1087e:	001d      	movs	r5, r3
   10880:	4680      	mov	r8, r0
   10882:	0b36      	lsrs	r6, r6, #12
   10884:	0d64      	lsrs	r4, r4, #21
   10886:	0fcf      	lsrs	r7, r1, #31
   10888:	2c00      	cmp	r4, #0
   1088a:	d04f      	beq.n	1092c <__aeabi_ddiv+0xc4>
   1088c:	4b6f      	ldr	r3, [pc, #444]	; (10a4c <__aeabi_ddiv+0x1e4>)
   1088e:	429c      	cmp	r4, r3
   10890:	d035      	beq.n	108fe <__aeabi_ddiv+0x96>
   10892:	2380      	movs	r3, #128	; 0x80
   10894:	0f42      	lsrs	r2, r0, #29
   10896:	041b      	lsls	r3, r3, #16
   10898:	00f6      	lsls	r6, r6, #3
   1089a:	4313      	orrs	r3, r2
   1089c:	4333      	orrs	r3, r6
   1089e:	4699      	mov	r9, r3
   108a0:	00c3      	lsls	r3, r0, #3
   108a2:	4698      	mov	r8, r3
   108a4:	4b6a      	ldr	r3, [pc, #424]	; (10a50 <__aeabi_ddiv+0x1e8>)
   108a6:	2600      	movs	r6, #0
   108a8:	469c      	mov	ip, r3
   108aa:	2300      	movs	r3, #0
   108ac:	4464      	add	r4, ip
   108ae:	9303      	str	r3, [sp, #12]
   108b0:	032b      	lsls	r3, r5, #12
   108b2:	0b1b      	lsrs	r3, r3, #12
   108b4:	469b      	mov	fp, r3
   108b6:	006b      	lsls	r3, r5, #1
   108b8:	0fed      	lsrs	r5, r5, #31
   108ba:	4650      	mov	r0, sl
   108bc:	0d5b      	lsrs	r3, r3, #21
   108be:	9501      	str	r5, [sp, #4]
   108c0:	d05e      	beq.n	10980 <__aeabi_ddiv+0x118>
   108c2:	4a62      	ldr	r2, [pc, #392]	; (10a4c <__aeabi_ddiv+0x1e4>)
   108c4:	4293      	cmp	r3, r2
   108c6:	d053      	beq.n	10970 <__aeabi_ddiv+0x108>
   108c8:	465a      	mov	r2, fp
   108ca:	00d1      	lsls	r1, r2, #3
   108cc:	2280      	movs	r2, #128	; 0x80
   108ce:	0f40      	lsrs	r0, r0, #29
   108d0:	0412      	lsls	r2, r2, #16
   108d2:	4302      	orrs	r2, r0
   108d4:	430a      	orrs	r2, r1
   108d6:	4693      	mov	fp, r2
   108d8:	4652      	mov	r2, sl
   108da:	00d1      	lsls	r1, r2, #3
   108dc:	4a5c      	ldr	r2, [pc, #368]	; (10a50 <__aeabi_ddiv+0x1e8>)
   108de:	4694      	mov	ip, r2
   108e0:	2200      	movs	r2, #0
   108e2:	4463      	add	r3, ip
   108e4:	0038      	movs	r0, r7
   108e6:	4068      	eors	r0, r5
   108e8:	4684      	mov	ip, r0
   108ea:	9002      	str	r0, [sp, #8]
   108ec:	1ae4      	subs	r4, r4, r3
   108ee:	4316      	orrs	r6, r2
   108f0:	2e0f      	cmp	r6, #15
   108f2:	d900      	bls.n	108f6 <__aeabi_ddiv+0x8e>
   108f4:	e0b4      	b.n	10a60 <__aeabi_ddiv+0x1f8>
   108f6:	4b57      	ldr	r3, [pc, #348]	; (10a54 <__aeabi_ddiv+0x1ec>)
   108f8:	00b6      	lsls	r6, r6, #2
   108fa:	599b      	ldr	r3, [r3, r6]
   108fc:	469f      	mov	pc, r3
   108fe:	0003      	movs	r3, r0
   10900:	4333      	orrs	r3, r6
   10902:	4699      	mov	r9, r3
   10904:	d16c      	bne.n	109e0 <__aeabi_ddiv+0x178>
   10906:	2300      	movs	r3, #0
   10908:	4698      	mov	r8, r3
   1090a:	3302      	adds	r3, #2
   1090c:	2608      	movs	r6, #8
   1090e:	9303      	str	r3, [sp, #12]
   10910:	e7ce      	b.n	108b0 <__aeabi_ddiv+0x48>
   10912:	46cb      	mov	fp, r9
   10914:	4641      	mov	r1, r8
   10916:	9a03      	ldr	r2, [sp, #12]
   10918:	9701      	str	r7, [sp, #4]
   1091a:	2a02      	cmp	r2, #2
   1091c:	d165      	bne.n	109ea <__aeabi_ddiv+0x182>
   1091e:	9b01      	ldr	r3, [sp, #4]
   10920:	4c4a      	ldr	r4, [pc, #296]	; (10a4c <__aeabi_ddiv+0x1e4>)
   10922:	469c      	mov	ip, r3
   10924:	2300      	movs	r3, #0
   10926:	2200      	movs	r2, #0
   10928:	4698      	mov	r8, r3
   1092a:	e06b      	b.n	10a04 <__aeabi_ddiv+0x19c>
   1092c:	0003      	movs	r3, r0
   1092e:	4333      	orrs	r3, r6
   10930:	4699      	mov	r9, r3
   10932:	d04e      	beq.n	109d2 <__aeabi_ddiv+0x16a>
   10934:	2e00      	cmp	r6, #0
   10936:	d100      	bne.n	1093a <__aeabi_ddiv+0xd2>
   10938:	e1bc      	b.n	10cb4 <__aeabi_ddiv+0x44c>
   1093a:	0030      	movs	r0, r6
   1093c:	f7ff fb3c 	bl	ffb8 <__clzsi2>
   10940:	0003      	movs	r3, r0
   10942:	3b0b      	subs	r3, #11
   10944:	2b1c      	cmp	r3, #28
   10946:	dd00      	ble.n	1094a <__aeabi_ddiv+0xe2>
   10948:	e1ac      	b.n	10ca4 <__aeabi_ddiv+0x43c>
   1094a:	221d      	movs	r2, #29
   1094c:	1ad3      	subs	r3, r2, r3
   1094e:	465a      	mov	r2, fp
   10950:	0001      	movs	r1, r0
   10952:	40da      	lsrs	r2, r3
   10954:	3908      	subs	r1, #8
   10956:	408e      	lsls	r6, r1
   10958:	0013      	movs	r3, r2
   1095a:	4333      	orrs	r3, r6
   1095c:	4699      	mov	r9, r3
   1095e:	465b      	mov	r3, fp
   10960:	408b      	lsls	r3, r1
   10962:	4698      	mov	r8, r3
   10964:	2300      	movs	r3, #0
   10966:	4c3c      	ldr	r4, [pc, #240]	; (10a58 <__aeabi_ddiv+0x1f0>)
   10968:	2600      	movs	r6, #0
   1096a:	1a24      	subs	r4, r4, r0
   1096c:	9303      	str	r3, [sp, #12]
   1096e:	e79f      	b.n	108b0 <__aeabi_ddiv+0x48>
   10970:	4651      	mov	r1, sl
   10972:	465a      	mov	r2, fp
   10974:	4311      	orrs	r1, r2
   10976:	d129      	bne.n	109cc <__aeabi_ddiv+0x164>
   10978:	2200      	movs	r2, #0
   1097a:	4693      	mov	fp, r2
   1097c:	3202      	adds	r2, #2
   1097e:	e7b1      	b.n	108e4 <__aeabi_ddiv+0x7c>
   10980:	4659      	mov	r1, fp
   10982:	4301      	orrs	r1, r0
   10984:	d01e      	beq.n	109c4 <__aeabi_ddiv+0x15c>
   10986:	465b      	mov	r3, fp
   10988:	2b00      	cmp	r3, #0
   1098a:	d100      	bne.n	1098e <__aeabi_ddiv+0x126>
   1098c:	e19e      	b.n	10ccc <__aeabi_ddiv+0x464>
   1098e:	4658      	mov	r0, fp
   10990:	f7ff fb12 	bl	ffb8 <__clzsi2>
   10994:	0003      	movs	r3, r0
   10996:	3b0b      	subs	r3, #11
   10998:	2b1c      	cmp	r3, #28
   1099a:	dd00      	ble.n	1099e <__aeabi_ddiv+0x136>
   1099c:	e18f      	b.n	10cbe <__aeabi_ddiv+0x456>
   1099e:	0002      	movs	r2, r0
   109a0:	4659      	mov	r1, fp
   109a2:	3a08      	subs	r2, #8
   109a4:	4091      	lsls	r1, r2
   109a6:	468b      	mov	fp, r1
   109a8:	211d      	movs	r1, #29
   109aa:	1acb      	subs	r3, r1, r3
   109ac:	4651      	mov	r1, sl
   109ae:	40d9      	lsrs	r1, r3
   109b0:	000b      	movs	r3, r1
   109b2:	4659      	mov	r1, fp
   109b4:	430b      	orrs	r3, r1
   109b6:	4651      	mov	r1, sl
   109b8:	469b      	mov	fp, r3
   109ba:	4091      	lsls	r1, r2
   109bc:	4b26      	ldr	r3, [pc, #152]	; (10a58 <__aeabi_ddiv+0x1f0>)
   109be:	2200      	movs	r2, #0
   109c0:	1a1b      	subs	r3, r3, r0
   109c2:	e78f      	b.n	108e4 <__aeabi_ddiv+0x7c>
   109c4:	2300      	movs	r3, #0
   109c6:	2201      	movs	r2, #1
   109c8:	469b      	mov	fp, r3
   109ca:	e78b      	b.n	108e4 <__aeabi_ddiv+0x7c>
   109cc:	4651      	mov	r1, sl
   109ce:	2203      	movs	r2, #3
   109d0:	e788      	b.n	108e4 <__aeabi_ddiv+0x7c>
   109d2:	2300      	movs	r3, #0
   109d4:	4698      	mov	r8, r3
   109d6:	3301      	adds	r3, #1
   109d8:	2604      	movs	r6, #4
   109da:	2400      	movs	r4, #0
   109dc:	9303      	str	r3, [sp, #12]
   109de:	e767      	b.n	108b0 <__aeabi_ddiv+0x48>
   109e0:	2303      	movs	r3, #3
   109e2:	46b1      	mov	r9, r6
   109e4:	9303      	str	r3, [sp, #12]
   109e6:	260c      	movs	r6, #12
   109e8:	e762      	b.n	108b0 <__aeabi_ddiv+0x48>
   109ea:	2a03      	cmp	r2, #3
   109ec:	d100      	bne.n	109f0 <__aeabi_ddiv+0x188>
   109ee:	e25c      	b.n	10eaa <__aeabi_ddiv+0x642>
   109f0:	9b01      	ldr	r3, [sp, #4]
   109f2:	2a01      	cmp	r2, #1
   109f4:	d000      	beq.n	109f8 <__aeabi_ddiv+0x190>
   109f6:	e1e4      	b.n	10dc2 <__aeabi_ddiv+0x55a>
   109f8:	4013      	ands	r3, r2
   109fa:	469c      	mov	ip, r3
   109fc:	2300      	movs	r3, #0
   109fe:	2400      	movs	r4, #0
   10a00:	2200      	movs	r2, #0
   10a02:	4698      	mov	r8, r3
   10a04:	2100      	movs	r1, #0
   10a06:	0312      	lsls	r2, r2, #12
   10a08:	0b13      	lsrs	r3, r2, #12
   10a0a:	0d0a      	lsrs	r2, r1, #20
   10a0c:	0512      	lsls	r2, r2, #20
   10a0e:	431a      	orrs	r2, r3
   10a10:	0523      	lsls	r3, r4, #20
   10a12:	4c12      	ldr	r4, [pc, #72]	; (10a5c <__aeabi_ddiv+0x1f4>)
   10a14:	4640      	mov	r0, r8
   10a16:	4022      	ands	r2, r4
   10a18:	4313      	orrs	r3, r2
   10a1a:	4662      	mov	r2, ip
   10a1c:	005b      	lsls	r3, r3, #1
   10a1e:	07d2      	lsls	r2, r2, #31
   10a20:	085b      	lsrs	r3, r3, #1
   10a22:	4313      	orrs	r3, r2
   10a24:	0019      	movs	r1, r3
   10a26:	b007      	add	sp, #28
   10a28:	bc3c      	pop	{r2, r3, r4, r5}
   10a2a:	4690      	mov	r8, r2
   10a2c:	4699      	mov	r9, r3
   10a2e:	46a2      	mov	sl, r4
   10a30:	46ab      	mov	fp, r5
   10a32:	bdf0      	pop	{r4, r5, r6, r7, pc}
   10a34:	2300      	movs	r3, #0
   10a36:	2280      	movs	r2, #128	; 0x80
   10a38:	469c      	mov	ip, r3
   10a3a:	0312      	lsls	r2, r2, #12
   10a3c:	4698      	mov	r8, r3
   10a3e:	4c03      	ldr	r4, [pc, #12]	; (10a4c <__aeabi_ddiv+0x1e4>)
   10a40:	e7e0      	b.n	10a04 <__aeabi_ddiv+0x19c>
   10a42:	2300      	movs	r3, #0
   10a44:	4c01      	ldr	r4, [pc, #4]	; (10a4c <__aeabi_ddiv+0x1e4>)
   10a46:	2200      	movs	r2, #0
   10a48:	4698      	mov	r8, r3
   10a4a:	e7db      	b.n	10a04 <__aeabi_ddiv+0x19c>
   10a4c:	000007ff 	.word	0x000007ff
   10a50:	fffffc01 	.word	0xfffffc01
   10a54:	000124e4 	.word	0x000124e4
   10a58:	fffffc0d 	.word	0xfffffc0d
   10a5c:	800fffff 	.word	0x800fffff
   10a60:	45d9      	cmp	r9, fp
   10a62:	d900      	bls.n	10a66 <__aeabi_ddiv+0x1fe>
   10a64:	e139      	b.n	10cda <__aeabi_ddiv+0x472>
   10a66:	d100      	bne.n	10a6a <__aeabi_ddiv+0x202>
   10a68:	e134      	b.n	10cd4 <__aeabi_ddiv+0x46c>
   10a6a:	2300      	movs	r3, #0
   10a6c:	4646      	mov	r6, r8
   10a6e:	464d      	mov	r5, r9
   10a70:	469a      	mov	sl, r3
   10a72:	3c01      	subs	r4, #1
   10a74:	465b      	mov	r3, fp
   10a76:	0e0a      	lsrs	r2, r1, #24
   10a78:	021b      	lsls	r3, r3, #8
   10a7a:	431a      	orrs	r2, r3
   10a7c:	020b      	lsls	r3, r1, #8
   10a7e:	0c17      	lsrs	r7, r2, #16
   10a80:	9303      	str	r3, [sp, #12]
   10a82:	0413      	lsls	r3, r2, #16
   10a84:	0c1b      	lsrs	r3, r3, #16
   10a86:	0039      	movs	r1, r7
   10a88:	0028      	movs	r0, r5
   10a8a:	4690      	mov	r8, r2
   10a8c:	9301      	str	r3, [sp, #4]
   10a8e:	f7ff fa07 	bl	fea0 <__udivsi3>
   10a92:	0002      	movs	r2, r0
   10a94:	9b01      	ldr	r3, [sp, #4]
   10a96:	4683      	mov	fp, r0
   10a98:	435a      	muls	r2, r3
   10a9a:	0028      	movs	r0, r5
   10a9c:	0039      	movs	r1, r7
   10a9e:	4691      	mov	r9, r2
   10aa0:	f7ff fa84 	bl	ffac <__aeabi_uidivmod>
   10aa4:	0c35      	lsrs	r5, r6, #16
   10aa6:	0409      	lsls	r1, r1, #16
   10aa8:	430d      	orrs	r5, r1
   10aaa:	45a9      	cmp	r9, r5
   10aac:	d90d      	bls.n	10aca <__aeabi_ddiv+0x262>
   10aae:	465b      	mov	r3, fp
   10ab0:	4445      	add	r5, r8
   10ab2:	3b01      	subs	r3, #1
   10ab4:	45a8      	cmp	r8, r5
   10ab6:	d900      	bls.n	10aba <__aeabi_ddiv+0x252>
   10ab8:	e13a      	b.n	10d30 <__aeabi_ddiv+0x4c8>
   10aba:	45a9      	cmp	r9, r5
   10abc:	d800      	bhi.n	10ac0 <__aeabi_ddiv+0x258>
   10abe:	e137      	b.n	10d30 <__aeabi_ddiv+0x4c8>
   10ac0:	2302      	movs	r3, #2
   10ac2:	425b      	negs	r3, r3
   10ac4:	469c      	mov	ip, r3
   10ac6:	4445      	add	r5, r8
   10ac8:	44e3      	add	fp, ip
   10aca:	464b      	mov	r3, r9
   10acc:	1aeb      	subs	r3, r5, r3
   10ace:	0039      	movs	r1, r7
   10ad0:	0018      	movs	r0, r3
   10ad2:	9304      	str	r3, [sp, #16]
   10ad4:	f7ff f9e4 	bl	fea0 <__udivsi3>
   10ad8:	9b01      	ldr	r3, [sp, #4]
   10ada:	0005      	movs	r5, r0
   10adc:	4343      	muls	r3, r0
   10ade:	0039      	movs	r1, r7
   10ae0:	9804      	ldr	r0, [sp, #16]
   10ae2:	4699      	mov	r9, r3
   10ae4:	f7ff fa62 	bl	ffac <__aeabi_uidivmod>
   10ae8:	0433      	lsls	r3, r6, #16
   10aea:	0409      	lsls	r1, r1, #16
   10aec:	0c1b      	lsrs	r3, r3, #16
   10aee:	430b      	orrs	r3, r1
   10af0:	4599      	cmp	r9, r3
   10af2:	d909      	bls.n	10b08 <__aeabi_ddiv+0x2a0>
   10af4:	4443      	add	r3, r8
   10af6:	1e6a      	subs	r2, r5, #1
   10af8:	4598      	cmp	r8, r3
   10afa:	d900      	bls.n	10afe <__aeabi_ddiv+0x296>
   10afc:	e11a      	b.n	10d34 <__aeabi_ddiv+0x4cc>
   10afe:	4599      	cmp	r9, r3
   10b00:	d800      	bhi.n	10b04 <__aeabi_ddiv+0x29c>
   10b02:	e117      	b.n	10d34 <__aeabi_ddiv+0x4cc>
   10b04:	3d02      	subs	r5, #2
   10b06:	4443      	add	r3, r8
   10b08:	464a      	mov	r2, r9
   10b0a:	1a9b      	subs	r3, r3, r2
   10b0c:	465a      	mov	r2, fp
   10b0e:	0412      	lsls	r2, r2, #16
   10b10:	432a      	orrs	r2, r5
   10b12:	9903      	ldr	r1, [sp, #12]
   10b14:	4693      	mov	fp, r2
   10b16:	0c10      	lsrs	r0, r2, #16
   10b18:	0c0a      	lsrs	r2, r1, #16
   10b1a:	4691      	mov	r9, r2
   10b1c:	0409      	lsls	r1, r1, #16
   10b1e:	465a      	mov	r2, fp
   10b20:	0c09      	lsrs	r1, r1, #16
   10b22:	464e      	mov	r6, r9
   10b24:	000d      	movs	r5, r1
   10b26:	0412      	lsls	r2, r2, #16
   10b28:	0c12      	lsrs	r2, r2, #16
   10b2a:	4345      	muls	r5, r0
   10b2c:	9105      	str	r1, [sp, #20]
   10b2e:	4351      	muls	r1, r2
   10b30:	4372      	muls	r2, r6
   10b32:	4370      	muls	r0, r6
   10b34:	1952      	adds	r2, r2, r5
   10b36:	0c0e      	lsrs	r6, r1, #16
   10b38:	18b2      	adds	r2, r6, r2
   10b3a:	4295      	cmp	r5, r2
   10b3c:	d903      	bls.n	10b46 <__aeabi_ddiv+0x2de>
   10b3e:	2580      	movs	r5, #128	; 0x80
   10b40:	026d      	lsls	r5, r5, #9
   10b42:	46ac      	mov	ip, r5
   10b44:	4460      	add	r0, ip
   10b46:	0c15      	lsrs	r5, r2, #16
   10b48:	0409      	lsls	r1, r1, #16
   10b4a:	0412      	lsls	r2, r2, #16
   10b4c:	0c09      	lsrs	r1, r1, #16
   10b4e:	1828      	adds	r0, r5, r0
   10b50:	1852      	adds	r2, r2, r1
   10b52:	4283      	cmp	r3, r0
   10b54:	d200      	bcs.n	10b58 <__aeabi_ddiv+0x2f0>
   10b56:	e0ce      	b.n	10cf6 <__aeabi_ddiv+0x48e>
   10b58:	d100      	bne.n	10b5c <__aeabi_ddiv+0x2f4>
   10b5a:	e0c8      	b.n	10cee <__aeabi_ddiv+0x486>
   10b5c:	1a1d      	subs	r5, r3, r0
   10b5e:	4653      	mov	r3, sl
   10b60:	1a9e      	subs	r6, r3, r2
   10b62:	45b2      	cmp	sl, r6
   10b64:	4192      	sbcs	r2, r2
   10b66:	4252      	negs	r2, r2
   10b68:	1aab      	subs	r3, r5, r2
   10b6a:	469a      	mov	sl, r3
   10b6c:	4598      	cmp	r8, r3
   10b6e:	d100      	bne.n	10b72 <__aeabi_ddiv+0x30a>
   10b70:	e117      	b.n	10da2 <__aeabi_ddiv+0x53a>
   10b72:	0039      	movs	r1, r7
   10b74:	0018      	movs	r0, r3
   10b76:	f7ff f993 	bl	fea0 <__udivsi3>
   10b7a:	9b01      	ldr	r3, [sp, #4]
   10b7c:	0005      	movs	r5, r0
   10b7e:	4343      	muls	r3, r0
   10b80:	0039      	movs	r1, r7
   10b82:	4650      	mov	r0, sl
   10b84:	9304      	str	r3, [sp, #16]
   10b86:	f7ff fa11 	bl	ffac <__aeabi_uidivmod>
   10b8a:	9804      	ldr	r0, [sp, #16]
   10b8c:	040b      	lsls	r3, r1, #16
   10b8e:	0c31      	lsrs	r1, r6, #16
   10b90:	4319      	orrs	r1, r3
   10b92:	4288      	cmp	r0, r1
   10b94:	d909      	bls.n	10baa <__aeabi_ddiv+0x342>
   10b96:	4441      	add	r1, r8
   10b98:	1e6b      	subs	r3, r5, #1
   10b9a:	4588      	cmp	r8, r1
   10b9c:	d900      	bls.n	10ba0 <__aeabi_ddiv+0x338>
   10b9e:	e107      	b.n	10db0 <__aeabi_ddiv+0x548>
   10ba0:	4288      	cmp	r0, r1
   10ba2:	d800      	bhi.n	10ba6 <__aeabi_ddiv+0x33e>
   10ba4:	e104      	b.n	10db0 <__aeabi_ddiv+0x548>
   10ba6:	3d02      	subs	r5, #2
   10ba8:	4441      	add	r1, r8
   10baa:	9b04      	ldr	r3, [sp, #16]
   10bac:	1acb      	subs	r3, r1, r3
   10bae:	0018      	movs	r0, r3
   10bb0:	0039      	movs	r1, r7
   10bb2:	9304      	str	r3, [sp, #16]
   10bb4:	f7ff f974 	bl	fea0 <__udivsi3>
   10bb8:	9b01      	ldr	r3, [sp, #4]
   10bba:	4682      	mov	sl, r0
   10bbc:	4343      	muls	r3, r0
   10bbe:	0039      	movs	r1, r7
   10bc0:	9804      	ldr	r0, [sp, #16]
   10bc2:	9301      	str	r3, [sp, #4]
   10bc4:	f7ff f9f2 	bl	ffac <__aeabi_uidivmod>
   10bc8:	9801      	ldr	r0, [sp, #4]
   10bca:	040b      	lsls	r3, r1, #16
   10bcc:	0431      	lsls	r1, r6, #16
   10bce:	0c09      	lsrs	r1, r1, #16
   10bd0:	4319      	orrs	r1, r3
   10bd2:	4288      	cmp	r0, r1
   10bd4:	d90d      	bls.n	10bf2 <__aeabi_ddiv+0x38a>
   10bd6:	4653      	mov	r3, sl
   10bd8:	4441      	add	r1, r8
   10bda:	3b01      	subs	r3, #1
   10bdc:	4588      	cmp	r8, r1
   10bde:	d900      	bls.n	10be2 <__aeabi_ddiv+0x37a>
   10be0:	e0e8      	b.n	10db4 <__aeabi_ddiv+0x54c>
   10be2:	4288      	cmp	r0, r1
   10be4:	d800      	bhi.n	10be8 <__aeabi_ddiv+0x380>
   10be6:	e0e5      	b.n	10db4 <__aeabi_ddiv+0x54c>
   10be8:	2302      	movs	r3, #2
   10bea:	425b      	negs	r3, r3
   10bec:	469c      	mov	ip, r3
   10bee:	4441      	add	r1, r8
   10bf0:	44e2      	add	sl, ip
   10bf2:	9b01      	ldr	r3, [sp, #4]
   10bf4:	042d      	lsls	r5, r5, #16
   10bf6:	1ace      	subs	r6, r1, r3
   10bf8:	4651      	mov	r1, sl
   10bfa:	4329      	orrs	r1, r5
   10bfc:	9d05      	ldr	r5, [sp, #20]
   10bfe:	464f      	mov	r7, r9
   10c00:	002a      	movs	r2, r5
   10c02:	040b      	lsls	r3, r1, #16
   10c04:	0c08      	lsrs	r0, r1, #16
   10c06:	0c1b      	lsrs	r3, r3, #16
   10c08:	435a      	muls	r2, r3
   10c0a:	4345      	muls	r5, r0
   10c0c:	437b      	muls	r3, r7
   10c0e:	4378      	muls	r0, r7
   10c10:	195b      	adds	r3, r3, r5
   10c12:	0c17      	lsrs	r7, r2, #16
   10c14:	18fb      	adds	r3, r7, r3
   10c16:	429d      	cmp	r5, r3
   10c18:	d903      	bls.n	10c22 <__aeabi_ddiv+0x3ba>
   10c1a:	2580      	movs	r5, #128	; 0x80
   10c1c:	026d      	lsls	r5, r5, #9
   10c1e:	46ac      	mov	ip, r5
   10c20:	4460      	add	r0, ip
   10c22:	0c1d      	lsrs	r5, r3, #16
   10c24:	0412      	lsls	r2, r2, #16
   10c26:	041b      	lsls	r3, r3, #16
   10c28:	0c12      	lsrs	r2, r2, #16
   10c2a:	1828      	adds	r0, r5, r0
   10c2c:	189b      	adds	r3, r3, r2
   10c2e:	4286      	cmp	r6, r0
   10c30:	d200      	bcs.n	10c34 <__aeabi_ddiv+0x3cc>
   10c32:	e093      	b.n	10d5c <__aeabi_ddiv+0x4f4>
   10c34:	d100      	bne.n	10c38 <__aeabi_ddiv+0x3d0>
   10c36:	e08e      	b.n	10d56 <__aeabi_ddiv+0x4ee>
   10c38:	2301      	movs	r3, #1
   10c3a:	4319      	orrs	r1, r3
   10c3c:	4ba0      	ldr	r3, [pc, #640]	; (10ec0 <__aeabi_ddiv+0x658>)
   10c3e:	18e3      	adds	r3, r4, r3
   10c40:	2b00      	cmp	r3, #0
   10c42:	dc00      	bgt.n	10c46 <__aeabi_ddiv+0x3de>
   10c44:	e099      	b.n	10d7a <__aeabi_ddiv+0x512>
   10c46:	074a      	lsls	r2, r1, #29
   10c48:	d000      	beq.n	10c4c <__aeabi_ddiv+0x3e4>
   10c4a:	e09e      	b.n	10d8a <__aeabi_ddiv+0x522>
   10c4c:	465a      	mov	r2, fp
   10c4e:	01d2      	lsls	r2, r2, #7
   10c50:	d506      	bpl.n	10c60 <__aeabi_ddiv+0x3f8>
   10c52:	465a      	mov	r2, fp
   10c54:	4b9b      	ldr	r3, [pc, #620]	; (10ec4 <__aeabi_ddiv+0x65c>)
   10c56:	401a      	ands	r2, r3
   10c58:	2380      	movs	r3, #128	; 0x80
   10c5a:	4693      	mov	fp, r2
   10c5c:	00db      	lsls	r3, r3, #3
   10c5e:	18e3      	adds	r3, r4, r3
   10c60:	4a99      	ldr	r2, [pc, #612]	; (10ec8 <__aeabi_ddiv+0x660>)
   10c62:	4293      	cmp	r3, r2
   10c64:	dd68      	ble.n	10d38 <__aeabi_ddiv+0x4d0>
   10c66:	2301      	movs	r3, #1
   10c68:	9a02      	ldr	r2, [sp, #8]
   10c6a:	4c98      	ldr	r4, [pc, #608]	; (10ecc <__aeabi_ddiv+0x664>)
   10c6c:	401a      	ands	r2, r3
   10c6e:	2300      	movs	r3, #0
   10c70:	4694      	mov	ip, r2
   10c72:	4698      	mov	r8, r3
   10c74:	2200      	movs	r2, #0
   10c76:	e6c5      	b.n	10a04 <__aeabi_ddiv+0x19c>
   10c78:	2280      	movs	r2, #128	; 0x80
   10c7a:	464b      	mov	r3, r9
   10c7c:	0312      	lsls	r2, r2, #12
   10c7e:	4213      	tst	r3, r2
   10c80:	d00a      	beq.n	10c98 <__aeabi_ddiv+0x430>
   10c82:	465b      	mov	r3, fp
   10c84:	4213      	tst	r3, r2
   10c86:	d106      	bne.n	10c96 <__aeabi_ddiv+0x42e>
   10c88:	431a      	orrs	r2, r3
   10c8a:	0312      	lsls	r2, r2, #12
   10c8c:	0b12      	lsrs	r2, r2, #12
   10c8e:	46ac      	mov	ip, r5
   10c90:	4688      	mov	r8, r1
   10c92:	4c8e      	ldr	r4, [pc, #568]	; (10ecc <__aeabi_ddiv+0x664>)
   10c94:	e6b6      	b.n	10a04 <__aeabi_ddiv+0x19c>
   10c96:	464b      	mov	r3, r9
   10c98:	431a      	orrs	r2, r3
   10c9a:	0312      	lsls	r2, r2, #12
   10c9c:	0b12      	lsrs	r2, r2, #12
   10c9e:	46bc      	mov	ip, r7
   10ca0:	4c8a      	ldr	r4, [pc, #552]	; (10ecc <__aeabi_ddiv+0x664>)
   10ca2:	e6af      	b.n	10a04 <__aeabi_ddiv+0x19c>
   10ca4:	0003      	movs	r3, r0
   10ca6:	465a      	mov	r2, fp
   10ca8:	3b28      	subs	r3, #40	; 0x28
   10caa:	409a      	lsls	r2, r3
   10cac:	2300      	movs	r3, #0
   10cae:	4691      	mov	r9, r2
   10cb0:	4698      	mov	r8, r3
   10cb2:	e657      	b.n	10964 <__aeabi_ddiv+0xfc>
   10cb4:	4658      	mov	r0, fp
   10cb6:	f7ff f97f 	bl	ffb8 <__clzsi2>
   10cba:	3020      	adds	r0, #32
   10cbc:	e640      	b.n	10940 <__aeabi_ddiv+0xd8>
   10cbe:	0003      	movs	r3, r0
   10cc0:	4652      	mov	r2, sl
   10cc2:	3b28      	subs	r3, #40	; 0x28
   10cc4:	409a      	lsls	r2, r3
   10cc6:	2100      	movs	r1, #0
   10cc8:	4693      	mov	fp, r2
   10cca:	e677      	b.n	109bc <__aeabi_ddiv+0x154>
   10ccc:	f7ff f974 	bl	ffb8 <__clzsi2>
   10cd0:	3020      	adds	r0, #32
   10cd2:	e65f      	b.n	10994 <__aeabi_ddiv+0x12c>
   10cd4:	4588      	cmp	r8, r1
   10cd6:	d200      	bcs.n	10cda <__aeabi_ddiv+0x472>
   10cd8:	e6c7      	b.n	10a6a <__aeabi_ddiv+0x202>
   10cda:	464b      	mov	r3, r9
   10cdc:	07de      	lsls	r6, r3, #31
   10cde:	085d      	lsrs	r5, r3, #1
   10ce0:	4643      	mov	r3, r8
   10ce2:	085b      	lsrs	r3, r3, #1
   10ce4:	431e      	orrs	r6, r3
   10ce6:	4643      	mov	r3, r8
   10ce8:	07db      	lsls	r3, r3, #31
   10cea:	469a      	mov	sl, r3
   10cec:	e6c2      	b.n	10a74 <__aeabi_ddiv+0x20c>
   10cee:	2500      	movs	r5, #0
   10cf0:	4592      	cmp	sl, r2
   10cf2:	d300      	bcc.n	10cf6 <__aeabi_ddiv+0x48e>
   10cf4:	e733      	b.n	10b5e <__aeabi_ddiv+0x2f6>
   10cf6:	9e03      	ldr	r6, [sp, #12]
   10cf8:	4659      	mov	r1, fp
   10cfa:	46b4      	mov	ip, r6
   10cfc:	44e2      	add	sl, ip
   10cfe:	45b2      	cmp	sl, r6
   10d00:	41ad      	sbcs	r5, r5
   10d02:	426d      	negs	r5, r5
   10d04:	4445      	add	r5, r8
   10d06:	18eb      	adds	r3, r5, r3
   10d08:	3901      	subs	r1, #1
   10d0a:	4598      	cmp	r8, r3
   10d0c:	d207      	bcs.n	10d1e <__aeabi_ddiv+0x4b6>
   10d0e:	4298      	cmp	r0, r3
   10d10:	d900      	bls.n	10d14 <__aeabi_ddiv+0x4ac>
   10d12:	e07f      	b.n	10e14 <__aeabi_ddiv+0x5ac>
   10d14:	d100      	bne.n	10d18 <__aeabi_ddiv+0x4b0>
   10d16:	e0bc      	b.n	10e92 <__aeabi_ddiv+0x62a>
   10d18:	1a1d      	subs	r5, r3, r0
   10d1a:	468b      	mov	fp, r1
   10d1c:	e71f      	b.n	10b5e <__aeabi_ddiv+0x2f6>
   10d1e:	4598      	cmp	r8, r3
   10d20:	d1fa      	bne.n	10d18 <__aeabi_ddiv+0x4b0>
   10d22:	9d03      	ldr	r5, [sp, #12]
   10d24:	4555      	cmp	r5, sl
   10d26:	d9f2      	bls.n	10d0e <__aeabi_ddiv+0x4a6>
   10d28:	4643      	mov	r3, r8
   10d2a:	468b      	mov	fp, r1
   10d2c:	1a1d      	subs	r5, r3, r0
   10d2e:	e716      	b.n	10b5e <__aeabi_ddiv+0x2f6>
   10d30:	469b      	mov	fp, r3
   10d32:	e6ca      	b.n	10aca <__aeabi_ddiv+0x262>
   10d34:	0015      	movs	r5, r2
   10d36:	e6e7      	b.n	10b08 <__aeabi_ddiv+0x2a0>
   10d38:	465a      	mov	r2, fp
   10d3a:	08c9      	lsrs	r1, r1, #3
   10d3c:	0752      	lsls	r2, r2, #29
   10d3e:	430a      	orrs	r2, r1
   10d40:	055b      	lsls	r3, r3, #21
   10d42:	4690      	mov	r8, r2
   10d44:	0d5c      	lsrs	r4, r3, #21
   10d46:	465a      	mov	r2, fp
   10d48:	2301      	movs	r3, #1
   10d4a:	9902      	ldr	r1, [sp, #8]
   10d4c:	0252      	lsls	r2, r2, #9
   10d4e:	4019      	ands	r1, r3
   10d50:	0b12      	lsrs	r2, r2, #12
   10d52:	468c      	mov	ip, r1
   10d54:	e656      	b.n	10a04 <__aeabi_ddiv+0x19c>
   10d56:	2b00      	cmp	r3, #0
   10d58:	d100      	bne.n	10d5c <__aeabi_ddiv+0x4f4>
   10d5a:	e76f      	b.n	10c3c <__aeabi_ddiv+0x3d4>
   10d5c:	4446      	add	r6, r8
   10d5e:	1e4a      	subs	r2, r1, #1
   10d60:	45b0      	cmp	r8, r6
   10d62:	d929      	bls.n	10db8 <__aeabi_ddiv+0x550>
   10d64:	0011      	movs	r1, r2
   10d66:	4286      	cmp	r6, r0
   10d68:	d000      	beq.n	10d6c <__aeabi_ddiv+0x504>
   10d6a:	e765      	b.n	10c38 <__aeabi_ddiv+0x3d0>
   10d6c:	9a03      	ldr	r2, [sp, #12]
   10d6e:	4293      	cmp	r3, r2
   10d70:	d000      	beq.n	10d74 <__aeabi_ddiv+0x50c>
   10d72:	e761      	b.n	10c38 <__aeabi_ddiv+0x3d0>
   10d74:	e762      	b.n	10c3c <__aeabi_ddiv+0x3d4>
   10d76:	2101      	movs	r1, #1
   10d78:	4249      	negs	r1, r1
   10d7a:	2001      	movs	r0, #1
   10d7c:	1ac2      	subs	r2, r0, r3
   10d7e:	2a38      	cmp	r2, #56	; 0x38
   10d80:	dd21      	ble.n	10dc6 <__aeabi_ddiv+0x55e>
   10d82:	9b02      	ldr	r3, [sp, #8]
   10d84:	4003      	ands	r3, r0
   10d86:	469c      	mov	ip, r3
   10d88:	e638      	b.n	109fc <__aeabi_ddiv+0x194>
   10d8a:	220f      	movs	r2, #15
   10d8c:	400a      	ands	r2, r1
   10d8e:	2a04      	cmp	r2, #4
   10d90:	d100      	bne.n	10d94 <__aeabi_ddiv+0x52c>
   10d92:	e75b      	b.n	10c4c <__aeabi_ddiv+0x3e4>
   10d94:	000a      	movs	r2, r1
   10d96:	1d11      	adds	r1, r2, #4
   10d98:	4291      	cmp	r1, r2
   10d9a:	4192      	sbcs	r2, r2
   10d9c:	4252      	negs	r2, r2
   10d9e:	4493      	add	fp, r2
   10da0:	e754      	b.n	10c4c <__aeabi_ddiv+0x3e4>
   10da2:	4b47      	ldr	r3, [pc, #284]	; (10ec0 <__aeabi_ddiv+0x658>)
   10da4:	18e3      	adds	r3, r4, r3
   10da6:	2b00      	cmp	r3, #0
   10da8:	dde5      	ble.n	10d76 <__aeabi_ddiv+0x50e>
   10daa:	2201      	movs	r2, #1
   10dac:	4252      	negs	r2, r2
   10dae:	e7f2      	b.n	10d96 <__aeabi_ddiv+0x52e>
   10db0:	001d      	movs	r5, r3
   10db2:	e6fa      	b.n	10baa <__aeabi_ddiv+0x342>
   10db4:	469a      	mov	sl, r3
   10db6:	e71c      	b.n	10bf2 <__aeabi_ddiv+0x38a>
   10db8:	42b0      	cmp	r0, r6
   10dba:	d839      	bhi.n	10e30 <__aeabi_ddiv+0x5c8>
   10dbc:	d06e      	beq.n	10e9c <__aeabi_ddiv+0x634>
   10dbe:	0011      	movs	r1, r2
   10dc0:	e73a      	b.n	10c38 <__aeabi_ddiv+0x3d0>
   10dc2:	9302      	str	r3, [sp, #8]
   10dc4:	e73a      	b.n	10c3c <__aeabi_ddiv+0x3d4>
   10dc6:	2a1f      	cmp	r2, #31
   10dc8:	dc3c      	bgt.n	10e44 <__aeabi_ddiv+0x5dc>
   10dca:	2320      	movs	r3, #32
   10dcc:	1a9b      	subs	r3, r3, r2
   10dce:	000c      	movs	r4, r1
   10dd0:	4658      	mov	r0, fp
   10dd2:	4099      	lsls	r1, r3
   10dd4:	4098      	lsls	r0, r3
   10dd6:	1e4b      	subs	r3, r1, #1
   10dd8:	4199      	sbcs	r1, r3
   10dda:	465b      	mov	r3, fp
   10ddc:	40d4      	lsrs	r4, r2
   10dde:	40d3      	lsrs	r3, r2
   10de0:	4320      	orrs	r0, r4
   10de2:	4308      	orrs	r0, r1
   10de4:	001a      	movs	r2, r3
   10de6:	0743      	lsls	r3, r0, #29
   10de8:	d009      	beq.n	10dfe <__aeabi_ddiv+0x596>
   10dea:	230f      	movs	r3, #15
   10dec:	4003      	ands	r3, r0
   10dee:	2b04      	cmp	r3, #4
   10df0:	d005      	beq.n	10dfe <__aeabi_ddiv+0x596>
   10df2:	0001      	movs	r1, r0
   10df4:	1d08      	adds	r0, r1, #4
   10df6:	4288      	cmp	r0, r1
   10df8:	419b      	sbcs	r3, r3
   10dfa:	425b      	negs	r3, r3
   10dfc:	18d2      	adds	r2, r2, r3
   10dfe:	0213      	lsls	r3, r2, #8
   10e00:	d53a      	bpl.n	10e78 <__aeabi_ddiv+0x610>
   10e02:	2301      	movs	r3, #1
   10e04:	9a02      	ldr	r2, [sp, #8]
   10e06:	2401      	movs	r4, #1
   10e08:	401a      	ands	r2, r3
   10e0a:	2300      	movs	r3, #0
   10e0c:	4694      	mov	ip, r2
   10e0e:	4698      	mov	r8, r3
   10e10:	2200      	movs	r2, #0
   10e12:	e5f7      	b.n	10a04 <__aeabi_ddiv+0x19c>
   10e14:	2102      	movs	r1, #2
   10e16:	4249      	negs	r1, r1
   10e18:	468c      	mov	ip, r1
   10e1a:	9d03      	ldr	r5, [sp, #12]
   10e1c:	44e3      	add	fp, ip
   10e1e:	46ac      	mov	ip, r5
   10e20:	44e2      	add	sl, ip
   10e22:	45aa      	cmp	sl, r5
   10e24:	41ad      	sbcs	r5, r5
   10e26:	426d      	negs	r5, r5
   10e28:	4445      	add	r5, r8
   10e2a:	18ed      	adds	r5, r5, r3
   10e2c:	1a2d      	subs	r5, r5, r0
   10e2e:	e696      	b.n	10b5e <__aeabi_ddiv+0x2f6>
   10e30:	1e8a      	subs	r2, r1, #2
   10e32:	9903      	ldr	r1, [sp, #12]
   10e34:	004d      	lsls	r5, r1, #1
   10e36:	428d      	cmp	r5, r1
   10e38:	4189      	sbcs	r1, r1
   10e3a:	4249      	negs	r1, r1
   10e3c:	4441      	add	r1, r8
   10e3e:	1876      	adds	r6, r6, r1
   10e40:	9503      	str	r5, [sp, #12]
   10e42:	e78f      	b.n	10d64 <__aeabi_ddiv+0x4fc>
   10e44:	201f      	movs	r0, #31
   10e46:	4240      	negs	r0, r0
   10e48:	1ac3      	subs	r3, r0, r3
   10e4a:	4658      	mov	r0, fp
   10e4c:	40d8      	lsrs	r0, r3
   10e4e:	0003      	movs	r3, r0
   10e50:	2a20      	cmp	r2, #32
   10e52:	d028      	beq.n	10ea6 <__aeabi_ddiv+0x63e>
   10e54:	2040      	movs	r0, #64	; 0x40
   10e56:	465d      	mov	r5, fp
   10e58:	1a82      	subs	r2, r0, r2
   10e5a:	4095      	lsls	r5, r2
   10e5c:	4329      	orrs	r1, r5
   10e5e:	1e4a      	subs	r2, r1, #1
   10e60:	4191      	sbcs	r1, r2
   10e62:	4319      	orrs	r1, r3
   10e64:	2307      	movs	r3, #7
   10e66:	2200      	movs	r2, #0
   10e68:	400b      	ands	r3, r1
   10e6a:	d009      	beq.n	10e80 <__aeabi_ddiv+0x618>
   10e6c:	230f      	movs	r3, #15
   10e6e:	2200      	movs	r2, #0
   10e70:	400b      	ands	r3, r1
   10e72:	0008      	movs	r0, r1
   10e74:	2b04      	cmp	r3, #4
   10e76:	d1bd      	bne.n	10df4 <__aeabi_ddiv+0x58c>
   10e78:	0001      	movs	r1, r0
   10e7a:	0753      	lsls	r3, r2, #29
   10e7c:	0252      	lsls	r2, r2, #9
   10e7e:	0b12      	lsrs	r2, r2, #12
   10e80:	08c9      	lsrs	r1, r1, #3
   10e82:	4319      	orrs	r1, r3
   10e84:	2301      	movs	r3, #1
   10e86:	4688      	mov	r8, r1
   10e88:	9902      	ldr	r1, [sp, #8]
   10e8a:	2400      	movs	r4, #0
   10e8c:	4019      	ands	r1, r3
   10e8e:	468c      	mov	ip, r1
   10e90:	e5b8      	b.n	10a04 <__aeabi_ddiv+0x19c>
   10e92:	4552      	cmp	r2, sl
   10e94:	d8be      	bhi.n	10e14 <__aeabi_ddiv+0x5ac>
   10e96:	468b      	mov	fp, r1
   10e98:	2500      	movs	r5, #0
   10e9a:	e660      	b.n	10b5e <__aeabi_ddiv+0x2f6>
   10e9c:	9d03      	ldr	r5, [sp, #12]
   10e9e:	429d      	cmp	r5, r3
   10ea0:	d3c6      	bcc.n	10e30 <__aeabi_ddiv+0x5c8>
   10ea2:	0011      	movs	r1, r2
   10ea4:	e762      	b.n	10d6c <__aeabi_ddiv+0x504>
   10ea6:	2500      	movs	r5, #0
   10ea8:	e7d8      	b.n	10e5c <__aeabi_ddiv+0x5f4>
   10eaa:	2280      	movs	r2, #128	; 0x80
   10eac:	465b      	mov	r3, fp
   10eae:	0312      	lsls	r2, r2, #12
   10eb0:	431a      	orrs	r2, r3
   10eb2:	9b01      	ldr	r3, [sp, #4]
   10eb4:	0312      	lsls	r2, r2, #12
   10eb6:	0b12      	lsrs	r2, r2, #12
   10eb8:	469c      	mov	ip, r3
   10eba:	4688      	mov	r8, r1
   10ebc:	4c03      	ldr	r4, [pc, #12]	; (10ecc <__aeabi_ddiv+0x664>)
   10ebe:	e5a1      	b.n	10a04 <__aeabi_ddiv+0x19c>
   10ec0:	000003ff 	.word	0x000003ff
   10ec4:	feffffff 	.word	0xfeffffff
   10ec8:	000007fe 	.word	0x000007fe
   10ecc:	000007ff 	.word	0x000007ff

00010ed0 <__aeabi_dmul>:
   10ed0:	b5f0      	push	{r4, r5, r6, r7, lr}
   10ed2:	4657      	mov	r7, sl
   10ed4:	4645      	mov	r5, r8
   10ed6:	46de      	mov	lr, fp
   10ed8:	464e      	mov	r6, r9
   10eda:	b5e0      	push	{r5, r6, r7, lr}
   10edc:	030c      	lsls	r4, r1, #12
   10ede:	4698      	mov	r8, r3
   10ee0:	004e      	lsls	r6, r1, #1
   10ee2:	0b23      	lsrs	r3, r4, #12
   10ee4:	b087      	sub	sp, #28
   10ee6:	0007      	movs	r7, r0
   10ee8:	4692      	mov	sl, r2
   10eea:	469b      	mov	fp, r3
   10eec:	0d76      	lsrs	r6, r6, #21
   10eee:	0fcd      	lsrs	r5, r1, #31
   10ef0:	2e00      	cmp	r6, #0
   10ef2:	d06b      	beq.n	10fcc <__aeabi_dmul+0xfc>
   10ef4:	4b6d      	ldr	r3, [pc, #436]	; (110ac <__aeabi_dmul+0x1dc>)
   10ef6:	429e      	cmp	r6, r3
   10ef8:	d035      	beq.n	10f66 <__aeabi_dmul+0x96>
   10efa:	2480      	movs	r4, #128	; 0x80
   10efc:	465b      	mov	r3, fp
   10efe:	0f42      	lsrs	r2, r0, #29
   10f00:	0424      	lsls	r4, r4, #16
   10f02:	00db      	lsls	r3, r3, #3
   10f04:	4314      	orrs	r4, r2
   10f06:	431c      	orrs	r4, r3
   10f08:	00c3      	lsls	r3, r0, #3
   10f0a:	4699      	mov	r9, r3
   10f0c:	4b68      	ldr	r3, [pc, #416]	; (110b0 <__aeabi_dmul+0x1e0>)
   10f0e:	46a3      	mov	fp, r4
   10f10:	469c      	mov	ip, r3
   10f12:	2300      	movs	r3, #0
   10f14:	2700      	movs	r7, #0
   10f16:	4466      	add	r6, ip
   10f18:	9302      	str	r3, [sp, #8]
   10f1a:	4643      	mov	r3, r8
   10f1c:	031c      	lsls	r4, r3, #12
   10f1e:	005a      	lsls	r2, r3, #1
   10f20:	0fdb      	lsrs	r3, r3, #31
   10f22:	4650      	mov	r0, sl
   10f24:	0b24      	lsrs	r4, r4, #12
   10f26:	0d52      	lsrs	r2, r2, #21
   10f28:	4698      	mov	r8, r3
   10f2a:	d100      	bne.n	10f2e <__aeabi_dmul+0x5e>
   10f2c:	e076      	b.n	1101c <__aeabi_dmul+0x14c>
   10f2e:	4b5f      	ldr	r3, [pc, #380]	; (110ac <__aeabi_dmul+0x1dc>)
   10f30:	429a      	cmp	r2, r3
   10f32:	d06d      	beq.n	11010 <__aeabi_dmul+0x140>
   10f34:	2380      	movs	r3, #128	; 0x80
   10f36:	0f41      	lsrs	r1, r0, #29
   10f38:	041b      	lsls	r3, r3, #16
   10f3a:	430b      	orrs	r3, r1
   10f3c:	495c      	ldr	r1, [pc, #368]	; (110b0 <__aeabi_dmul+0x1e0>)
   10f3e:	00e4      	lsls	r4, r4, #3
   10f40:	468c      	mov	ip, r1
   10f42:	431c      	orrs	r4, r3
   10f44:	00c3      	lsls	r3, r0, #3
   10f46:	2000      	movs	r0, #0
   10f48:	4462      	add	r2, ip
   10f4a:	4641      	mov	r1, r8
   10f4c:	18b6      	adds	r6, r6, r2
   10f4e:	4069      	eors	r1, r5
   10f50:	1c72      	adds	r2, r6, #1
   10f52:	9101      	str	r1, [sp, #4]
   10f54:	4694      	mov	ip, r2
   10f56:	4307      	orrs	r7, r0
   10f58:	2f0f      	cmp	r7, #15
   10f5a:	d900      	bls.n	10f5e <__aeabi_dmul+0x8e>
   10f5c:	e0b0      	b.n	110c0 <__aeabi_dmul+0x1f0>
   10f5e:	4a55      	ldr	r2, [pc, #340]	; (110b4 <__aeabi_dmul+0x1e4>)
   10f60:	00bf      	lsls	r7, r7, #2
   10f62:	59d2      	ldr	r2, [r2, r7]
   10f64:	4697      	mov	pc, r2
   10f66:	465b      	mov	r3, fp
   10f68:	4303      	orrs	r3, r0
   10f6a:	4699      	mov	r9, r3
   10f6c:	d000      	beq.n	10f70 <__aeabi_dmul+0xa0>
   10f6e:	e087      	b.n	11080 <__aeabi_dmul+0x1b0>
   10f70:	2300      	movs	r3, #0
   10f72:	469b      	mov	fp, r3
   10f74:	3302      	adds	r3, #2
   10f76:	2708      	movs	r7, #8
   10f78:	9302      	str	r3, [sp, #8]
   10f7a:	e7ce      	b.n	10f1a <__aeabi_dmul+0x4a>
   10f7c:	4642      	mov	r2, r8
   10f7e:	9201      	str	r2, [sp, #4]
   10f80:	2802      	cmp	r0, #2
   10f82:	d067      	beq.n	11054 <__aeabi_dmul+0x184>
   10f84:	2803      	cmp	r0, #3
   10f86:	d100      	bne.n	10f8a <__aeabi_dmul+0xba>
   10f88:	e20e      	b.n	113a8 <__aeabi_dmul+0x4d8>
   10f8a:	2801      	cmp	r0, #1
   10f8c:	d000      	beq.n	10f90 <__aeabi_dmul+0xc0>
   10f8e:	e162      	b.n	11256 <__aeabi_dmul+0x386>
   10f90:	2300      	movs	r3, #0
   10f92:	2400      	movs	r4, #0
   10f94:	2200      	movs	r2, #0
   10f96:	4699      	mov	r9, r3
   10f98:	9901      	ldr	r1, [sp, #4]
   10f9a:	4001      	ands	r1, r0
   10f9c:	b2cd      	uxtb	r5, r1
   10f9e:	2100      	movs	r1, #0
   10fa0:	0312      	lsls	r2, r2, #12
   10fa2:	0d0b      	lsrs	r3, r1, #20
   10fa4:	0b12      	lsrs	r2, r2, #12
   10fa6:	051b      	lsls	r3, r3, #20
   10fa8:	4313      	orrs	r3, r2
   10faa:	4a43      	ldr	r2, [pc, #268]	; (110b8 <__aeabi_dmul+0x1e8>)
   10fac:	0524      	lsls	r4, r4, #20
   10fae:	4013      	ands	r3, r2
   10fb0:	431c      	orrs	r4, r3
   10fb2:	0064      	lsls	r4, r4, #1
   10fb4:	07ed      	lsls	r5, r5, #31
   10fb6:	0864      	lsrs	r4, r4, #1
   10fb8:	432c      	orrs	r4, r5
   10fba:	4648      	mov	r0, r9
   10fbc:	0021      	movs	r1, r4
   10fbe:	b007      	add	sp, #28
   10fc0:	bc3c      	pop	{r2, r3, r4, r5}
   10fc2:	4690      	mov	r8, r2
   10fc4:	4699      	mov	r9, r3
   10fc6:	46a2      	mov	sl, r4
   10fc8:	46ab      	mov	fp, r5
   10fca:	bdf0      	pop	{r4, r5, r6, r7, pc}
   10fcc:	4303      	orrs	r3, r0
   10fce:	4699      	mov	r9, r3
   10fd0:	d04f      	beq.n	11072 <__aeabi_dmul+0x1a2>
   10fd2:	465b      	mov	r3, fp
   10fd4:	2b00      	cmp	r3, #0
   10fd6:	d100      	bne.n	10fda <__aeabi_dmul+0x10a>
   10fd8:	e189      	b.n	112ee <__aeabi_dmul+0x41e>
   10fda:	4658      	mov	r0, fp
   10fdc:	f7fe ffec 	bl	ffb8 <__clzsi2>
   10fe0:	0003      	movs	r3, r0
   10fe2:	3b0b      	subs	r3, #11
   10fe4:	2b1c      	cmp	r3, #28
   10fe6:	dd00      	ble.n	10fea <__aeabi_dmul+0x11a>
   10fe8:	e17a      	b.n	112e0 <__aeabi_dmul+0x410>
   10fea:	221d      	movs	r2, #29
   10fec:	1ad3      	subs	r3, r2, r3
   10fee:	003a      	movs	r2, r7
   10ff0:	0001      	movs	r1, r0
   10ff2:	465c      	mov	r4, fp
   10ff4:	40da      	lsrs	r2, r3
   10ff6:	3908      	subs	r1, #8
   10ff8:	408c      	lsls	r4, r1
   10ffa:	0013      	movs	r3, r2
   10ffc:	408f      	lsls	r7, r1
   10ffe:	4323      	orrs	r3, r4
   11000:	469b      	mov	fp, r3
   11002:	46b9      	mov	r9, r7
   11004:	2300      	movs	r3, #0
   11006:	4e2d      	ldr	r6, [pc, #180]	; (110bc <__aeabi_dmul+0x1ec>)
   11008:	2700      	movs	r7, #0
   1100a:	1a36      	subs	r6, r6, r0
   1100c:	9302      	str	r3, [sp, #8]
   1100e:	e784      	b.n	10f1a <__aeabi_dmul+0x4a>
   11010:	4653      	mov	r3, sl
   11012:	4323      	orrs	r3, r4
   11014:	d12a      	bne.n	1106c <__aeabi_dmul+0x19c>
   11016:	2400      	movs	r4, #0
   11018:	2002      	movs	r0, #2
   1101a:	e796      	b.n	10f4a <__aeabi_dmul+0x7a>
   1101c:	4653      	mov	r3, sl
   1101e:	4323      	orrs	r3, r4
   11020:	d020      	beq.n	11064 <__aeabi_dmul+0x194>
   11022:	2c00      	cmp	r4, #0
   11024:	d100      	bne.n	11028 <__aeabi_dmul+0x158>
   11026:	e157      	b.n	112d8 <__aeabi_dmul+0x408>
   11028:	0020      	movs	r0, r4
   1102a:	f7fe ffc5 	bl	ffb8 <__clzsi2>
   1102e:	0003      	movs	r3, r0
   11030:	3b0b      	subs	r3, #11
   11032:	2b1c      	cmp	r3, #28
   11034:	dd00      	ble.n	11038 <__aeabi_dmul+0x168>
   11036:	e149      	b.n	112cc <__aeabi_dmul+0x3fc>
   11038:	211d      	movs	r1, #29
   1103a:	1acb      	subs	r3, r1, r3
   1103c:	4651      	mov	r1, sl
   1103e:	0002      	movs	r2, r0
   11040:	40d9      	lsrs	r1, r3
   11042:	4653      	mov	r3, sl
   11044:	3a08      	subs	r2, #8
   11046:	4094      	lsls	r4, r2
   11048:	4093      	lsls	r3, r2
   1104a:	430c      	orrs	r4, r1
   1104c:	4a1b      	ldr	r2, [pc, #108]	; (110bc <__aeabi_dmul+0x1ec>)
   1104e:	1a12      	subs	r2, r2, r0
   11050:	2000      	movs	r0, #0
   11052:	e77a      	b.n	10f4a <__aeabi_dmul+0x7a>
   11054:	2501      	movs	r5, #1
   11056:	9b01      	ldr	r3, [sp, #4]
   11058:	4c14      	ldr	r4, [pc, #80]	; (110ac <__aeabi_dmul+0x1dc>)
   1105a:	401d      	ands	r5, r3
   1105c:	2300      	movs	r3, #0
   1105e:	2200      	movs	r2, #0
   11060:	4699      	mov	r9, r3
   11062:	e79c      	b.n	10f9e <__aeabi_dmul+0xce>
   11064:	2400      	movs	r4, #0
   11066:	2200      	movs	r2, #0
   11068:	2001      	movs	r0, #1
   1106a:	e76e      	b.n	10f4a <__aeabi_dmul+0x7a>
   1106c:	4653      	mov	r3, sl
   1106e:	2003      	movs	r0, #3
   11070:	e76b      	b.n	10f4a <__aeabi_dmul+0x7a>
   11072:	2300      	movs	r3, #0
   11074:	469b      	mov	fp, r3
   11076:	3301      	adds	r3, #1
   11078:	2704      	movs	r7, #4
   1107a:	2600      	movs	r6, #0
   1107c:	9302      	str	r3, [sp, #8]
   1107e:	e74c      	b.n	10f1a <__aeabi_dmul+0x4a>
   11080:	2303      	movs	r3, #3
   11082:	4681      	mov	r9, r0
   11084:	270c      	movs	r7, #12
   11086:	9302      	str	r3, [sp, #8]
   11088:	e747      	b.n	10f1a <__aeabi_dmul+0x4a>
   1108a:	2280      	movs	r2, #128	; 0x80
   1108c:	2300      	movs	r3, #0
   1108e:	2500      	movs	r5, #0
   11090:	0312      	lsls	r2, r2, #12
   11092:	4699      	mov	r9, r3
   11094:	4c05      	ldr	r4, [pc, #20]	; (110ac <__aeabi_dmul+0x1dc>)
   11096:	e782      	b.n	10f9e <__aeabi_dmul+0xce>
   11098:	465c      	mov	r4, fp
   1109a:	464b      	mov	r3, r9
   1109c:	9802      	ldr	r0, [sp, #8]
   1109e:	e76f      	b.n	10f80 <__aeabi_dmul+0xb0>
   110a0:	465c      	mov	r4, fp
   110a2:	464b      	mov	r3, r9
   110a4:	9501      	str	r5, [sp, #4]
   110a6:	9802      	ldr	r0, [sp, #8]
   110a8:	e76a      	b.n	10f80 <__aeabi_dmul+0xb0>
   110aa:	46c0      	nop			; (mov r8, r8)
   110ac:	000007ff 	.word	0x000007ff
   110b0:	fffffc01 	.word	0xfffffc01
   110b4:	00012524 	.word	0x00012524
   110b8:	800fffff 	.word	0x800fffff
   110bc:	fffffc0d 	.word	0xfffffc0d
   110c0:	464a      	mov	r2, r9
   110c2:	4649      	mov	r1, r9
   110c4:	0c17      	lsrs	r7, r2, #16
   110c6:	0c1a      	lsrs	r2, r3, #16
   110c8:	041b      	lsls	r3, r3, #16
   110ca:	0c1b      	lsrs	r3, r3, #16
   110cc:	0408      	lsls	r0, r1, #16
   110ce:	0019      	movs	r1, r3
   110d0:	0c00      	lsrs	r0, r0, #16
   110d2:	4341      	muls	r1, r0
   110d4:	0015      	movs	r5, r2
   110d6:	4688      	mov	r8, r1
   110d8:	0019      	movs	r1, r3
   110da:	437d      	muls	r5, r7
   110dc:	4379      	muls	r1, r7
   110de:	9503      	str	r5, [sp, #12]
   110e0:	4689      	mov	r9, r1
   110e2:	0029      	movs	r1, r5
   110e4:	0015      	movs	r5, r2
   110e6:	4345      	muls	r5, r0
   110e8:	444d      	add	r5, r9
   110ea:	9502      	str	r5, [sp, #8]
   110ec:	4645      	mov	r5, r8
   110ee:	0c2d      	lsrs	r5, r5, #16
   110f0:	46aa      	mov	sl, r5
   110f2:	9d02      	ldr	r5, [sp, #8]
   110f4:	4455      	add	r5, sl
   110f6:	45a9      	cmp	r9, r5
   110f8:	d906      	bls.n	11108 <__aeabi_dmul+0x238>
   110fa:	468a      	mov	sl, r1
   110fc:	2180      	movs	r1, #128	; 0x80
   110fe:	0249      	lsls	r1, r1, #9
   11100:	4689      	mov	r9, r1
   11102:	44ca      	add	sl, r9
   11104:	4651      	mov	r1, sl
   11106:	9103      	str	r1, [sp, #12]
   11108:	0c29      	lsrs	r1, r5, #16
   1110a:	9104      	str	r1, [sp, #16]
   1110c:	4641      	mov	r1, r8
   1110e:	0409      	lsls	r1, r1, #16
   11110:	042d      	lsls	r5, r5, #16
   11112:	0c09      	lsrs	r1, r1, #16
   11114:	4688      	mov	r8, r1
   11116:	0029      	movs	r1, r5
   11118:	0c25      	lsrs	r5, r4, #16
   1111a:	0424      	lsls	r4, r4, #16
   1111c:	4441      	add	r1, r8
   1111e:	0c24      	lsrs	r4, r4, #16
   11120:	9105      	str	r1, [sp, #20]
   11122:	0021      	movs	r1, r4
   11124:	4341      	muls	r1, r0
   11126:	4688      	mov	r8, r1
   11128:	0021      	movs	r1, r4
   1112a:	4379      	muls	r1, r7
   1112c:	468a      	mov	sl, r1
   1112e:	4368      	muls	r0, r5
   11130:	4641      	mov	r1, r8
   11132:	4450      	add	r0, sl
   11134:	4681      	mov	r9, r0
   11136:	0c08      	lsrs	r0, r1, #16
   11138:	4448      	add	r0, r9
   1113a:	436f      	muls	r7, r5
   1113c:	4582      	cmp	sl, r0
   1113e:	d903      	bls.n	11148 <__aeabi_dmul+0x278>
   11140:	2180      	movs	r1, #128	; 0x80
   11142:	0249      	lsls	r1, r1, #9
   11144:	4689      	mov	r9, r1
   11146:	444f      	add	r7, r9
   11148:	0c01      	lsrs	r1, r0, #16
   1114a:	4689      	mov	r9, r1
   1114c:	0039      	movs	r1, r7
   1114e:	4449      	add	r1, r9
   11150:	9102      	str	r1, [sp, #8]
   11152:	4641      	mov	r1, r8
   11154:	040f      	lsls	r7, r1, #16
   11156:	9904      	ldr	r1, [sp, #16]
   11158:	0c3f      	lsrs	r7, r7, #16
   1115a:	4688      	mov	r8, r1
   1115c:	0400      	lsls	r0, r0, #16
   1115e:	19c0      	adds	r0, r0, r7
   11160:	4480      	add	r8, r0
   11162:	4641      	mov	r1, r8
   11164:	9104      	str	r1, [sp, #16]
   11166:	4659      	mov	r1, fp
   11168:	0c0f      	lsrs	r7, r1, #16
   1116a:	0409      	lsls	r1, r1, #16
   1116c:	0c09      	lsrs	r1, r1, #16
   1116e:	4688      	mov	r8, r1
   11170:	4359      	muls	r1, r3
   11172:	468a      	mov	sl, r1
   11174:	0039      	movs	r1, r7
   11176:	4351      	muls	r1, r2
   11178:	4689      	mov	r9, r1
   1117a:	4641      	mov	r1, r8
   1117c:	434a      	muls	r2, r1
   1117e:	4651      	mov	r1, sl
   11180:	0c09      	lsrs	r1, r1, #16
   11182:	468b      	mov	fp, r1
   11184:	437b      	muls	r3, r7
   11186:	18d2      	adds	r2, r2, r3
   11188:	445a      	add	r2, fp
   1118a:	4293      	cmp	r3, r2
   1118c:	d903      	bls.n	11196 <__aeabi_dmul+0x2c6>
   1118e:	2380      	movs	r3, #128	; 0x80
   11190:	025b      	lsls	r3, r3, #9
   11192:	469b      	mov	fp, r3
   11194:	44d9      	add	r9, fp
   11196:	4651      	mov	r1, sl
   11198:	0409      	lsls	r1, r1, #16
   1119a:	0c09      	lsrs	r1, r1, #16
   1119c:	468a      	mov	sl, r1
   1119e:	4641      	mov	r1, r8
   111a0:	4361      	muls	r1, r4
   111a2:	437c      	muls	r4, r7
   111a4:	0c13      	lsrs	r3, r2, #16
   111a6:	0412      	lsls	r2, r2, #16
   111a8:	444b      	add	r3, r9
   111aa:	4452      	add	r2, sl
   111ac:	46a1      	mov	r9, r4
   111ae:	468a      	mov	sl, r1
   111b0:	003c      	movs	r4, r7
   111b2:	4641      	mov	r1, r8
   111b4:	436c      	muls	r4, r5
   111b6:	434d      	muls	r5, r1
   111b8:	4651      	mov	r1, sl
   111ba:	444d      	add	r5, r9
   111bc:	0c0f      	lsrs	r7, r1, #16
   111be:	197d      	adds	r5, r7, r5
   111c0:	45a9      	cmp	r9, r5
   111c2:	d903      	bls.n	111cc <__aeabi_dmul+0x2fc>
   111c4:	2180      	movs	r1, #128	; 0x80
   111c6:	0249      	lsls	r1, r1, #9
   111c8:	4688      	mov	r8, r1
   111ca:	4444      	add	r4, r8
   111cc:	9f04      	ldr	r7, [sp, #16]
   111ce:	9903      	ldr	r1, [sp, #12]
   111d0:	46b8      	mov	r8, r7
   111d2:	4441      	add	r1, r8
   111d4:	468b      	mov	fp, r1
   111d6:	4583      	cmp	fp, r0
   111d8:	4180      	sbcs	r0, r0
   111da:	4241      	negs	r1, r0
   111dc:	4688      	mov	r8, r1
   111de:	4651      	mov	r1, sl
   111e0:	0408      	lsls	r0, r1, #16
   111e2:	042f      	lsls	r7, r5, #16
   111e4:	0c00      	lsrs	r0, r0, #16
   111e6:	183f      	adds	r7, r7, r0
   111e8:	4658      	mov	r0, fp
   111ea:	9902      	ldr	r1, [sp, #8]
   111ec:	1810      	adds	r0, r2, r0
   111ee:	4689      	mov	r9, r1
   111f0:	4290      	cmp	r0, r2
   111f2:	4192      	sbcs	r2, r2
   111f4:	444f      	add	r7, r9
   111f6:	46ba      	mov	sl, r7
   111f8:	4252      	negs	r2, r2
   111fa:	4699      	mov	r9, r3
   111fc:	4693      	mov	fp, r2
   111fe:	44c2      	add	sl, r8
   11200:	44d1      	add	r9, sl
   11202:	44cb      	add	fp, r9
   11204:	428f      	cmp	r7, r1
   11206:	41bf      	sbcs	r7, r7
   11208:	45c2      	cmp	sl, r8
   1120a:	4189      	sbcs	r1, r1
   1120c:	4599      	cmp	r9, r3
   1120e:	419b      	sbcs	r3, r3
   11210:	4593      	cmp	fp, r2
   11212:	4192      	sbcs	r2, r2
   11214:	427f      	negs	r7, r7
   11216:	4249      	negs	r1, r1
   11218:	0c2d      	lsrs	r5, r5, #16
   1121a:	4252      	negs	r2, r2
   1121c:	430f      	orrs	r7, r1
   1121e:	425b      	negs	r3, r3
   11220:	4313      	orrs	r3, r2
   11222:	197f      	adds	r7, r7, r5
   11224:	18ff      	adds	r7, r7, r3
   11226:	465b      	mov	r3, fp
   11228:	193c      	adds	r4, r7, r4
   1122a:	0ddb      	lsrs	r3, r3, #23
   1122c:	9a05      	ldr	r2, [sp, #20]
   1122e:	0264      	lsls	r4, r4, #9
   11230:	431c      	orrs	r4, r3
   11232:	0243      	lsls	r3, r0, #9
   11234:	4313      	orrs	r3, r2
   11236:	1e5d      	subs	r5, r3, #1
   11238:	41ab      	sbcs	r3, r5
   1123a:	465a      	mov	r2, fp
   1123c:	0dc0      	lsrs	r0, r0, #23
   1123e:	4303      	orrs	r3, r0
   11240:	0252      	lsls	r2, r2, #9
   11242:	4313      	orrs	r3, r2
   11244:	01e2      	lsls	r2, r4, #7
   11246:	d556      	bpl.n	112f6 <__aeabi_dmul+0x426>
   11248:	2001      	movs	r0, #1
   1124a:	085a      	lsrs	r2, r3, #1
   1124c:	4003      	ands	r3, r0
   1124e:	4313      	orrs	r3, r2
   11250:	07e2      	lsls	r2, r4, #31
   11252:	4313      	orrs	r3, r2
   11254:	0864      	lsrs	r4, r4, #1
   11256:	485a      	ldr	r0, [pc, #360]	; (113c0 <__aeabi_dmul+0x4f0>)
   11258:	4460      	add	r0, ip
   1125a:	2800      	cmp	r0, #0
   1125c:	dd4d      	ble.n	112fa <__aeabi_dmul+0x42a>
   1125e:	075a      	lsls	r2, r3, #29
   11260:	d009      	beq.n	11276 <__aeabi_dmul+0x3a6>
   11262:	220f      	movs	r2, #15
   11264:	401a      	ands	r2, r3
   11266:	2a04      	cmp	r2, #4
   11268:	d005      	beq.n	11276 <__aeabi_dmul+0x3a6>
   1126a:	1d1a      	adds	r2, r3, #4
   1126c:	429a      	cmp	r2, r3
   1126e:	419b      	sbcs	r3, r3
   11270:	425b      	negs	r3, r3
   11272:	18e4      	adds	r4, r4, r3
   11274:	0013      	movs	r3, r2
   11276:	01e2      	lsls	r2, r4, #7
   11278:	d504      	bpl.n	11284 <__aeabi_dmul+0x3b4>
   1127a:	2080      	movs	r0, #128	; 0x80
   1127c:	4a51      	ldr	r2, [pc, #324]	; (113c4 <__aeabi_dmul+0x4f4>)
   1127e:	00c0      	lsls	r0, r0, #3
   11280:	4014      	ands	r4, r2
   11282:	4460      	add	r0, ip
   11284:	4a50      	ldr	r2, [pc, #320]	; (113c8 <__aeabi_dmul+0x4f8>)
   11286:	4290      	cmp	r0, r2
   11288:	dd00      	ble.n	1128c <__aeabi_dmul+0x3bc>
   1128a:	e6e3      	b.n	11054 <__aeabi_dmul+0x184>
   1128c:	2501      	movs	r5, #1
   1128e:	08db      	lsrs	r3, r3, #3
   11290:	0762      	lsls	r2, r4, #29
   11292:	431a      	orrs	r2, r3
   11294:	0264      	lsls	r4, r4, #9
   11296:	9b01      	ldr	r3, [sp, #4]
   11298:	4691      	mov	r9, r2
   1129a:	0b22      	lsrs	r2, r4, #12
   1129c:	0544      	lsls	r4, r0, #21
   1129e:	0d64      	lsrs	r4, r4, #21
   112a0:	401d      	ands	r5, r3
   112a2:	e67c      	b.n	10f9e <__aeabi_dmul+0xce>
   112a4:	2280      	movs	r2, #128	; 0x80
   112a6:	4659      	mov	r1, fp
   112a8:	0312      	lsls	r2, r2, #12
   112aa:	4211      	tst	r1, r2
   112ac:	d008      	beq.n	112c0 <__aeabi_dmul+0x3f0>
   112ae:	4214      	tst	r4, r2
   112b0:	d106      	bne.n	112c0 <__aeabi_dmul+0x3f0>
   112b2:	4322      	orrs	r2, r4
   112b4:	0312      	lsls	r2, r2, #12
   112b6:	0b12      	lsrs	r2, r2, #12
   112b8:	4645      	mov	r5, r8
   112ba:	4699      	mov	r9, r3
   112bc:	4c43      	ldr	r4, [pc, #268]	; (113cc <__aeabi_dmul+0x4fc>)
   112be:	e66e      	b.n	10f9e <__aeabi_dmul+0xce>
   112c0:	465b      	mov	r3, fp
   112c2:	431a      	orrs	r2, r3
   112c4:	0312      	lsls	r2, r2, #12
   112c6:	0b12      	lsrs	r2, r2, #12
   112c8:	4c40      	ldr	r4, [pc, #256]	; (113cc <__aeabi_dmul+0x4fc>)
   112ca:	e668      	b.n	10f9e <__aeabi_dmul+0xce>
   112cc:	0003      	movs	r3, r0
   112ce:	4654      	mov	r4, sl
   112d0:	3b28      	subs	r3, #40	; 0x28
   112d2:	409c      	lsls	r4, r3
   112d4:	2300      	movs	r3, #0
   112d6:	e6b9      	b.n	1104c <__aeabi_dmul+0x17c>
   112d8:	f7fe fe6e 	bl	ffb8 <__clzsi2>
   112dc:	3020      	adds	r0, #32
   112de:	e6a6      	b.n	1102e <__aeabi_dmul+0x15e>
   112e0:	0003      	movs	r3, r0
   112e2:	3b28      	subs	r3, #40	; 0x28
   112e4:	409f      	lsls	r7, r3
   112e6:	2300      	movs	r3, #0
   112e8:	46bb      	mov	fp, r7
   112ea:	4699      	mov	r9, r3
   112ec:	e68a      	b.n	11004 <__aeabi_dmul+0x134>
   112ee:	f7fe fe63 	bl	ffb8 <__clzsi2>
   112f2:	3020      	adds	r0, #32
   112f4:	e674      	b.n	10fe0 <__aeabi_dmul+0x110>
   112f6:	46b4      	mov	ip, r6
   112f8:	e7ad      	b.n	11256 <__aeabi_dmul+0x386>
   112fa:	2501      	movs	r5, #1
   112fc:	1a2a      	subs	r2, r5, r0
   112fe:	2a38      	cmp	r2, #56	; 0x38
   11300:	dd06      	ble.n	11310 <__aeabi_dmul+0x440>
   11302:	9b01      	ldr	r3, [sp, #4]
   11304:	2400      	movs	r4, #0
   11306:	401d      	ands	r5, r3
   11308:	2300      	movs	r3, #0
   1130a:	2200      	movs	r2, #0
   1130c:	4699      	mov	r9, r3
   1130e:	e646      	b.n	10f9e <__aeabi_dmul+0xce>
   11310:	2a1f      	cmp	r2, #31
   11312:	dc21      	bgt.n	11358 <__aeabi_dmul+0x488>
   11314:	2520      	movs	r5, #32
   11316:	0020      	movs	r0, r4
   11318:	1aad      	subs	r5, r5, r2
   1131a:	001e      	movs	r6, r3
   1131c:	40ab      	lsls	r3, r5
   1131e:	40a8      	lsls	r0, r5
   11320:	40d6      	lsrs	r6, r2
   11322:	1e5d      	subs	r5, r3, #1
   11324:	41ab      	sbcs	r3, r5
   11326:	4330      	orrs	r0, r6
   11328:	4318      	orrs	r0, r3
   1132a:	40d4      	lsrs	r4, r2
   1132c:	0743      	lsls	r3, r0, #29
   1132e:	d009      	beq.n	11344 <__aeabi_dmul+0x474>
   11330:	230f      	movs	r3, #15
   11332:	4003      	ands	r3, r0
   11334:	2b04      	cmp	r3, #4
   11336:	d005      	beq.n	11344 <__aeabi_dmul+0x474>
   11338:	0003      	movs	r3, r0
   1133a:	1d18      	adds	r0, r3, #4
   1133c:	4298      	cmp	r0, r3
   1133e:	419b      	sbcs	r3, r3
   11340:	425b      	negs	r3, r3
   11342:	18e4      	adds	r4, r4, r3
   11344:	0223      	lsls	r3, r4, #8
   11346:	d521      	bpl.n	1138c <__aeabi_dmul+0x4bc>
   11348:	2501      	movs	r5, #1
   1134a:	9b01      	ldr	r3, [sp, #4]
   1134c:	2401      	movs	r4, #1
   1134e:	401d      	ands	r5, r3
   11350:	2300      	movs	r3, #0
   11352:	2200      	movs	r2, #0
   11354:	4699      	mov	r9, r3
   11356:	e622      	b.n	10f9e <__aeabi_dmul+0xce>
   11358:	251f      	movs	r5, #31
   1135a:	0021      	movs	r1, r4
   1135c:	426d      	negs	r5, r5
   1135e:	1a28      	subs	r0, r5, r0
   11360:	40c1      	lsrs	r1, r0
   11362:	0008      	movs	r0, r1
   11364:	2a20      	cmp	r2, #32
   11366:	d01d      	beq.n	113a4 <__aeabi_dmul+0x4d4>
   11368:	355f      	adds	r5, #95	; 0x5f
   1136a:	1aaa      	subs	r2, r5, r2
   1136c:	4094      	lsls	r4, r2
   1136e:	4323      	orrs	r3, r4
   11370:	1e5c      	subs	r4, r3, #1
   11372:	41a3      	sbcs	r3, r4
   11374:	2507      	movs	r5, #7
   11376:	4303      	orrs	r3, r0
   11378:	401d      	ands	r5, r3
   1137a:	2200      	movs	r2, #0
   1137c:	2d00      	cmp	r5, #0
   1137e:	d009      	beq.n	11394 <__aeabi_dmul+0x4c4>
   11380:	220f      	movs	r2, #15
   11382:	2400      	movs	r4, #0
   11384:	401a      	ands	r2, r3
   11386:	0018      	movs	r0, r3
   11388:	2a04      	cmp	r2, #4
   1138a:	d1d6      	bne.n	1133a <__aeabi_dmul+0x46a>
   1138c:	0003      	movs	r3, r0
   1138e:	0765      	lsls	r5, r4, #29
   11390:	0264      	lsls	r4, r4, #9
   11392:	0b22      	lsrs	r2, r4, #12
   11394:	08db      	lsrs	r3, r3, #3
   11396:	432b      	orrs	r3, r5
   11398:	2501      	movs	r5, #1
   1139a:	4699      	mov	r9, r3
   1139c:	9b01      	ldr	r3, [sp, #4]
   1139e:	2400      	movs	r4, #0
   113a0:	401d      	ands	r5, r3
   113a2:	e5fc      	b.n	10f9e <__aeabi_dmul+0xce>
   113a4:	2400      	movs	r4, #0
   113a6:	e7e2      	b.n	1136e <__aeabi_dmul+0x49e>
   113a8:	2280      	movs	r2, #128	; 0x80
   113aa:	2501      	movs	r5, #1
   113ac:	0312      	lsls	r2, r2, #12
   113ae:	4322      	orrs	r2, r4
   113b0:	9901      	ldr	r1, [sp, #4]
   113b2:	0312      	lsls	r2, r2, #12
   113b4:	0b12      	lsrs	r2, r2, #12
   113b6:	400d      	ands	r5, r1
   113b8:	4699      	mov	r9, r3
   113ba:	4c04      	ldr	r4, [pc, #16]	; (113cc <__aeabi_dmul+0x4fc>)
   113bc:	e5ef      	b.n	10f9e <__aeabi_dmul+0xce>
   113be:	46c0      	nop			; (mov r8, r8)
   113c0:	000003ff 	.word	0x000003ff
   113c4:	feffffff 	.word	0xfeffffff
   113c8:	000007fe 	.word	0x000007fe
   113cc:	000007ff 	.word	0x000007ff

000113d0 <__aeabi_dsub>:
   113d0:	b5f0      	push	{r4, r5, r6, r7, lr}
   113d2:	4646      	mov	r6, r8
   113d4:	46d6      	mov	lr, sl
   113d6:	464f      	mov	r7, r9
   113d8:	030c      	lsls	r4, r1, #12
   113da:	b5c0      	push	{r6, r7, lr}
   113dc:	0fcd      	lsrs	r5, r1, #31
   113de:	004e      	lsls	r6, r1, #1
   113e0:	0a61      	lsrs	r1, r4, #9
   113e2:	0f44      	lsrs	r4, r0, #29
   113e4:	430c      	orrs	r4, r1
   113e6:	00c1      	lsls	r1, r0, #3
   113e8:	0058      	lsls	r0, r3, #1
   113ea:	0d40      	lsrs	r0, r0, #21
   113ec:	4684      	mov	ip, r0
   113ee:	468a      	mov	sl, r1
   113f0:	000f      	movs	r7, r1
   113f2:	0319      	lsls	r1, r3, #12
   113f4:	0f50      	lsrs	r0, r2, #29
   113f6:	0a49      	lsrs	r1, r1, #9
   113f8:	4301      	orrs	r1, r0
   113fa:	48c6      	ldr	r0, [pc, #792]	; (11714 <__aeabi_dsub+0x344>)
   113fc:	0d76      	lsrs	r6, r6, #21
   113fe:	46a8      	mov	r8, r5
   11400:	0fdb      	lsrs	r3, r3, #31
   11402:	00d2      	lsls	r2, r2, #3
   11404:	4584      	cmp	ip, r0
   11406:	d100      	bne.n	1140a <__aeabi_dsub+0x3a>
   11408:	e0d8      	b.n	115bc <__aeabi_dsub+0x1ec>
   1140a:	2001      	movs	r0, #1
   1140c:	4043      	eors	r3, r0
   1140e:	42ab      	cmp	r3, r5
   11410:	d100      	bne.n	11414 <__aeabi_dsub+0x44>
   11412:	e0a6      	b.n	11562 <__aeabi_dsub+0x192>
   11414:	4660      	mov	r0, ip
   11416:	1a35      	subs	r5, r6, r0
   11418:	2d00      	cmp	r5, #0
   1141a:	dc00      	bgt.n	1141e <__aeabi_dsub+0x4e>
   1141c:	e105      	b.n	1162a <__aeabi_dsub+0x25a>
   1141e:	2800      	cmp	r0, #0
   11420:	d110      	bne.n	11444 <__aeabi_dsub+0x74>
   11422:	000b      	movs	r3, r1
   11424:	4313      	orrs	r3, r2
   11426:	d100      	bne.n	1142a <__aeabi_dsub+0x5a>
   11428:	e0d7      	b.n	115da <__aeabi_dsub+0x20a>
   1142a:	1e6b      	subs	r3, r5, #1
   1142c:	2b00      	cmp	r3, #0
   1142e:	d000      	beq.n	11432 <__aeabi_dsub+0x62>
   11430:	e14b      	b.n	116ca <__aeabi_dsub+0x2fa>
   11432:	4653      	mov	r3, sl
   11434:	1a9f      	subs	r7, r3, r2
   11436:	45ba      	cmp	sl, r7
   11438:	4180      	sbcs	r0, r0
   1143a:	1a64      	subs	r4, r4, r1
   1143c:	4240      	negs	r0, r0
   1143e:	1a24      	subs	r4, r4, r0
   11440:	2601      	movs	r6, #1
   11442:	e01e      	b.n	11482 <__aeabi_dsub+0xb2>
   11444:	4bb3      	ldr	r3, [pc, #716]	; (11714 <__aeabi_dsub+0x344>)
   11446:	429e      	cmp	r6, r3
   11448:	d048      	beq.n	114dc <__aeabi_dsub+0x10c>
   1144a:	2380      	movs	r3, #128	; 0x80
   1144c:	041b      	lsls	r3, r3, #16
   1144e:	4319      	orrs	r1, r3
   11450:	2d38      	cmp	r5, #56	; 0x38
   11452:	dd00      	ble.n	11456 <__aeabi_dsub+0x86>
   11454:	e119      	b.n	1168a <__aeabi_dsub+0x2ba>
   11456:	2d1f      	cmp	r5, #31
   11458:	dd00      	ble.n	1145c <__aeabi_dsub+0x8c>
   1145a:	e14c      	b.n	116f6 <__aeabi_dsub+0x326>
   1145c:	2320      	movs	r3, #32
   1145e:	000f      	movs	r7, r1
   11460:	1b5b      	subs	r3, r3, r5
   11462:	0010      	movs	r0, r2
   11464:	409a      	lsls	r2, r3
   11466:	409f      	lsls	r7, r3
   11468:	40e8      	lsrs	r0, r5
   1146a:	1e53      	subs	r3, r2, #1
   1146c:	419a      	sbcs	r2, r3
   1146e:	40e9      	lsrs	r1, r5
   11470:	4307      	orrs	r7, r0
   11472:	4317      	orrs	r7, r2
   11474:	4653      	mov	r3, sl
   11476:	1bdf      	subs	r7, r3, r7
   11478:	1a61      	subs	r1, r4, r1
   1147a:	45ba      	cmp	sl, r7
   1147c:	41a4      	sbcs	r4, r4
   1147e:	4264      	negs	r4, r4
   11480:	1b0c      	subs	r4, r1, r4
   11482:	0223      	lsls	r3, r4, #8
   11484:	d400      	bmi.n	11488 <__aeabi_dsub+0xb8>
   11486:	e0c5      	b.n	11614 <__aeabi_dsub+0x244>
   11488:	0264      	lsls	r4, r4, #9
   1148a:	0a65      	lsrs	r5, r4, #9
   1148c:	2d00      	cmp	r5, #0
   1148e:	d100      	bne.n	11492 <__aeabi_dsub+0xc2>
   11490:	e0f6      	b.n	11680 <__aeabi_dsub+0x2b0>
   11492:	0028      	movs	r0, r5
   11494:	f7fe fd90 	bl	ffb8 <__clzsi2>
   11498:	0003      	movs	r3, r0
   1149a:	3b08      	subs	r3, #8
   1149c:	2b1f      	cmp	r3, #31
   1149e:	dd00      	ble.n	114a2 <__aeabi_dsub+0xd2>
   114a0:	e0e9      	b.n	11676 <__aeabi_dsub+0x2a6>
   114a2:	2220      	movs	r2, #32
   114a4:	003c      	movs	r4, r7
   114a6:	1ad2      	subs	r2, r2, r3
   114a8:	409d      	lsls	r5, r3
   114aa:	40d4      	lsrs	r4, r2
   114ac:	409f      	lsls	r7, r3
   114ae:	4325      	orrs	r5, r4
   114b0:	429e      	cmp	r6, r3
   114b2:	dd00      	ble.n	114b6 <__aeabi_dsub+0xe6>
   114b4:	e0db      	b.n	1166e <__aeabi_dsub+0x29e>
   114b6:	1b9e      	subs	r6, r3, r6
   114b8:	1c73      	adds	r3, r6, #1
   114ba:	2b1f      	cmp	r3, #31
   114bc:	dd00      	ble.n	114c0 <__aeabi_dsub+0xf0>
   114be:	e10a      	b.n	116d6 <__aeabi_dsub+0x306>
   114c0:	2220      	movs	r2, #32
   114c2:	0038      	movs	r0, r7
   114c4:	1ad2      	subs	r2, r2, r3
   114c6:	0029      	movs	r1, r5
   114c8:	4097      	lsls	r7, r2
   114ca:	002c      	movs	r4, r5
   114cc:	4091      	lsls	r1, r2
   114ce:	40d8      	lsrs	r0, r3
   114d0:	1e7a      	subs	r2, r7, #1
   114d2:	4197      	sbcs	r7, r2
   114d4:	40dc      	lsrs	r4, r3
   114d6:	2600      	movs	r6, #0
   114d8:	4301      	orrs	r1, r0
   114da:	430f      	orrs	r7, r1
   114dc:	077b      	lsls	r3, r7, #29
   114de:	d009      	beq.n	114f4 <__aeabi_dsub+0x124>
   114e0:	230f      	movs	r3, #15
   114e2:	403b      	ands	r3, r7
   114e4:	2b04      	cmp	r3, #4
   114e6:	d005      	beq.n	114f4 <__aeabi_dsub+0x124>
   114e8:	1d3b      	adds	r3, r7, #4
   114ea:	42bb      	cmp	r3, r7
   114ec:	41bf      	sbcs	r7, r7
   114ee:	427f      	negs	r7, r7
   114f0:	19e4      	adds	r4, r4, r7
   114f2:	001f      	movs	r7, r3
   114f4:	0223      	lsls	r3, r4, #8
   114f6:	d525      	bpl.n	11544 <__aeabi_dsub+0x174>
   114f8:	4b86      	ldr	r3, [pc, #536]	; (11714 <__aeabi_dsub+0x344>)
   114fa:	3601      	adds	r6, #1
   114fc:	429e      	cmp	r6, r3
   114fe:	d100      	bne.n	11502 <__aeabi_dsub+0x132>
   11500:	e0af      	b.n	11662 <__aeabi_dsub+0x292>
   11502:	4b85      	ldr	r3, [pc, #532]	; (11718 <__aeabi_dsub+0x348>)
   11504:	2501      	movs	r5, #1
   11506:	401c      	ands	r4, r3
   11508:	4643      	mov	r3, r8
   1150a:	0762      	lsls	r2, r4, #29
   1150c:	08ff      	lsrs	r7, r7, #3
   1150e:	0264      	lsls	r4, r4, #9
   11510:	0576      	lsls	r6, r6, #21
   11512:	4317      	orrs	r7, r2
   11514:	0b24      	lsrs	r4, r4, #12
   11516:	0d76      	lsrs	r6, r6, #21
   11518:	401d      	ands	r5, r3
   1151a:	2100      	movs	r1, #0
   1151c:	0324      	lsls	r4, r4, #12
   1151e:	0b23      	lsrs	r3, r4, #12
   11520:	0d0c      	lsrs	r4, r1, #20
   11522:	4a7e      	ldr	r2, [pc, #504]	; (1171c <__aeabi_dsub+0x34c>)
   11524:	0524      	lsls	r4, r4, #20
   11526:	431c      	orrs	r4, r3
   11528:	4014      	ands	r4, r2
   1152a:	0533      	lsls	r3, r6, #20
   1152c:	4323      	orrs	r3, r4
   1152e:	005b      	lsls	r3, r3, #1
   11530:	07ed      	lsls	r5, r5, #31
   11532:	085b      	lsrs	r3, r3, #1
   11534:	432b      	orrs	r3, r5
   11536:	0038      	movs	r0, r7
   11538:	0019      	movs	r1, r3
   1153a:	bc1c      	pop	{r2, r3, r4}
   1153c:	4690      	mov	r8, r2
   1153e:	4699      	mov	r9, r3
   11540:	46a2      	mov	sl, r4
   11542:	bdf0      	pop	{r4, r5, r6, r7, pc}
   11544:	2501      	movs	r5, #1
   11546:	4643      	mov	r3, r8
   11548:	0762      	lsls	r2, r4, #29
   1154a:	08ff      	lsrs	r7, r7, #3
   1154c:	4317      	orrs	r7, r2
   1154e:	08e4      	lsrs	r4, r4, #3
   11550:	401d      	ands	r5, r3
   11552:	4b70      	ldr	r3, [pc, #448]	; (11714 <__aeabi_dsub+0x344>)
   11554:	429e      	cmp	r6, r3
   11556:	d036      	beq.n	115c6 <__aeabi_dsub+0x1f6>
   11558:	0324      	lsls	r4, r4, #12
   1155a:	0576      	lsls	r6, r6, #21
   1155c:	0b24      	lsrs	r4, r4, #12
   1155e:	0d76      	lsrs	r6, r6, #21
   11560:	e7db      	b.n	1151a <__aeabi_dsub+0x14a>
   11562:	4663      	mov	r3, ip
   11564:	1af3      	subs	r3, r6, r3
   11566:	2b00      	cmp	r3, #0
   11568:	dc00      	bgt.n	1156c <__aeabi_dsub+0x19c>
   1156a:	e094      	b.n	11696 <__aeabi_dsub+0x2c6>
   1156c:	4660      	mov	r0, ip
   1156e:	2800      	cmp	r0, #0
   11570:	d035      	beq.n	115de <__aeabi_dsub+0x20e>
   11572:	4868      	ldr	r0, [pc, #416]	; (11714 <__aeabi_dsub+0x344>)
   11574:	4286      	cmp	r6, r0
   11576:	d0b1      	beq.n	114dc <__aeabi_dsub+0x10c>
   11578:	2780      	movs	r7, #128	; 0x80
   1157a:	043f      	lsls	r7, r7, #16
   1157c:	4339      	orrs	r1, r7
   1157e:	2b38      	cmp	r3, #56	; 0x38
   11580:	dc00      	bgt.n	11584 <__aeabi_dsub+0x1b4>
   11582:	e0fd      	b.n	11780 <__aeabi_dsub+0x3b0>
   11584:	430a      	orrs	r2, r1
   11586:	0017      	movs	r7, r2
   11588:	2100      	movs	r1, #0
   1158a:	1e7a      	subs	r2, r7, #1
   1158c:	4197      	sbcs	r7, r2
   1158e:	4457      	add	r7, sl
   11590:	4557      	cmp	r7, sl
   11592:	4180      	sbcs	r0, r0
   11594:	1909      	adds	r1, r1, r4
   11596:	4244      	negs	r4, r0
   11598:	190c      	adds	r4, r1, r4
   1159a:	0223      	lsls	r3, r4, #8
   1159c:	d53a      	bpl.n	11614 <__aeabi_dsub+0x244>
   1159e:	4b5d      	ldr	r3, [pc, #372]	; (11714 <__aeabi_dsub+0x344>)
   115a0:	3601      	adds	r6, #1
   115a2:	429e      	cmp	r6, r3
   115a4:	d100      	bne.n	115a8 <__aeabi_dsub+0x1d8>
   115a6:	e14b      	b.n	11840 <__aeabi_dsub+0x470>
   115a8:	2201      	movs	r2, #1
   115aa:	4b5b      	ldr	r3, [pc, #364]	; (11718 <__aeabi_dsub+0x348>)
   115ac:	401c      	ands	r4, r3
   115ae:	087b      	lsrs	r3, r7, #1
   115b0:	4017      	ands	r7, r2
   115b2:	431f      	orrs	r7, r3
   115b4:	07e2      	lsls	r2, r4, #31
   115b6:	4317      	orrs	r7, r2
   115b8:	0864      	lsrs	r4, r4, #1
   115ba:	e78f      	b.n	114dc <__aeabi_dsub+0x10c>
   115bc:	0008      	movs	r0, r1
   115be:	4310      	orrs	r0, r2
   115c0:	d000      	beq.n	115c4 <__aeabi_dsub+0x1f4>
   115c2:	e724      	b.n	1140e <__aeabi_dsub+0x3e>
   115c4:	e721      	b.n	1140a <__aeabi_dsub+0x3a>
   115c6:	0023      	movs	r3, r4
   115c8:	433b      	orrs	r3, r7
   115ca:	d100      	bne.n	115ce <__aeabi_dsub+0x1fe>
   115cc:	e1b9      	b.n	11942 <__aeabi_dsub+0x572>
   115ce:	2280      	movs	r2, #128	; 0x80
   115d0:	0312      	lsls	r2, r2, #12
   115d2:	4314      	orrs	r4, r2
   115d4:	0324      	lsls	r4, r4, #12
   115d6:	0b24      	lsrs	r4, r4, #12
   115d8:	e79f      	b.n	1151a <__aeabi_dsub+0x14a>
   115da:	002e      	movs	r6, r5
   115dc:	e77e      	b.n	114dc <__aeabi_dsub+0x10c>
   115de:	0008      	movs	r0, r1
   115e0:	4310      	orrs	r0, r2
   115e2:	d100      	bne.n	115e6 <__aeabi_dsub+0x216>
   115e4:	e0ca      	b.n	1177c <__aeabi_dsub+0x3ac>
   115e6:	1e58      	subs	r0, r3, #1
   115e8:	4684      	mov	ip, r0
   115ea:	2800      	cmp	r0, #0
   115ec:	d000      	beq.n	115f0 <__aeabi_dsub+0x220>
   115ee:	e0e7      	b.n	117c0 <__aeabi_dsub+0x3f0>
   115f0:	4452      	add	r2, sl
   115f2:	4552      	cmp	r2, sl
   115f4:	4180      	sbcs	r0, r0
   115f6:	1864      	adds	r4, r4, r1
   115f8:	4240      	negs	r0, r0
   115fa:	1824      	adds	r4, r4, r0
   115fc:	0017      	movs	r7, r2
   115fe:	2601      	movs	r6, #1
   11600:	0223      	lsls	r3, r4, #8
   11602:	d507      	bpl.n	11614 <__aeabi_dsub+0x244>
   11604:	2602      	movs	r6, #2
   11606:	e7cf      	b.n	115a8 <__aeabi_dsub+0x1d8>
   11608:	4664      	mov	r4, ip
   1160a:	432c      	orrs	r4, r5
   1160c:	d100      	bne.n	11610 <__aeabi_dsub+0x240>
   1160e:	e1b3      	b.n	11978 <__aeabi_dsub+0x5a8>
   11610:	002c      	movs	r4, r5
   11612:	4667      	mov	r7, ip
   11614:	077b      	lsls	r3, r7, #29
   11616:	d000      	beq.n	1161a <__aeabi_dsub+0x24a>
   11618:	e762      	b.n	114e0 <__aeabi_dsub+0x110>
   1161a:	0763      	lsls	r3, r4, #29
   1161c:	08ff      	lsrs	r7, r7, #3
   1161e:	431f      	orrs	r7, r3
   11620:	2501      	movs	r5, #1
   11622:	4643      	mov	r3, r8
   11624:	08e4      	lsrs	r4, r4, #3
   11626:	401d      	ands	r5, r3
   11628:	e793      	b.n	11552 <__aeabi_dsub+0x182>
   1162a:	2d00      	cmp	r5, #0
   1162c:	d178      	bne.n	11720 <__aeabi_dsub+0x350>
   1162e:	1c75      	adds	r5, r6, #1
   11630:	056d      	lsls	r5, r5, #21
   11632:	0d6d      	lsrs	r5, r5, #21
   11634:	2d01      	cmp	r5, #1
   11636:	dc00      	bgt.n	1163a <__aeabi_dsub+0x26a>
   11638:	e0f2      	b.n	11820 <__aeabi_dsub+0x450>
   1163a:	4650      	mov	r0, sl
   1163c:	1a80      	subs	r0, r0, r2
   1163e:	4582      	cmp	sl, r0
   11640:	41bf      	sbcs	r7, r7
   11642:	1a65      	subs	r5, r4, r1
   11644:	427f      	negs	r7, r7
   11646:	1bed      	subs	r5, r5, r7
   11648:	4684      	mov	ip, r0
   1164a:	0228      	lsls	r0, r5, #8
   1164c:	d400      	bmi.n	11650 <__aeabi_dsub+0x280>
   1164e:	e08c      	b.n	1176a <__aeabi_dsub+0x39a>
   11650:	4650      	mov	r0, sl
   11652:	1a17      	subs	r7, r2, r0
   11654:	42ba      	cmp	r2, r7
   11656:	4192      	sbcs	r2, r2
   11658:	1b0c      	subs	r4, r1, r4
   1165a:	4255      	negs	r5, r2
   1165c:	1b65      	subs	r5, r4, r5
   1165e:	4698      	mov	r8, r3
   11660:	e714      	b.n	1148c <__aeabi_dsub+0xbc>
   11662:	2501      	movs	r5, #1
   11664:	4643      	mov	r3, r8
   11666:	2400      	movs	r4, #0
   11668:	401d      	ands	r5, r3
   1166a:	2700      	movs	r7, #0
   1166c:	e755      	b.n	1151a <__aeabi_dsub+0x14a>
   1166e:	4c2a      	ldr	r4, [pc, #168]	; (11718 <__aeabi_dsub+0x348>)
   11670:	1af6      	subs	r6, r6, r3
   11672:	402c      	ands	r4, r5
   11674:	e732      	b.n	114dc <__aeabi_dsub+0x10c>
   11676:	003d      	movs	r5, r7
   11678:	3828      	subs	r0, #40	; 0x28
   1167a:	4085      	lsls	r5, r0
   1167c:	2700      	movs	r7, #0
   1167e:	e717      	b.n	114b0 <__aeabi_dsub+0xe0>
   11680:	0038      	movs	r0, r7
   11682:	f7fe fc99 	bl	ffb8 <__clzsi2>
   11686:	3020      	adds	r0, #32
   11688:	e706      	b.n	11498 <__aeabi_dsub+0xc8>
   1168a:	430a      	orrs	r2, r1
   1168c:	0017      	movs	r7, r2
   1168e:	2100      	movs	r1, #0
   11690:	1e7a      	subs	r2, r7, #1
   11692:	4197      	sbcs	r7, r2
   11694:	e6ee      	b.n	11474 <__aeabi_dsub+0xa4>
   11696:	2b00      	cmp	r3, #0
   11698:	d000      	beq.n	1169c <__aeabi_dsub+0x2cc>
   1169a:	e0e5      	b.n	11868 <__aeabi_dsub+0x498>
   1169c:	1c73      	adds	r3, r6, #1
   1169e:	469c      	mov	ip, r3
   116a0:	055b      	lsls	r3, r3, #21
   116a2:	0d5b      	lsrs	r3, r3, #21
   116a4:	2b01      	cmp	r3, #1
   116a6:	dc00      	bgt.n	116aa <__aeabi_dsub+0x2da>
   116a8:	e09f      	b.n	117ea <__aeabi_dsub+0x41a>
   116aa:	4b1a      	ldr	r3, [pc, #104]	; (11714 <__aeabi_dsub+0x344>)
   116ac:	459c      	cmp	ip, r3
   116ae:	d100      	bne.n	116b2 <__aeabi_dsub+0x2e2>
   116b0:	e0c5      	b.n	1183e <__aeabi_dsub+0x46e>
   116b2:	4452      	add	r2, sl
   116b4:	4552      	cmp	r2, sl
   116b6:	4180      	sbcs	r0, r0
   116b8:	1864      	adds	r4, r4, r1
   116ba:	4240      	negs	r0, r0
   116bc:	1824      	adds	r4, r4, r0
   116be:	07e7      	lsls	r7, r4, #31
   116c0:	0852      	lsrs	r2, r2, #1
   116c2:	4317      	orrs	r7, r2
   116c4:	0864      	lsrs	r4, r4, #1
   116c6:	4666      	mov	r6, ip
   116c8:	e708      	b.n	114dc <__aeabi_dsub+0x10c>
   116ca:	4812      	ldr	r0, [pc, #72]	; (11714 <__aeabi_dsub+0x344>)
   116cc:	4285      	cmp	r5, r0
   116ce:	d100      	bne.n	116d2 <__aeabi_dsub+0x302>
   116d0:	e085      	b.n	117de <__aeabi_dsub+0x40e>
   116d2:	001d      	movs	r5, r3
   116d4:	e6bc      	b.n	11450 <__aeabi_dsub+0x80>
   116d6:	0029      	movs	r1, r5
   116d8:	3e1f      	subs	r6, #31
   116da:	40f1      	lsrs	r1, r6
   116dc:	2b20      	cmp	r3, #32
   116de:	d100      	bne.n	116e2 <__aeabi_dsub+0x312>
   116e0:	e07f      	b.n	117e2 <__aeabi_dsub+0x412>
   116e2:	2240      	movs	r2, #64	; 0x40
   116e4:	1ad3      	subs	r3, r2, r3
   116e6:	409d      	lsls	r5, r3
   116e8:	432f      	orrs	r7, r5
   116ea:	1e7d      	subs	r5, r7, #1
   116ec:	41af      	sbcs	r7, r5
   116ee:	2400      	movs	r4, #0
   116f0:	430f      	orrs	r7, r1
   116f2:	2600      	movs	r6, #0
   116f4:	e78e      	b.n	11614 <__aeabi_dsub+0x244>
   116f6:	002b      	movs	r3, r5
   116f8:	000f      	movs	r7, r1
   116fa:	3b20      	subs	r3, #32
   116fc:	40df      	lsrs	r7, r3
   116fe:	2d20      	cmp	r5, #32
   11700:	d071      	beq.n	117e6 <__aeabi_dsub+0x416>
   11702:	2340      	movs	r3, #64	; 0x40
   11704:	1b5d      	subs	r5, r3, r5
   11706:	40a9      	lsls	r1, r5
   11708:	430a      	orrs	r2, r1
   1170a:	1e51      	subs	r1, r2, #1
   1170c:	418a      	sbcs	r2, r1
   1170e:	2100      	movs	r1, #0
   11710:	4317      	orrs	r7, r2
   11712:	e6af      	b.n	11474 <__aeabi_dsub+0xa4>
   11714:	000007ff 	.word	0x000007ff
   11718:	ff7fffff 	.word	0xff7fffff
   1171c:	800fffff 	.word	0x800fffff
   11720:	2e00      	cmp	r6, #0
   11722:	d03e      	beq.n	117a2 <__aeabi_dsub+0x3d2>
   11724:	4eb3      	ldr	r6, [pc, #716]	; (119f4 <__aeabi_dsub+0x624>)
   11726:	45b4      	cmp	ip, r6
   11728:	d045      	beq.n	117b6 <__aeabi_dsub+0x3e6>
   1172a:	2680      	movs	r6, #128	; 0x80
   1172c:	0436      	lsls	r6, r6, #16
   1172e:	426d      	negs	r5, r5
   11730:	4334      	orrs	r4, r6
   11732:	2d38      	cmp	r5, #56	; 0x38
   11734:	dd00      	ble.n	11738 <__aeabi_dsub+0x368>
   11736:	e0a8      	b.n	1188a <__aeabi_dsub+0x4ba>
   11738:	2d1f      	cmp	r5, #31
   1173a:	dd00      	ble.n	1173e <__aeabi_dsub+0x36e>
   1173c:	e11f      	b.n	1197e <__aeabi_dsub+0x5ae>
   1173e:	2620      	movs	r6, #32
   11740:	0027      	movs	r7, r4
   11742:	4650      	mov	r0, sl
   11744:	1b76      	subs	r6, r6, r5
   11746:	40b7      	lsls	r7, r6
   11748:	40e8      	lsrs	r0, r5
   1174a:	4307      	orrs	r7, r0
   1174c:	4650      	mov	r0, sl
   1174e:	40b0      	lsls	r0, r6
   11750:	1e46      	subs	r6, r0, #1
   11752:	41b0      	sbcs	r0, r6
   11754:	40ec      	lsrs	r4, r5
   11756:	4338      	orrs	r0, r7
   11758:	1a17      	subs	r7, r2, r0
   1175a:	42ba      	cmp	r2, r7
   1175c:	4192      	sbcs	r2, r2
   1175e:	1b0c      	subs	r4, r1, r4
   11760:	4252      	negs	r2, r2
   11762:	1aa4      	subs	r4, r4, r2
   11764:	4666      	mov	r6, ip
   11766:	4698      	mov	r8, r3
   11768:	e68b      	b.n	11482 <__aeabi_dsub+0xb2>
   1176a:	4664      	mov	r4, ip
   1176c:	4667      	mov	r7, ip
   1176e:	432c      	orrs	r4, r5
   11770:	d000      	beq.n	11774 <__aeabi_dsub+0x3a4>
   11772:	e68b      	b.n	1148c <__aeabi_dsub+0xbc>
   11774:	2500      	movs	r5, #0
   11776:	2600      	movs	r6, #0
   11778:	2700      	movs	r7, #0
   1177a:	e6ea      	b.n	11552 <__aeabi_dsub+0x182>
   1177c:	001e      	movs	r6, r3
   1177e:	e6ad      	b.n	114dc <__aeabi_dsub+0x10c>
   11780:	2b1f      	cmp	r3, #31
   11782:	dc60      	bgt.n	11846 <__aeabi_dsub+0x476>
   11784:	2720      	movs	r7, #32
   11786:	1af8      	subs	r0, r7, r3
   11788:	000f      	movs	r7, r1
   1178a:	4684      	mov	ip, r0
   1178c:	4087      	lsls	r7, r0
   1178e:	0010      	movs	r0, r2
   11790:	40d8      	lsrs	r0, r3
   11792:	4307      	orrs	r7, r0
   11794:	4660      	mov	r0, ip
   11796:	4082      	lsls	r2, r0
   11798:	1e50      	subs	r0, r2, #1
   1179a:	4182      	sbcs	r2, r0
   1179c:	40d9      	lsrs	r1, r3
   1179e:	4317      	orrs	r7, r2
   117a0:	e6f5      	b.n	1158e <__aeabi_dsub+0x1be>
   117a2:	0026      	movs	r6, r4
   117a4:	4650      	mov	r0, sl
   117a6:	4306      	orrs	r6, r0
   117a8:	d005      	beq.n	117b6 <__aeabi_dsub+0x3e6>
   117aa:	43ed      	mvns	r5, r5
   117ac:	2d00      	cmp	r5, #0
   117ae:	d0d3      	beq.n	11758 <__aeabi_dsub+0x388>
   117b0:	4e90      	ldr	r6, [pc, #576]	; (119f4 <__aeabi_dsub+0x624>)
   117b2:	45b4      	cmp	ip, r6
   117b4:	d1bd      	bne.n	11732 <__aeabi_dsub+0x362>
   117b6:	000c      	movs	r4, r1
   117b8:	0017      	movs	r7, r2
   117ba:	4666      	mov	r6, ip
   117bc:	4698      	mov	r8, r3
   117be:	e68d      	b.n	114dc <__aeabi_dsub+0x10c>
   117c0:	488c      	ldr	r0, [pc, #560]	; (119f4 <__aeabi_dsub+0x624>)
   117c2:	4283      	cmp	r3, r0
   117c4:	d00b      	beq.n	117de <__aeabi_dsub+0x40e>
   117c6:	4663      	mov	r3, ip
   117c8:	e6d9      	b.n	1157e <__aeabi_dsub+0x1ae>
   117ca:	2d00      	cmp	r5, #0
   117cc:	d000      	beq.n	117d0 <__aeabi_dsub+0x400>
   117ce:	e096      	b.n	118fe <__aeabi_dsub+0x52e>
   117d0:	0008      	movs	r0, r1
   117d2:	4310      	orrs	r0, r2
   117d4:	d100      	bne.n	117d8 <__aeabi_dsub+0x408>
   117d6:	e0e2      	b.n	1199e <__aeabi_dsub+0x5ce>
   117d8:	000c      	movs	r4, r1
   117da:	0017      	movs	r7, r2
   117dc:	4698      	mov	r8, r3
   117de:	4e85      	ldr	r6, [pc, #532]	; (119f4 <__aeabi_dsub+0x624>)
   117e0:	e67c      	b.n	114dc <__aeabi_dsub+0x10c>
   117e2:	2500      	movs	r5, #0
   117e4:	e780      	b.n	116e8 <__aeabi_dsub+0x318>
   117e6:	2100      	movs	r1, #0
   117e8:	e78e      	b.n	11708 <__aeabi_dsub+0x338>
   117ea:	0023      	movs	r3, r4
   117ec:	4650      	mov	r0, sl
   117ee:	4303      	orrs	r3, r0
   117f0:	2e00      	cmp	r6, #0
   117f2:	d000      	beq.n	117f6 <__aeabi_dsub+0x426>
   117f4:	e0a8      	b.n	11948 <__aeabi_dsub+0x578>
   117f6:	2b00      	cmp	r3, #0
   117f8:	d100      	bne.n	117fc <__aeabi_dsub+0x42c>
   117fa:	e0de      	b.n	119ba <__aeabi_dsub+0x5ea>
   117fc:	000b      	movs	r3, r1
   117fe:	4313      	orrs	r3, r2
   11800:	d100      	bne.n	11804 <__aeabi_dsub+0x434>
   11802:	e66b      	b.n	114dc <__aeabi_dsub+0x10c>
   11804:	4452      	add	r2, sl
   11806:	4552      	cmp	r2, sl
   11808:	4180      	sbcs	r0, r0
   1180a:	1864      	adds	r4, r4, r1
   1180c:	4240      	negs	r0, r0
   1180e:	1824      	adds	r4, r4, r0
   11810:	0017      	movs	r7, r2
   11812:	0223      	lsls	r3, r4, #8
   11814:	d400      	bmi.n	11818 <__aeabi_dsub+0x448>
   11816:	e6fd      	b.n	11614 <__aeabi_dsub+0x244>
   11818:	4b77      	ldr	r3, [pc, #476]	; (119f8 <__aeabi_dsub+0x628>)
   1181a:	4666      	mov	r6, ip
   1181c:	401c      	ands	r4, r3
   1181e:	e65d      	b.n	114dc <__aeabi_dsub+0x10c>
   11820:	0025      	movs	r5, r4
   11822:	4650      	mov	r0, sl
   11824:	4305      	orrs	r5, r0
   11826:	2e00      	cmp	r6, #0
   11828:	d1cf      	bne.n	117ca <__aeabi_dsub+0x3fa>
   1182a:	2d00      	cmp	r5, #0
   1182c:	d14f      	bne.n	118ce <__aeabi_dsub+0x4fe>
   1182e:	000c      	movs	r4, r1
   11830:	4314      	orrs	r4, r2
   11832:	d100      	bne.n	11836 <__aeabi_dsub+0x466>
   11834:	e0a0      	b.n	11978 <__aeabi_dsub+0x5a8>
   11836:	000c      	movs	r4, r1
   11838:	0017      	movs	r7, r2
   1183a:	4698      	mov	r8, r3
   1183c:	e64e      	b.n	114dc <__aeabi_dsub+0x10c>
   1183e:	4666      	mov	r6, ip
   11840:	2400      	movs	r4, #0
   11842:	2700      	movs	r7, #0
   11844:	e685      	b.n	11552 <__aeabi_dsub+0x182>
   11846:	001f      	movs	r7, r3
   11848:	0008      	movs	r0, r1
   1184a:	3f20      	subs	r7, #32
   1184c:	40f8      	lsrs	r0, r7
   1184e:	0007      	movs	r7, r0
   11850:	2b20      	cmp	r3, #32
   11852:	d100      	bne.n	11856 <__aeabi_dsub+0x486>
   11854:	e08e      	b.n	11974 <__aeabi_dsub+0x5a4>
   11856:	2040      	movs	r0, #64	; 0x40
   11858:	1ac3      	subs	r3, r0, r3
   1185a:	4099      	lsls	r1, r3
   1185c:	430a      	orrs	r2, r1
   1185e:	1e51      	subs	r1, r2, #1
   11860:	418a      	sbcs	r2, r1
   11862:	2100      	movs	r1, #0
   11864:	4317      	orrs	r7, r2
   11866:	e692      	b.n	1158e <__aeabi_dsub+0x1be>
   11868:	2e00      	cmp	r6, #0
   1186a:	d114      	bne.n	11896 <__aeabi_dsub+0x4c6>
   1186c:	0026      	movs	r6, r4
   1186e:	4650      	mov	r0, sl
   11870:	4306      	orrs	r6, r0
   11872:	d062      	beq.n	1193a <__aeabi_dsub+0x56a>
   11874:	43db      	mvns	r3, r3
   11876:	2b00      	cmp	r3, #0
   11878:	d15c      	bne.n	11934 <__aeabi_dsub+0x564>
   1187a:	1887      	adds	r7, r0, r2
   1187c:	4297      	cmp	r7, r2
   1187e:	4192      	sbcs	r2, r2
   11880:	1864      	adds	r4, r4, r1
   11882:	4252      	negs	r2, r2
   11884:	18a4      	adds	r4, r4, r2
   11886:	4666      	mov	r6, ip
   11888:	e687      	b.n	1159a <__aeabi_dsub+0x1ca>
   1188a:	4650      	mov	r0, sl
   1188c:	4320      	orrs	r0, r4
   1188e:	1e44      	subs	r4, r0, #1
   11890:	41a0      	sbcs	r0, r4
   11892:	2400      	movs	r4, #0
   11894:	e760      	b.n	11758 <__aeabi_dsub+0x388>
   11896:	4e57      	ldr	r6, [pc, #348]	; (119f4 <__aeabi_dsub+0x624>)
   11898:	45b4      	cmp	ip, r6
   1189a:	d04e      	beq.n	1193a <__aeabi_dsub+0x56a>
   1189c:	2680      	movs	r6, #128	; 0x80
   1189e:	0436      	lsls	r6, r6, #16
   118a0:	425b      	negs	r3, r3
   118a2:	4334      	orrs	r4, r6
   118a4:	2b38      	cmp	r3, #56	; 0x38
   118a6:	dd00      	ble.n	118aa <__aeabi_dsub+0x4da>
   118a8:	e07f      	b.n	119aa <__aeabi_dsub+0x5da>
   118aa:	2b1f      	cmp	r3, #31
   118ac:	dd00      	ble.n	118b0 <__aeabi_dsub+0x4e0>
   118ae:	e08b      	b.n	119c8 <__aeabi_dsub+0x5f8>
   118b0:	2620      	movs	r6, #32
   118b2:	0027      	movs	r7, r4
   118b4:	4650      	mov	r0, sl
   118b6:	1af6      	subs	r6, r6, r3
   118b8:	40b7      	lsls	r7, r6
   118ba:	40d8      	lsrs	r0, r3
   118bc:	4307      	orrs	r7, r0
   118be:	4650      	mov	r0, sl
   118c0:	40b0      	lsls	r0, r6
   118c2:	1e46      	subs	r6, r0, #1
   118c4:	41b0      	sbcs	r0, r6
   118c6:	4307      	orrs	r7, r0
   118c8:	40dc      	lsrs	r4, r3
   118ca:	18bf      	adds	r7, r7, r2
   118cc:	e7d6      	b.n	1187c <__aeabi_dsub+0x4ac>
   118ce:	000d      	movs	r5, r1
   118d0:	4315      	orrs	r5, r2
   118d2:	d100      	bne.n	118d6 <__aeabi_dsub+0x506>
   118d4:	e602      	b.n	114dc <__aeabi_dsub+0x10c>
   118d6:	4650      	mov	r0, sl
   118d8:	1a80      	subs	r0, r0, r2
   118da:	4582      	cmp	sl, r0
   118dc:	41bf      	sbcs	r7, r7
   118de:	1a65      	subs	r5, r4, r1
   118e0:	427f      	negs	r7, r7
   118e2:	1bed      	subs	r5, r5, r7
   118e4:	4684      	mov	ip, r0
   118e6:	0228      	lsls	r0, r5, #8
   118e8:	d400      	bmi.n	118ec <__aeabi_dsub+0x51c>
   118ea:	e68d      	b.n	11608 <__aeabi_dsub+0x238>
   118ec:	4650      	mov	r0, sl
   118ee:	1a17      	subs	r7, r2, r0
   118f0:	42ba      	cmp	r2, r7
   118f2:	4192      	sbcs	r2, r2
   118f4:	1b0c      	subs	r4, r1, r4
   118f6:	4252      	negs	r2, r2
   118f8:	1aa4      	subs	r4, r4, r2
   118fa:	4698      	mov	r8, r3
   118fc:	e5ee      	b.n	114dc <__aeabi_dsub+0x10c>
   118fe:	000d      	movs	r5, r1
   11900:	4315      	orrs	r5, r2
   11902:	d100      	bne.n	11906 <__aeabi_dsub+0x536>
   11904:	e76b      	b.n	117de <__aeabi_dsub+0x40e>
   11906:	4650      	mov	r0, sl
   11908:	0767      	lsls	r7, r4, #29
   1190a:	08c0      	lsrs	r0, r0, #3
   1190c:	4307      	orrs	r7, r0
   1190e:	2080      	movs	r0, #128	; 0x80
   11910:	08e4      	lsrs	r4, r4, #3
   11912:	0300      	lsls	r0, r0, #12
   11914:	4204      	tst	r4, r0
   11916:	d007      	beq.n	11928 <__aeabi_dsub+0x558>
   11918:	08cd      	lsrs	r5, r1, #3
   1191a:	4205      	tst	r5, r0
   1191c:	d104      	bne.n	11928 <__aeabi_dsub+0x558>
   1191e:	002c      	movs	r4, r5
   11920:	4698      	mov	r8, r3
   11922:	08d7      	lsrs	r7, r2, #3
   11924:	0749      	lsls	r1, r1, #29
   11926:	430f      	orrs	r7, r1
   11928:	0f7b      	lsrs	r3, r7, #29
   1192a:	00e4      	lsls	r4, r4, #3
   1192c:	431c      	orrs	r4, r3
   1192e:	00ff      	lsls	r7, r7, #3
   11930:	4e30      	ldr	r6, [pc, #192]	; (119f4 <__aeabi_dsub+0x624>)
   11932:	e5d3      	b.n	114dc <__aeabi_dsub+0x10c>
   11934:	4e2f      	ldr	r6, [pc, #188]	; (119f4 <__aeabi_dsub+0x624>)
   11936:	45b4      	cmp	ip, r6
   11938:	d1b4      	bne.n	118a4 <__aeabi_dsub+0x4d4>
   1193a:	000c      	movs	r4, r1
   1193c:	0017      	movs	r7, r2
   1193e:	4666      	mov	r6, ip
   11940:	e5cc      	b.n	114dc <__aeabi_dsub+0x10c>
   11942:	2700      	movs	r7, #0
   11944:	2400      	movs	r4, #0
   11946:	e5e8      	b.n	1151a <__aeabi_dsub+0x14a>
   11948:	2b00      	cmp	r3, #0
   1194a:	d039      	beq.n	119c0 <__aeabi_dsub+0x5f0>
   1194c:	000b      	movs	r3, r1
   1194e:	4313      	orrs	r3, r2
   11950:	d100      	bne.n	11954 <__aeabi_dsub+0x584>
   11952:	e744      	b.n	117de <__aeabi_dsub+0x40e>
   11954:	08c0      	lsrs	r0, r0, #3
   11956:	0767      	lsls	r7, r4, #29
   11958:	4307      	orrs	r7, r0
   1195a:	2080      	movs	r0, #128	; 0x80
   1195c:	08e4      	lsrs	r4, r4, #3
   1195e:	0300      	lsls	r0, r0, #12
   11960:	4204      	tst	r4, r0
   11962:	d0e1      	beq.n	11928 <__aeabi_dsub+0x558>
   11964:	08cb      	lsrs	r3, r1, #3
   11966:	4203      	tst	r3, r0
   11968:	d1de      	bne.n	11928 <__aeabi_dsub+0x558>
   1196a:	08d7      	lsrs	r7, r2, #3
   1196c:	0749      	lsls	r1, r1, #29
   1196e:	430f      	orrs	r7, r1
   11970:	001c      	movs	r4, r3
   11972:	e7d9      	b.n	11928 <__aeabi_dsub+0x558>
   11974:	2100      	movs	r1, #0
   11976:	e771      	b.n	1185c <__aeabi_dsub+0x48c>
   11978:	2500      	movs	r5, #0
   1197a:	2700      	movs	r7, #0
   1197c:	e5e9      	b.n	11552 <__aeabi_dsub+0x182>
   1197e:	002e      	movs	r6, r5
   11980:	0027      	movs	r7, r4
   11982:	3e20      	subs	r6, #32
   11984:	40f7      	lsrs	r7, r6
   11986:	2d20      	cmp	r5, #32
   11988:	d02f      	beq.n	119ea <__aeabi_dsub+0x61a>
   1198a:	2640      	movs	r6, #64	; 0x40
   1198c:	1b75      	subs	r5, r6, r5
   1198e:	40ac      	lsls	r4, r5
   11990:	4650      	mov	r0, sl
   11992:	4320      	orrs	r0, r4
   11994:	1e44      	subs	r4, r0, #1
   11996:	41a0      	sbcs	r0, r4
   11998:	2400      	movs	r4, #0
   1199a:	4338      	orrs	r0, r7
   1199c:	e6dc      	b.n	11758 <__aeabi_dsub+0x388>
   1199e:	2480      	movs	r4, #128	; 0x80
   119a0:	2500      	movs	r5, #0
   119a2:	0324      	lsls	r4, r4, #12
   119a4:	4e13      	ldr	r6, [pc, #76]	; (119f4 <__aeabi_dsub+0x624>)
   119a6:	2700      	movs	r7, #0
   119a8:	e5d3      	b.n	11552 <__aeabi_dsub+0x182>
   119aa:	4650      	mov	r0, sl
   119ac:	4320      	orrs	r0, r4
   119ae:	0007      	movs	r7, r0
   119b0:	1e78      	subs	r0, r7, #1
   119b2:	4187      	sbcs	r7, r0
   119b4:	2400      	movs	r4, #0
   119b6:	18bf      	adds	r7, r7, r2
   119b8:	e760      	b.n	1187c <__aeabi_dsub+0x4ac>
   119ba:	000c      	movs	r4, r1
   119bc:	0017      	movs	r7, r2
   119be:	e58d      	b.n	114dc <__aeabi_dsub+0x10c>
   119c0:	000c      	movs	r4, r1
   119c2:	0017      	movs	r7, r2
   119c4:	4e0b      	ldr	r6, [pc, #44]	; (119f4 <__aeabi_dsub+0x624>)
   119c6:	e589      	b.n	114dc <__aeabi_dsub+0x10c>
   119c8:	001e      	movs	r6, r3
   119ca:	0027      	movs	r7, r4
   119cc:	3e20      	subs	r6, #32
   119ce:	40f7      	lsrs	r7, r6
   119d0:	2b20      	cmp	r3, #32
   119d2:	d00c      	beq.n	119ee <__aeabi_dsub+0x61e>
   119d4:	2640      	movs	r6, #64	; 0x40
   119d6:	1af3      	subs	r3, r6, r3
   119d8:	409c      	lsls	r4, r3
   119da:	4650      	mov	r0, sl
   119dc:	4320      	orrs	r0, r4
   119de:	1e44      	subs	r4, r0, #1
   119e0:	41a0      	sbcs	r0, r4
   119e2:	4307      	orrs	r7, r0
   119e4:	2400      	movs	r4, #0
   119e6:	18bf      	adds	r7, r7, r2
   119e8:	e748      	b.n	1187c <__aeabi_dsub+0x4ac>
   119ea:	2400      	movs	r4, #0
   119ec:	e7d0      	b.n	11990 <__aeabi_dsub+0x5c0>
   119ee:	2400      	movs	r4, #0
   119f0:	e7f3      	b.n	119da <__aeabi_dsub+0x60a>
   119f2:	46c0      	nop			; (mov r8, r8)
   119f4:	000007ff 	.word	0x000007ff
   119f8:	ff7fffff 	.word	0xff7fffff

000119fc <__aeabi_d2iz>:
   119fc:	b530      	push	{r4, r5, lr}
   119fe:	4d13      	ldr	r5, [pc, #76]	; (11a4c <__aeabi_d2iz+0x50>)
   11a00:	030a      	lsls	r2, r1, #12
   11a02:	004b      	lsls	r3, r1, #1
   11a04:	0b12      	lsrs	r2, r2, #12
   11a06:	0d5b      	lsrs	r3, r3, #21
   11a08:	0fc9      	lsrs	r1, r1, #31
   11a0a:	2400      	movs	r4, #0
   11a0c:	42ab      	cmp	r3, r5
   11a0e:	dd10      	ble.n	11a32 <__aeabi_d2iz+0x36>
   11a10:	4c0f      	ldr	r4, [pc, #60]	; (11a50 <__aeabi_d2iz+0x54>)
   11a12:	42a3      	cmp	r3, r4
   11a14:	dc0f      	bgt.n	11a36 <__aeabi_d2iz+0x3a>
   11a16:	2480      	movs	r4, #128	; 0x80
   11a18:	4d0e      	ldr	r5, [pc, #56]	; (11a54 <__aeabi_d2iz+0x58>)
   11a1a:	0364      	lsls	r4, r4, #13
   11a1c:	4322      	orrs	r2, r4
   11a1e:	1aed      	subs	r5, r5, r3
   11a20:	2d1f      	cmp	r5, #31
   11a22:	dd0b      	ble.n	11a3c <__aeabi_d2iz+0x40>
   11a24:	480c      	ldr	r0, [pc, #48]	; (11a58 <__aeabi_d2iz+0x5c>)
   11a26:	1ac3      	subs	r3, r0, r3
   11a28:	40da      	lsrs	r2, r3
   11a2a:	4254      	negs	r4, r2
   11a2c:	2900      	cmp	r1, #0
   11a2e:	d100      	bne.n	11a32 <__aeabi_d2iz+0x36>
   11a30:	0014      	movs	r4, r2
   11a32:	0020      	movs	r0, r4
   11a34:	bd30      	pop	{r4, r5, pc}
   11a36:	4b09      	ldr	r3, [pc, #36]	; (11a5c <__aeabi_d2iz+0x60>)
   11a38:	18cc      	adds	r4, r1, r3
   11a3a:	e7fa      	b.n	11a32 <__aeabi_d2iz+0x36>
   11a3c:	4c08      	ldr	r4, [pc, #32]	; (11a60 <__aeabi_d2iz+0x64>)
   11a3e:	40e8      	lsrs	r0, r5
   11a40:	46a4      	mov	ip, r4
   11a42:	4463      	add	r3, ip
   11a44:	409a      	lsls	r2, r3
   11a46:	4302      	orrs	r2, r0
   11a48:	e7ef      	b.n	11a2a <__aeabi_d2iz+0x2e>
   11a4a:	46c0      	nop			; (mov r8, r8)
   11a4c:	000003fe 	.word	0x000003fe
   11a50:	0000041d 	.word	0x0000041d
   11a54:	00000433 	.word	0x00000433
   11a58:	00000413 	.word	0x00000413
   11a5c:	7fffffff 	.word	0x7fffffff
   11a60:	fffffbed 	.word	0xfffffbed

00011a64 <__aeabi_ui2d>:
   11a64:	b510      	push	{r4, lr}
   11a66:	1e04      	subs	r4, r0, #0
   11a68:	d028      	beq.n	11abc <__aeabi_ui2d+0x58>
   11a6a:	f7fe faa5 	bl	ffb8 <__clzsi2>
   11a6e:	4b15      	ldr	r3, [pc, #84]	; (11ac4 <__aeabi_ui2d+0x60>)
   11a70:	4a15      	ldr	r2, [pc, #84]	; (11ac8 <__aeabi_ui2d+0x64>)
   11a72:	1a1b      	subs	r3, r3, r0
   11a74:	1ad2      	subs	r2, r2, r3
   11a76:	2a1f      	cmp	r2, #31
   11a78:	dd15      	ble.n	11aa6 <__aeabi_ui2d+0x42>
   11a7a:	4a14      	ldr	r2, [pc, #80]	; (11acc <__aeabi_ui2d+0x68>)
   11a7c:	1ad2      	subs	r2, r2, r3
   11a7e:	4094      	lsls	r4, r2
   11a80:	2200      	movs	r2, #0
   11a82:	0324      	lsls	r4, r4, #12
   11a84:	055b      	lsls	r3, r3, #21
   11a86:	0b24      	lsrs	r4, r4, #12
   11a88:	0d5b      	lsrs	r3, r3, #21
   11a8a:	2100      	movs	r1, #0
   11a8c:	0010      	movs	r0, r2
   11a8e:	0324      	lsls	r4, r4, #12
   11a90:	0d0a      	lsrs	r2, r1, #20
   11a92:	0b24      	lsrs	r4, r4, #12
   11a94:	0512      	lsls	r2, r2, #20
   11a96:	4322      	orrs	r2, r4
   11a98:	4c0d      	ldr	r4, [pc, #52]	; (11ad0 <__aeabi_ui2d+0x6c>)
   11a9a:	051b      	lsls	r3, r3, #20
   11a9c:	4022      	ands	r2, r4
   11a9e:	4313      	orrs	r3, r2
   11aa0:	005b      	lsls	r3, r3, #1
   11aa2:	0859      	lsrs	r1, r3, #1
   11aa4:	bd10      	pop	{r4, pc}
   11aa6:	0021      	movs	r1, r4
   11aa8:	4091      	lsls	r1, r2
   11aaa:	000a      	movs	r2, r1
   11aac:	210b      	movs	r1, #11
   11aae:	1a08      	subs	r0, r1, r0
   11ab0:	40c4      	lsrs	r4, r0
   11ab2:	055b      	lsls	r3, r3, #21
   11ab4:	0324      	lsls	r4, r4, #12
   11ab6:	0b24      	lsrs	r4, r4, #12
   11ab8:	0d5b      	lsrs	r3, r3, #21
   11aba:	e7e6      	b.n	11a8a <__aeabi_ui2d+0x26>
   11abc:	2300      	movs	r3, #0
   11abe:	2400      	movs	r4, #0
   11ac0:	2200      	movs	r2, #0
   11ac2:	e7e2      	b.n	11a8a <__aeabi_ui2d+0x26>
   11ac4:	0000041e 	.word	0x0000041e
   11ac8:	00000433 	.word	0x00000433
   11acc:	00000413 	.word	0x00000413
   11ad0:	800fffff 	.word	0x800fffff

00011ad4 <__clzdi2>:
   11ad4:	b510      	push	{r4, lr}
   11ad6:	2900      	cmp	r1, #0
   11ad8:	d103      	bne.n	11ae2 <__clzdi2+0xe>
   11ada:	f7fe fa6d 	bl	ffb8 <__clzsi2>
   11ade:	3020      	adds	r0, #32
   11ae0:	e002      	b.n	11ae8 <__clzdi2+0x14>
   11ae2:	1c08      	adds	r0, r1, #0
   11ae4:	f7fe fa68 	bl	ffb8 <__clzsi2>
   11ae8:	bd10      	pop	{r4, pc}
   11aea:	46c0      	nop			; (mov r8, r8)

00011aec <__libc_init_array>:
   11aec:	b570      	push	{r4, r5, r6, lr}
   11aee:	4e0d      	ldr	r6, [pc, #52]	; (11b24 <__libc_init_array+0x38>)
   11af0:	4d0d      	ldr	r5, [pc, #52]	; (11b28 <__libc_init_array+0x3c>)
   11af2:	2400      	movs	r4, #0
   11af4:	1bad      	subs	r5, r5, r6
   11af6:	10ad      	asrs	r5, r5, #2
   11af8:	d005      	beq.n	11b06 <__libc_init_array+0x1a>
   11afa:	00a3      	lsls	r3, r4, #2
   11afc:	58f3      	ldr	r3, [r6, r3]
   11afe:	3401      	adds	r4, #1
   11b00:	4798      	blx	r3
   11b02:	42a5      	cmp	r5, r4
   11b04:	d1f9      	bne.n	11afa <__libc_init_array+0xe>
   11b06:	f000 fd43 	bl	12590 <_init>
   11b0a:	4e08      	ldr	r6, [pc, #32]	; (11b2c <__libc_init_array+0x40>)
   11b0c:	4d08      	ldr	r5, [pc, #32]	; (11b30 <__libc_init_array+0x44>)
   11b0e:	2400      	movs	r4, #0
   11b10:	1bad      	subs	r5, r5, r6
   11b12:	10ad      	asrs	r5, r5, #2
   11b14:	d005      	beq.n	11b22 <__libc_init_array+0x36>
   11b16:	00a3      	lsls	r3, r4, #2
   11b18:	58f3      	ldr	r3, [r6, r3]
   11b1a:	3401      	adds	r4, #1
   11b1c:	4798      	blx	r3
   11b1e:	42a5      	cmp	r5, r4
   11b20:	d1f9      	bne.n	11b16 <__libc_init_array+0x2a>
   11b22:	bd70      	pop	{r4, r5, r6, pc}
   11b24:	0001259c 	.word	0x0001259c
   11b28:	0001259c 	.word	0x0001259c
   11b2c:	0001259c 	.word	0x0001259c
   11b30:	000125a4 	.word	0x000125a4

00011b34 <__itoa>:
   11b34:	1e93      	subs	r3, r2, #2
   11b36:	b510      	push	{r4, lr}
   11b38:	000c      	movs	r4, r1
   11b3a:	2b22      	cmp	r3, #34	; 0x22
   11b3c:	d80e      	bhi.n	11b5c <__itoa+0x28>
   11b3e:	2a0a      	cmp	r2, #10
   11b40:	d005      	beq.n	11b4e <__itoa+0x1a>
   11b42:	2100      	movs	r1, #0
   11b44:	1861      	adds	r1, r4, r1
   11b46:	f000 f923 	bl	11d90 <__utoa>
   11b4a:	0020      	movs	r0, r4
   11b4c:	bd10      	pop	{r4, pc}
   11b4e:	2800      	cmp	r0, #0
   11b50:	daf7      	bge.n	11b42 <__itoa+0xe>
   11b52:	232d      	movs	r3, #45	; 0x2d
   11b54:	4240      	negs	r0, r0
   11b56:	700b      	strb	r3, [r1, #0]
   11b58:	2101      	movs	r1, #1
   11b5a:	e7f3      	b.n	11b44 <__itoa+0x10>
   11b5c:	2300      	movs	r3, #0
   11b5e:	2000      	movs	r0, #0
   11b60:	700b      	strb	r3, [r1, #0]
   11b62:	e7f3      	b.n	11b4c <__itoa+0x18>

00011b64 <itoa>:
   11b64:	b510      	push	{r4, lr}
   11b66:	f7ff ffe5 	bl	11b34 <__itoa>
   11b6a:	bd10      	pop	{r4, pc}

00011b6c <memcmp>:
   11b6c:	b510      	push	{r4, lr}
   11b6e:	2a03      	cmp	r2, #3
   11b70:	d91c      	bls.n	11bac <memcmp+0x40>
   11b72:	0003      	movs	r3, r0
   11b74:	430b      	orrs	r3, r1
   11b76:	079b      	lsls	r3, r3, #30
   11b78:	d00f      	beq.n	11b9a <memcmp+0x2e>
   11b7a:	7803      	ldrb	r3, [r0, #0]
   11b7c:	780c      	ldrb	r4, [r1, #0]
   11b7e:	1882      	adds	r2, r0, r2
   11b80:	42a3      	cmp	r3, r4
   11b82:	d004      	beq.n	11b8e <memcmp+0x22>
   11b84:	e015      	b.n	11bb2 <memcmp+0x46>
   11b86:	7803      	ldrb	r3, [r0, #0]
   11b88:	780c      	ldrb	r4, [r1, #0]
   11b8a:	42a3      	cmp	r3, r4
   11b8c:	d111      	bne.n	11bb2 <memcmp+0x46>
   11b8e:	3001      	adds	r0, #1
   11b90:	3101      	adds	r1, #1
   11b92:	4282      	cmp	r2, r0
   11b94:	d1f7      	bne.n	11b86 <memcmp+0x1a>
   11b96:	2000      	movs	r0, #0
   11b98:	bd10      	pop	{r4, pc}
   11b9a:	6803      	ldr	r3, [r0, #0]
   11b9c:	680c      	ldr	r4, [r1, #0]
   11b9e:	42a3      	cmp	r3, r4
   11ba0:	d1eb      	bne.n	11b7a <memcmp+0xe>
   11ba2:	3a04      	subs	r2, #4
   11ba4:	3004      	adds	r0, #4
   11ba6:	3104      	adds	r1, #4
   11ba8:	2a03      	cmp	r2, #3
   11baa:	d8f6      	bhi.n	11b9a <memcmp+0x2e>
   11bac:	2a00      	cmp	r2, #0
   11bae:	d1e4      	bne.n	11b7a <memcmp+0xe>
   11bb0:	e7f1      	b.n	11b96 <memcmp+0x2a>
   11bb2:	1b18      	subs	r0, r3, r4
   11bb4:	e7f0      	b.n	11b98 <memcmp+0x2c>
   11bb6:	46c0      	nop			; (mov r8, r8)

00011bb8 <memcpy>:
   11bb8:	b5f0      	push	{r4, r5, r6, r7, lr}
   11bba:	0005      	movs	r5, r0
   11bbc:	2a0f      	cmp	r2, #15
   11bbe:	d92f      	bls.n	11c20 <memcpy+0x68>
   11bc0:	000b      	movs	r3, r1
   11bc2:	4303      	orrs	r3, r0
   11bc4:	079b      	lsls	r3, r3, #30
   11bc6:	d134      	bne.n	11c32 <memcpy+0x7a>
   11bc8:	0016      	movs	r6, r2
   11bca:	000c      	movs	r4, r1
   11bcc:	0003      	movs	r3, r0
   11bce:	3e10      	subs	r6, #16
   11bd0:	0935      	lsrs	r5, r6, #4
   11bd2:	3501      	adds	r5, #1
   11bd4:	012d      	lsls	r5, r5, #4
   11bd6:	1945      	adds	r5, r0, r5
   11bd8:	6827      	ldr	r7, [r4, #0]
   11bda:	601f      	str	r7, [r3, #0]
   11bdc:	6867      	ldr	r7, [r4, #4]
   11bde:	605f      	str	r7, [r3, #4]
   11be0:	68a7      	ldr	r7, [r4, #8]
   11be2:	609f      	str	r7, [r3, #8]
   11be4:	68e7      	ldr	r7, [r4, #12]
   11be6:	3410      	adds	r4, #16
   11be8:	60df      	str	r7, [r3, #12]
   11bea:	3310      	adds	r3, #16
   11bec:	429d      	cmp	r5, r3
   11bee:	d1f3      	bne.n	11bd8 <memcpy+0x20>
   11bf0:	230f      	movs	r3, #15
   11bf2:	439e      	bics	r6, r3
   11bf4:	3610      	adds	r6, #16
   11bf6:	1985      	adds	r5, r0, r6
   11bf8:	1989      	adds	r1, r1, r6
   11bfa:	4013      	ands	r3, r2
   11bfc:	2b03      	cmp	r3, #3
   11bfe:	d91a      	bls.n	11c36 <memcpy+0x7e>
   11c00:	1f1e      	subs	r6, r3, #4
   11c02:	2300      	movs	r3, #0
   11c04:	08b4      	lsrs	r4, r6, #2
   11c06:	3401      	adds	r4, #1
   11c08:	00a4      	lsls	r4, r4, #2
   11c0a:	58cf      	ldr	r7, [r1, r3]
   11c0c:	50ef      	str	r7, [r5, r3]
   11c0e:	3304      	adds	r3, #4
   11c10:	42a3      	cmp	r3, r4
   11c12:	d1fa      	bne.n	11c0a <memcpy+0x52>
   11c14:	2403      	movs	r4, #3
   11c16:	43a6      	bics	r6, r4
   11c18:	1d33      	adds	r3, r6, #4
   11c1a:	4022      	ands	r2, r4
   11c1c:	18c9      	adds	r1, r1, r3
   11c1e:	18ed      	adds	r5, r5, r3
   11c20:	2a00      	cmp	r2, #0
   11c22:	d005      	beq.n	11c30 <memcpy+0x78>
   11c24:	2300      	movs	r3, #0
   11c26:	5ccc      	ldrb	r4, [r1, r3]
   11c28:	54ec      	strb	r4, [r5, r3]
   11c2a:	3301      	adds	r3, #1
   11c2c:	4293      	cmp	r3, r2
   11c2e:	d1fa      	bne.n	11c26 <memcpy+0x6e>
   11c30:	bdf0      	pop	{r4, r5, r6, r7, pc}
   11c32:	0005      	movs	r5, r0
   11c34:	e7f6      	b.n	11c24 <memcpy+0x6c>
   11c36:	001a      	movs	r2, r3
   11c38:	e7f2      	b.n	11c20 <memcpy+0x68>
   11c3a:	46c0      	nop			; (mov r8, r8)

00011c3c <memset>:
   11c3c:	b5f0      	push	{r4, r5, r6, r7, lr}
   11c3e:	0783      	lsls	r3, r0, #30
   11c40:	d043      	beq.n	11cca <memset+0x8e>
   11c42:	1e54      	subs	r4, r2, #1
   11c44:	2a00      	cmp	r2, #0
   11c46:	d03f      	beq.n	11cc8 <memset+0x8c>
   11c48:	b2ce      	uxtb	r6, r1
   11c4a:	0002      	movs	r2, r0
   11c4c:	2503      	movs	r5, #3
   11c4e:	e002      	b.n	11c56 <memset+0x1a>
   11c50:	001a      	movs	r2, r3
   11c52:	3c01      	subs	r4, #1
   11c54:	d338      	bcc.n	11cc8 <memset+0x8c>
   11c56:	1c53      	adds	r3, r2, #1
   11c58:	7016      	strb	r6, [r2, #0]
   11c5a:	422b      	tst	r3, r5
   11c5c:	d1f8      	bne.n	11c50 <memset+0x14>
   11c5e:	2c03      	cmp	r4, #3
   11c60:	d92a      	bls.n	11cb8 <memset+0x7c>
   11c62:	22ff      	movs	r2, #255	; 0xff
   11c64:	400a      	ands	r2, r1
   11c66:	0215      	lsls	r5, r2, #8
   11c68:	4315      	orrs	r5, r2
   11c6a:	042a      	lsls	r2, r5, #16
   11c6c:	4315      	orrs	r5, r2
   11c6e:	2c0f      	cmp	r4, #15
   11c70:	d914      	bls.n	11c9c <memset+0x60>
   11c72:	0027      	movs	r7, r4
   11c74:	001a      	movs	r2, r3
   11c76:	3f10      	subs	r7, #16
   11c78:	093e      	lsrs	r6, r7, #4
   11c7a:	3601      	adds	r6, #1
   11c7c:	0136      	lsls	r6, r6, #4
   11c7e:	199e      	adds	r6, r3, r6
   11c80:	6015      	str	r5, [r2, #0]
   11c82:	6055      	str	r5, [r2, #4]
   11c84:	6095      	str	r5, [r2, #8]
   11c86:	60d5      	str	r5, [r2, #12]
   11c88:	3210      	adds	r2, #16
   11c8a:	4296      	cmp	r6, r2
   11c8c:	d1f8      	bne.n	11c80 <memset+0x44>
   11c8e:	220f      	movs	r2, #15
   11c90:	4397      	bics	r7, r2
   11c92:	3710      	adds	r7, #16
   11c94:	19db      	adds	r3, r3, r7
   11c96:	4014      	ands	r4, r2
   11c98:	2c03      	cmp	r4, #3
   11c9a:	d90d      	bls.n	11cb8 <memset+0x7c>
   11c9c:	001a      	movs	r2, r3
   11c9e:	1f27      	subs	r7, r4, #4
   11ca0:	08be      	lsrs	r6, r7, #2
   11ca2:	3601      	adds	r6, #1
   11ca4:	00b6      	lsls	r6, r6, #2
   11ca6:	199e      	adds	r6, r3, r6
   11ca8:	c220      	stmia	r2!, {r5}
   11caa:	42b2      	cmp	r2, r6
   11cac:	d1fc      	bne.n	11ca8 <memset+0x6c>
   11cae:	2203      	movs	r2, #3
   11cb0:	4397      	bics	r7, r2
   11cb2:	3704      	adds	r7, #4
   11cb4:	19db      	adds	r3, r3, r7
   11cb6:	4014      	ands	r4, r2
   11cb8:	2c00      	cmp	r4, #0
   11cba:	d005      	beq.n	11cc8 <memset+0x8c>
   11cbc:	b2c9      	uxtb	r1, r1
   11cbe:	191c      	adds	r4, r3, r4
   11cc0:	7019      	strb	r1, [r3, #0]
   11cc2:	3301      	adds	r3, #1
   11cc4:	429c      	cmp	r4, r3
   11cc6:	d1fb      	bne.n	11cc0 <memset+0x84>
   11cc8:	bdf0      	pop	{r4, r5, r6, r7, pc}
   11cca:	0014      	movs	r4, r2
   11ccc:	0003      	movs	r3, r0
   11cce:	e7c6      	b.n	11c5e <memset+0x22>

00011cd0 <strcat>:
   11cd0:	b570      	push	{r4, r5, r6, lr}
   11cd2:	0005      	movs	r5, r0
   11cd4:	0783      	lsls	r3, r0, #30
   11cd6:	d116      	bne.n	11d06 <strcat+0x36>
   11cd8:	6802      	ldr	r2, [r0, #0]
   11cda:	4b0e      	ldr	r3, [pc, #56]	; (11d14 <strcat+0x44>)
   11cdc:	4c0e      	ldr	r4, [pc, #56]	; (11d18 <strcat+0x48>)
   11cde:	18d3      	adds	r3, r2, r3
   11ce0:	4393      	bics	r3, r2
   11ce2:	4223      	tst	r3, r4
   11ce4:	d10f      	bne.n	11d06 <strcat+0x36>
   11ce6:	3004      	adds	r0, #4
   11ce8:	6802      	ldr	r2, [r0, #0]
   11cea:	4b0a      	ldr	r3, [pc, #40]	; (11d14 <strcat+0x44>)
   11cec:	18d3      	adds	r3, r2, r3
   11cee:	4393      	bics	r3, r2
   11cf0:	4223      	tst	r3, r4
   11cf2:	d108      	bne.n	11d06 <strcat+0x36>
   11cf4:	3004      	adds	r0, #4
   11cf6:	6802      	ldr	r2, [r0, #0]
   11cf8:	4b06      	ldr	r3, [pc, #24]	; (11d14 <strcat+0x44>)
   11cfa:	18d3      	adds	r3, r2, r3
   11cfc:	4393      	bics	r3, r2
   11cfe:	4223      	tst	r3, r4
   11d00:	d0f1      	beq.n	11ce6 <strcat+0x16>
   11d02:	e000      	b.n	11d06 <strcat+0x36>
   11d04:	3001      	adds	r0, #1
   11d06:	7803      	ldrb	r3, [r0, #0]
   11d08:	2b00      	cmp	r3, #0
   11d0a:	d1fb      	bne.n	11d04 <strcat+0x34>
   11d0c:	f000 f806 	bl	11d1c <strcpy>
   11d10:	0028      	movs	r0, r5
   11d12:	bd70      	pop	{r4, r5, r6, pc}
   11d14:	fefefeff 	.word	0xfefefeff
   11d18:	80808080 	.word	0x80808080

00011d1c <strcpy>:
   11d1c:	1c03      	adds	r3, r0, #0
   11d1e:	780a      	ldrb	r2, [r1, #0]
   11d20:	3101      	adds	r1, #1
   11d22:	701a      	strb	r2, [r3, #0]
   11d24:	3301      	adds	r3, #1
   11d26:	2a00      	cmp	r2, #0
   11d28:	d1f9      	bne.n	11d1e <strcpy+0x2>
   11d2a:	4770      	bx	lr

00011d2c <strlen>:
   11d2c:	b510      	push	{r4, lr}
   11d2e:	0783      	lsls	r3, r0, #30
   11d30:	d025      	beq.n	11d7e <strlen+0x52>
   11d32:	7803      	ldrb	r3, [r0, #0]
   11d34:	2b00      	cmp	r3, #0
   11d36:	d024      	beq.n	11d82 <strlen+0x56>
   11d38:	0003      	movs	r3, r0
   11d3a:	2103      	movs	r1, #3
   11d3c:	e002      	b.n	11d44 <strlen+0x18>
   11d3e:	781a      	ldrb	r2, [r3, #0]
   11d40:	2a00      	cmp	r2, #0
   11d42:	d01a      	beq.n	11d7a <strlen+0x4e>
   11d44:	3301      	adds	r3, #1
   11d46:	420b      	tst	r3, r1
   11d48:	d1f9      	bne.n	11d3e <strlen+0x12>
   11d4a:	6819      	ldr	r1, [r3, #0]
   11d4c:	4a0e      	ldr	r2, [pc, #56]	; (11d88 <strlen+0x5c>)
   11d4e:	4c0f      	ldr	r4, [pc, #60]	; (11d8c <strlen+0x60>)
   11d50:	188a      	adds	r2, r1, r2
   11d52:	438a      	bics	r2, r1
   11d54:	4222      	tst	r2, r4
   11d56:	d106      	bne.n	11d66 <strlen+0x3a>
   11d58:	3304      	adds	r3, #4
   11d5a:	6819      	ldr	r1, [r3, #0]
   11d5c:	4a0a      	ldr	r2, [pc, #40]	; (11d88 <strlen+0x5c>)
   11d5e:	188a      	adds	r2, r1, r2
   11d60:	438a      	bics	r2, r1
   11d62:	4222      	tst	r2, r4
   11d64:	d0f8      	beq.n	11d58 <strlen+0x2c>
   11d66:	001a      	movs	r2, r3
   11d68:	781b      	ldrb	r3, [r3, #0]
   11d6a:	2b00      	cmp	r3, #0
   11d6c:	d003      	beq.n	11d76 <strlen+0x4a>
   11d6e:	3201      	adds	r2, #1
   11d70:	7811      	ldrb	r1, [r2, #0]
   11d72:	2900      	cmp	r1, #0
   11d74:	d1fb      	bne.n	11d6e <strlen+0x42>
   11d76:	1a10      	subs	r0, r2, r0
   11d78:	bd10      	pop	{r4, pc}
   11d7a:	1a18      	subs	r0, r3, r0
   11d7c:	e7fc      	b.n	11d78 <strlen+0x4c>
   11d7e:	0003      	movs	r3, r0
   11d80:	e7e3      	b.n	11d4a <strlen+0x1e>
   11d82:	2000      	movs	r0, #0
   11d84:	e7f8      	b.n	11d78 <strlen+0x4c>
   11d86:	46c0      	nop			; (mov r8, r8)
   11d88:	fefefeff 	.word	0xfefefeff
   11d8c:	80808080 	.word	0x80808080

00011d90 <__utoa>:
   11d90:	b5f0      	push	{r4, r5, r6, r7, lr}
   11d92:	4646      	mov	r6, r8
   11d94:	46d6      	mov	lr, sl
   11d96:	464f      	mov	r7, r9
   11d98:	b5c0      	push	{r6, r7, lr}
   11d9a:	b08a      	sub	sp, #40	; 0x28
   11d9c:	4690      	mov	r8, r2
   11d9e:	466a      	mov	r2, sp
   11da0:	4b1d      	ldr	r3, [pc, #116]	; (11e18 <__utoa+0x88>)
   11da2:	000d      	movs	r5, r1
   11da4:	0006      	movs	r6, r0
   11da6:	cb13      	ldmia	r3!, {r0, r1, r4}
   11da8:	c213      	stmia	r2!, {r0, r1, r4}
   11daa:	cb13      	ldmia	r3!, {r0, r1, r4}
   11dac:	c213      	stmia	r2!, {r0, r1, r4}
   11dae:	cb13      	ldmia	r3!, {r0, r1, r4}
   11db0:	c213      	stmia	r2!, {r0, r1, r4}
   11db2:	781b      	ldrb	r3, [r3, #0]
   11db4:	46ea      	mov	sl, sp
   11db6:	7013      	strb	r3, [r2, #0]
   11db8:	4643      	mov	r3, r8
   11dba:	3b02      	subs	r3, #2
   11dbc:	002f      	movs	r7, r5
   11dbe:	2400      	movs	r4, #0
   11dc0:	2b22      	cmp	r3, #34	; 0x22
   11dc2:	d901      	bls.n	11dc8 <__utoa+0x38>
   11dc4:	e024      	b.n	11e10 <__utoa+0x80>
   11dc6:	464c      	mov	r4, r9
   11dc8:	1c63      	adds	r3, r4, #1
   11dca:	0030      	movs	r0, r6
   11dcc:	4641      	mov	r1, r8
   11dce:	4699      	mov	r9, r3
   11dd0:	f7fe f8ec 	bl	ffac <__aeabi_uidivmod>
   11dd4:	4653      	mov	r3, sl
   11dd6:	5c5b      	ldrb	r3, [r3, r1]
   11dd8:	0030      	movs	r0, r6
   11dda:	703b      	strb	r3, [r7, #0]
   11ddc:	4641      	mov	r1, r8
   11dde:	f7fe f85f 	bl	fea0 <__udivsi3>
   11de2:	3701      	adds	r7, #1
   11de4:	1e06      	subs	r6, r0, #0
   11de6:	d1ee      	bne.n	11dc6 <__utoa+0x36>
   11de8:	464b      	mov	r3, r9
   11dea:	54e8      	strb	r0, [r5, r3]
   11dec:	2300      	movs	r3, #0
   11dee:	2c00      	cmp	r4, #0
   11df0:	d007      	beq.n	11e02 <__utoa+0x72>
   11df2:	5cea      	ldrb	r2, [r5, r3]
   11df4:	5d29      	ldrb	r1, [r5, r4]
   11df6:	54e9      	strb	r1, [r5, r3]
   11df8:	552a      	strb	r2, [r5, r4]
   11dfa:	3301      	adds	r3, #1
   11dfc:	3c01      	subs	r4, #1
   11dfe:	42a3      	cmp	r3, r4
   11e00:	dbf7      	blt.n	11df2 <__utoa+0x62>
   11e02:	0028      	movs	r0, r5
   11e04:	b00a      	add	sp, #40	; 0x28
   11e06:	bc1c      	pop	{r2, r3, r4}
   11e08:	4690      	mov	r8, r2
   11e0a:	4699      	mov	r9, r3
   11e0c:	46a2      	mov	sl, r4
   11e0e:	bdf0      	pop	{r4, r5, r6, r7, pc}
   11e10:	702c      	strb	r4, [r5, #0]
   11e12:	2000      	movs	r0, #0
   11e14:	e7f6      	b.n	11e04 <__utoa+0x74>
   11e16:	46c0      	nop			; (mov r8, r8)
   11e18:	00012568 	.word	0x00012568

00011e1c <register_fini>:
   11e1c:	4b03      	ldr	r3, [pc, #12]	; (11e2c <register_fini+0x10>)
   11e1e:	b510      	push	{r4, lr}
   11e20:	2b00      	cmp	r3, #0
   11e22:	d002      	beq.n	11e2a <register_fini+0xe>
   11e24:	4802      	ldr	r0, [pc, #8]	; (11e30 <register_fini+0x14>)
   11e26:	f000 f805 	bl	11e34 <atexit>
   11e2a:	bd10      	pop	{r4, pc}
   11e2c:	00000000 	.word	0x00000000
   11e30:	00011e45 	.word	0x00011e45

00011e34 <atexit>:
   11e34:	b510      	push	{r4, lr}
   11e36:	0001      	movs	r1, r0
   11e38:	2300      	movs	r3, #0
   11e3a:	2200      	movs	r2, #0
   11e3c:	2000      	movs	r0, #0
   11e3e:	f000 f81f 	bl	11e80 <__register_exitproc>
   11e42:	bd10      	pop	{r4, pc}

00011e44 <__libc_fini_array>:
   11e44:	b570      	push	{r4, r5, r6, lr}
   11e46:	4b09      	ldr	r3, [pc, #36]	; (11e6c <__libc_fini_array+0x28>)
   11e48:	4c09      	ldr	r4, [pc, #36]	; (11e70 <__libc_fini_array+0x2c>)
   11e4a:	1ae4      	subs	r4, r4, r3
   11e4c:	10a4      	asrs	r4, r4, #2
   11e4e:	d009      	beq.n	11e64 <__libc_fini_array+0x20>
   11e50:	4a08      	ldr	r2, [pc, #32]	; (11e74 <__libc_fini_array+0x30>)
   11e52:	18a5      	adds	r5, r4, r2
   11e54:	00ad      	lsls	r5, r5, #2
   11e56:	18ed      	adds	r5, r5, r3
   11e58:	682b      	ldr	r3, [r5, #0]
   11e5a:	3c01      	subs	r4, #1
   11e5c:	4798      	blx	r3
   11e5e:	3d04      	subs	r5, #4
   11e60:	2c00      	cmp	r4, #0
   11e62:	d1f9      	bne.n	11e58 <__libc_fini_array+0x14>
   11e64:	f000 fb9e 	bl	125a4 <_fini>
   11e68:	bd70      	pop	{r4, r5, r6, pc}
   11e6a:	46c0      	nop			; (mov r8, r8)
   11e6c:	000125b0 	.word	0x000125b0
   11e70:	000125b4 	.word	0x000125b4
   11e74:	3fffffff 	.word	0x3fffffff

00011e78 <__retarget_lock_acquire_recursive>:
   11e78:	4770      	bx	lr
   11e7a:	46c0      	nop			; (mov r8, r8)

00011e7c <__retarget_lock_release_recursive>:
   11e7c:	4770      	bx	lr
   11e7e:	46c0      	nop			; (mov r8, r8)

00011e80 <__register_exitproc>:
   11e80:	b5f0      	push	{r4, r5, r6, r7, lr}
   11e82:	464e      	mov	r6, r9
   11e84:	4645      	mov	r5, r8
   11e86:	46de      	mov	lr, fp
   11e88:	4657      	mov	r7, sl
   11e8a:	b5e0      	push	{r5, r6, r7, lr}
   11e8c:	4d36      	ldr	r5, [pc, #216]	; (11f68 <__register_exitproc+0xe8>)
   11e8e:	b083      	sub	sp, #12
   11e90:	0006      	movs	r6, r0
   11e92:	6828      	ldr	r0, [r5, #0]
   11e94:	4698      	mov	r8, r3
   11e96:	000f      	movs	r7, r1
   11e98:	4691      	mov	r9, r2
   11e9a:	f7ff ffed 	bl	11e78 <__retarget_lock_acquire_recursive>
   11e9e:	4b33      	ldr	r3, [pc, #204]	; (11f6c <__register_exitproc+0xec>)
   11ea0:	681c      	ldr	r4, [r3, #0]
   11ea2:	23a4      	movs	r3, #164	; 0xa4
   11ea4:	005b      	lsls	r3, r3, #1
   11ea6:	58e0      	ldr	r0, [r4, r3]
   11ea8:	2800      	cmp	r0, #0
   11eaa:	d052      	beq.n	11f52 <__register_exitproc+0xd2>
   11eac:	6843      	ldr	r3, [r0, #4]
   11eae:	2b1f      	cmp	r3, #31
   11eb0:	dc13      	bgt.n	11eda <__register_exitproc+0x5a>
   11eb2:	1c5a      	adds	r2, r3, #1
   11eb4:	9201      	str	r2, [sp, #4]
   11eb6:	2e00      	cmp	r6, #0
   11eb8:	d128      	bne.n	11f0c <__register_exitproc+0x8c>
   11eba:	9a01      	ldr	r2, [sp, #4]
   11ebc:	3302      	adds	r3, #2
   11ebe:	009b      	lsls	r3, r3, #2
   11ec0:	6042      	str	r2, [r0, #4]
   11ec2:	501f      	str	r7, [r3, r0]
   11ec4:	6828      	ldr	r0, [r5, #0]
   11ec6:	f7ff ffd9 	bl	11e7c <__retarget_lock_release_recursive>
   11eca:	2000      	movs	r0, #0
   11ecc:	b003      	add	sp, #12
   11ece:	bc3c      	pop	{r2, r3, r4, r5}
   11ed0:	4690      	mov	r8, r2
   11ed2:	4699      	mov	r9, r3
   11ed4:	46a2      	mov	sl, r4
   11ed6:	46ab      	mov	fp, r5
   11ed8:	bdf0      	pop	{r4, r5, r6, r7, pc}
   11eda:	4b25      	ldr	r3, [pc, #148]	; (11f70 <__register_exitproc+0xf0>)
   11edc:	2b00      	cmp	r3, #0
   11ede:	d03d      	beq.n	11f5c <__register_exitproc+0xdc>
   11ee0:	20c8      	movs	r0, #200	; 0xc8
   11ee2:	0040      	lsls	r0, r0, #1
   11ee4:	e000      	b.n	11ee8 <__register_exitproc+0x68>
   11ee6:	bf00      	nop
   11ee8:	2800      	cmp	r0, #0
   11eea:	d037      	beq.n	11f5c <__register_exitproc+0xdc>
   11eec:	22a4      	movs	r2, #164	; 0xa4
   11eee:	2300      	movs	r3, #0
   11ef0:	0052      	lsls	r2, r2, #1
   11ef2:	58a1      	ldr	r1, [r4, r2]
   11ef4:	6043      	str	r3, [r0, #4]
   11ef6:	6001      	str	r1, [r0, #0]
   11ef8:	50a0      	str	r0, [r4, r2]
   11efa:	3240      	adds	r2, #64	; 0x40
   11efc:	5083      	str	r3, [r0, r2]
   11efe:	3204      	adds	r2, #4
   11f00:	5083      	str	r3, [r0, r2]
   11f02:	3301      	adds	r3, #1
   11f04:	9301      	str	r3, [sp, #4]
   11f06:	2300      	movs	r3, #0
   11f08:	2e00      	cmp	r6, #0
   11f0a:	d0d6      	beq.n	11eba <__register_exitproc+0x3a>
   11f0c:	009a      	lsls	r2, r3, #2
   11f0e:	4692      	mov	sl, r2
   11f10:	4482      	add	sl, r0
   11f12:	464a      	mov	r2, r9
   11f14:	2188      	movs	r1, #136	; 0x88
   11f16:	4654      	mov	r4, sl
   11f18:	5062      	str	r2, [r4, r1]
   11f1a:	22c4      	movs	r2, #196	; 0xc4
   11f1c:	0052      	lsls	r2, r2, #1
   11f1e:	4691      	mov	r9, r2
   11f20:	4481      	add	r9, r0
   11f22:	464a      	mov	r2, r9
   11f24:	3987      	subs	r1, #135	; 0x87
   11f26:	4099      	lsls	r1, r3
   11f28:	6812      	ldr	r2, [r2, #0]
   11f2a:	468b      	mov	fp, r1
   11f2c:	430a      	orrs	r2, r1
   11f2e:	4694      	mov	ip, r2
   11f30:	464a      	mov	r2, r9
   11f32:	4661      	mov	r1, ip
   11f34:	6011      	str	r1, [r2, #0]
   11f36:	2284      	movs	r2, #132	; 0x84
   11f38:	4641      	mov	r1, r8
   11f3a:	0052      	lsls	r2, r2, #1
   11f3c:	50a1      	str	r1, [r4, r2]
   11f3e:	2e02      	cmp	r6, #2
   11f40:	d1bb      	bne.n	11eba <__register_exitproc+0x3a>
   11f42:	0002      	movs	r2, r0
   11f44:	465c      	mov	r4, fp
   11f46:	328d      	adds	r2, #141	; 0x8d
   11f48:	32ff      	adds	r2, #255	; 0xff
   11f4a:	6811      	ldr	r1, [r2, #0]
   11f4c:	430c      	orrs	r4, r1
   11f4e:	6014      	str	r4, [r2, #0]
   11f50:	e7b3      	b.n	11eba <__register_exitproc+0x3a>
   11f52:	0020      	movs	r0, r4
   11f54:	304d      	adds	r0, #77	; 0x4d
   11f56:	30ff      	adds	r0, #255	; 0xff
   11f58:	50e0      	str	r0, [r4, r3]
   11f5a:	e7a7      	b.n	11eac <__register_exitproc+0x2c>
   11f5c:	6828      	ldr	r0, [r5, #0]
   11f5e:	f7ff ff8d 	bl	11e7c <__retarget_lock_release_recursive>
   11f62:	2001      	movs	r0, #1
   11f64:	4240      	negs	r0, r0
   11f66:	e7b1      	b.n	11ecc <__register_exitproc+0x4c>
   11f68:	200004c0 	.word	0x200004c0
   11f6c:	00012564 	.word	0x00012564
   11f70:	00000000 	.word	0x00000000
   11f74:	746e650d 	.word	0x746e650d
   11f78:	646e6172 	.word	0x646e6172
   11f7c:	6d65206f 	.word	0x6d65206f
   11f80:	6e6f6320 	.word	0x6e6f6320
   11f84:	74726576 	.word	0x74726576
   11f88:	746e695f 	.word	0x746e695f
   11f8c:	5f6f745f 	.word	0x5f6f745f
   11f90:	69727473 	.word	0x69727473
   11f94:	0d0a676e 	.word	0x0d0a676e
   11f98:	00000000 	.word	0x00000000
   11f9c:	746e650d 	.word	0x746e650d
   11fa0:	646e6172 	.word	0x646e6172
   11fa4:	6d65206f 	.word	0x6d65206f
   11fa8:	6e657320 	.word	0x6e657320
   11fac:	656d5f64 	.word	0x656d5f64
   11fb0:	67617373 	.word	0x67617373
   11fb4:	000d0a65 	.word	0x000d0a65
   11fb8:	49245441 	.word	0x49245441
   11fbc:	0d30313d 	.word	0x0d30313d
   11fc0:	0000000a 	.word	0x0000000a
   11fc4:	49245441 	.word	0x49245441
   11fc8:	0d31313d 	.word	0x0d31313d
   11fcc:	0000000a 	.word	0x0000000a
   11fd0:	0a0d5441 	.word	0x0a0d5441
   11fd4:	00000000 	.word	0x00000000
   11fd8:	0a0d4b4f 	.word	0x0a0d4b4f
   11fdc:	00000000 	.word	0x00000000
   11fe0:	50245441 	.word	0x50245441
   11fe4:	0a0d313d 	.word	0x0a0d313d
   11fe8:	00000000 	.word	0x00000000
   11fec:	69646152 	.word	0x69646152
   11ff0:	7542206f 	.word	0x7542206f
   11ff4:	202c7973 	.word	0x202c7973
   11ff8:	20797274 	.word	0x20797274
   11ffc:	69616761 	.word	0x69616761
   12000:	616c206e 	.word	0x616c206e
   12004:	0d726574 	.word	0x0d726574
   12008:	0000000a 	.word	0x0000000a
   1200c:	47245441 	.word	0x47245441
   12010:	0a0d3f49 	.word	0x0a0d3f49
   12014:	00000000 	.word	0x00000000
   12018:	52245441 	.word	0x52245441
   1201c:	000a0d43 	.word	0x000a0d43
   12020:	53245441 	.word	0x53245441
   12024:	00003d46 	.word	0x00003d46
	...
   12040:	003d5852 	.word	0x003d5852
   12044:	53245441 	.word	0x53245441
   12048:	32313d46 	.word	0x32313d46
   1204c:	0a0d3433 	.word	0x0a0d3433
   12050:	00000000 	.word	0x00000000
   12054:	42000800 	.word	0x42000800
   12058:	42000c00 	.word	0x42000c00
   1205c:	42001000 	.word	0x42001000
   12060:	42001400 	.word	0x42001400
   12064:	42001800 	.word	0x42001800
   12068:	42001c00 	.word	0x42001c00
   1206c:	42002c00 	.word	0x42002c00
   12070:	42003000 	.word	0x42003000
   12074:	42003400 	.word	0x42003400
   12078:	001c1c1b 	.word	0x001c1c1b
   1207c:	10000800 	.word	0x10000800
   12080:	00002000 	.word	0x00002000

00012084 <ast_input_desc>:
   12084:	00008be9 00000001 00008c05 00000001     ................

00012094 <ast_input_states>:
   12094:	00050000 00000000 00050001 00010001     ................
   120a4:	00320002 00020002 00320003 00030003     ..2.......2.....

000120b4 <au8_lib_key>:
   120b4:	be483287 6fe83ed1 bf77fec2 2c0644c4     .2H..>.o..w..D.,
   120c4:	00005441 0a0d4b4f 00000000 56245441     AT..OK......AT$V
   120d4:	003f5245 204b4445 2042494c 302e3152     ER?.EDK LIB R1.0
   120e4:	00000a0d 53245441 003f4345 2062694c     ....AT$SEC?.Lib 
   120f4:	6563696c 6465736e 00000a0d 2062694c     licensed....Lib 
   12104:	20746f6e 6563696c 6465736e 00000a0d     not licensed....
   12114:	0000a55c 0000a55c 0000a550 0000a55c     \...\...P...\...
   12124:	0000a550 0000a52a 0000a52a 0000a55c     P...*...*...\...
   12134:	0000a55c 0000a55c 0000a55c 0000a55c     \...\...\...\...
   12144:	0000a55c 0000a55c 0000a55c 0000a55c     \...\...\...\...
   12154:	0000a55c 0000a55c 0000a55c 0000a55c     \...\...\...\...
   12164:	0000a55c 0000a55c 0000a55c 0000a55c     \...\...\...\...
   12174:	0000a55c 0000a55c 0000a55c 0000a55c     \...\...\...\...
   12184:	0000a55c 0000a55c 0000a55c 0000a55c     \...\...\...\...
   12194:	0000a55c 0000a55c 0000a55c 0000a55c     \...\...\...\...
   121a4:	0000a55c 0000a55c 0000a55c 0000a55c     \...\...\...\...
   121b4:	0000a55c 0000a55c 0000a55c 0000a55c     \...\...\...\...
   121c4:	0000a55c 0000a55c 0000a55c 0000a55c     \...\...\...\...
   121d4:	0000a55c 0000a55c 0000a55c 0000a55c     \...\...\...\...
   121e4:	0000a55c 0000a55c 0000a55c 0000a55c     \...\...\...\...
   121f4:	0000a55c 0000a55c 0000a55c 0000a55c     \...\...\...\...
   12204:	0000a55c 0000a55c 0000a55c 0000a55c     \...\...\...\...
   12214:	0000a550 0000a550 0000a566 0000a566     P...P...f...f...
   12224:	0000a566 0000a566                       f...f...

0001222c <st_gpio_config>:
   1222c:	00000122 00010005 00000006 00000036     "...........6...
   1223c:	0000010c 0000000f 0000000e 0000011b     ................
   1224c:	01000137 0000bdb6 0000bdfe 0000bdfe     7...............
   1225c:	0000bdd4 0000bdce 0000bdda 0000bdbc     ................
   1226c:	0000bde0 0000bde4 0000c06c 0000c0bc     ........l.......
   1227c:	0000c0bc 0000c0b8 0000c05e 0000c07e     ........^...~...
   1228c:	0000c04e 0000c090 0000c0a2 0000c10a     N...............
   1229c:	0000c138 0000c138 0000c134 0000c104     8...8...4.......
   122ac:	0000c110 0000c0fe 0000c116 0000c11c     ................

000122bc <g_sbox>:
   122bc:	7b777c63 c56f6bf2 2b670130 76abd7fe     c|w{.ko.0.g+...v
   122cc:	7dc982ca f04759fa afa2d4ad c072a49c     ...}.YG.......r.
   122dc:	2693fdb7 ccf73f36 f1e5a534 1531d871     ...&6?..4...q.1.
   122ec:	c323c704 9a059618 e2801207 75b227eb     ..#..........'.u
   122fc:	1a2c8309 a05a6e1b b3d63b52 842fe329     ..,..nZ.R;..)./.
   1230c:	ed00d153 5bb1fc20 39becb6a cf584c4a     S... ..[j..9JLX.
   1231c:	fbaaefd0 85334d43 7f02f945 a89f3c50     ....CM3.E...P<..
   1232c:	8f40a351 f5389d92 21dab6bc d2f3ff10     Q.@...8....!....
   1233c:	ec130ccd 1744975f 3d7ea7c4 73195d64     ...._.D...~=d].s
   1234c:	dc4f8160 88902a22 14b8ee46 db0b5ede     `.O."*..F....^..
   1235c:	0a3a32e0 5c240649 62acd3c2 79e49591     .2:.I.$\...b...y
   1236c:	6d37c8e7 a94ed58d eaf4566c 08ae7a65     ..7m..N.lV..ez..
   1237c:	2e2578ba c6b4a61c 1f74dde8 8a8bbd4b     .x%.......t.K...
   1238c:	66b53e70 0ef60348 b9573561 9e1dc186     p>.fH...a5W.....
   1239c:	1198f8e1 948ed969 e9871e9b df2855ce     ....i........U(.
   123ac:	0d89a18c 6842e6bf 0f2d9941 16bb54b0     ......BhA.-..T..

000123bc <g_rsbox>:
   123bc:	d56a0952 38a53630 9ea340bf fbd7f381     R.j.06.8.@......
   123cc:	8239e37c 87ff2f9b 44438e34 cbe9dec4     |.9../..4.CD....
   123dc:	32947b54 3d23c2a6 0b954cee 4ec3fa42     T{.2..#=.L..B..N
   123ec:	66a12e08 b224d928 49a25b76 25d18b6d     ...f(.$.v[.Im..%
   123fc:	64f6f872 16986886 cc5ca4d4 92b6655d     r..d.h....\.]e..
   1240c:	5048706c dab9edfd 5746155e 849d8da7     lpHP....^.FW....
   1241c:	00abd890 0ad3bc8c 0558e4f7 0645b3b8     ..........X...E.
   1242c:	8f1e2cd0 020f3fca 03bdafc1 6b8a1301     .,...?.........k
   1243c:	4111913a eadc674f cecff297 73e6b4f0     :..AOg.........s
   1244c:	2274ac96 8535ade7 e837f9e2 6edf751c     ..t"..5...7..u.n
   1245c:	711af147 89c5291d 0e62b76f 1bbe18aa     G..q.)..o.b.....
   1246c:	4b3e56fc 2079d2c6 fec0db9a f45acd78     .V>K..y ....x.Z.
   1247c:	33a8dd1f 31c70788 591012b1 5fec8027     ...3...1...Y'.._
   1248c:	a97f5160 0d4ab519 9f7ae52d ef9cc993     `Q....J.-.z.....
   1249c:	4d3be0a0 b0f52aae 3cbbebc8 61995383     ..;M.*.....<.S.a
   124ac:	7e042b17 26d677ba 631469e1 7d0c2155     .+.~.w.&.i.cU!.}

000124bc <g_rcon>:
   124bc:	0402018d 40201008 00361b80              ...... @..6.

000124c8 <_usb_device_irq_bits>:
   124c8:	00080004 00800070 01000001 00000200     ....p...........
   124d8:	41744545 50524f4d 456d752e 00010a60     EEtAMORP.umE`...
   124e8:	00010a42 000109fc 0001091a 000109fc     B...............
   124f8:	00010a34 000109fc 0001091a 00010a42     4...........B...
   12508:	00010a42 00010a34 0001091a 00010912     B...4...........
   12518:	00010912 00010912 00010c78 000110c0     ........x.......
   12528:	00010f80 00010f80 00010f7c 00011098     ........|.......
   12538:	00011098 0001108a 00010f7c 00011098     ........|.......
   12548:	0001108a 00011098 00010f7c 000110a0     ........|.......
   12558:	000110a0 000110a0 000112a4              ............

00012564 <_global_impure_ptr>:
   12564:	20000098 33323130 37363534 62613938     ... 0123456789ab
   12574:	66656463 6a696867 6e6d6c6b 7271706f     cdefghijklmnopqr
   12584:	76757473 7a797877 00000000              stuvwxyz....

00012590 <_init>:
   12590:	b5f8      	push	{r3, r4, r5, r6, r7, lr}
   12592:	46c0      	nop			; (mov r8, r8)
   12594:	bcf8      	pop	{r3, r4, r5, r6, r7}
   12596:	bc08      	pop	{r3}
   12598:	469e      	mov	lr, r3
   1259a:	4770      	bx	lr

0001259c <__init_array_start>:
   1259c:	00011e1d 	.word	0x00011e1d

000125a0 <__frame_dummy_init_array_entry>:
   125a0:	000060dd                                .`..

000125a4 <_fini>:
   125a4:	b5f8      	push	{r3, r4, r5, r6, r7, lr}
   125a6:	46c0      	nop			; (mov r8, r8)
   125a8:	bcf8      	pop	{r3, r4, r5, r6, r7}
   125aa:	bc08      	pop	{r3}
   125ac:	469e      	mov	lr, r3
   125ae:	4770      	bx	lr

000125b0 <__fini_array_start>:
   125b0:	000060b5 	.word	0x000060b5

Disassembly of section .relocate:

20000000 <portable_delay_cycles>:
20000000:	f3bf 8f5f 	dmb	sy
20000004:	3801      	subs	r0, #1
20000006:	2800      	cmp	r0, #0
20000008:	d1fa      	bne.n	20000000 <portable_delay_cycles>
2000000a:	4770      	bx	lr

2000000c <ID>:
2000000c:	0001 0000                                   ....

20000010 <horas>:
20000010:	0012 0000                                   ....

20000014 <raio>:
20000014:	000e 0000                                   ....

20000018 <direcao>:
20000018:	0001 0000                                   ....

2000001c <segundos>:
2000001c:	0037 0000                                   7...

20000020 <minutos>:
20000020:	0022 0000                                   "...

20000024 <__b_system_low_power_enabled__>:
20000024:	0001 0000                                   ....

20000028 <ast_debounce_input_table>:
20000028:	0ad4 2000 2094 0001 0ae8 2000 2094 0001     ... . ..... . ..

20000038 <g_interrupt_enabled>:
20000038:	0001 0000                                   ....

2000003c <ast_event_control_table>:
2000003c:	0001 0000 0000 0000 0002 0000 0000 0000     ................
2000004c:	0003 0000 0000 0000 0004 0000 0000 0000     ................
2000005c:	0005 0000 0000 0000 0006 0000 0000 0000     ................
2000006c:	0007 0000 0000 0000 0008 0000 0000 0000     ................
2000007c:	0009 0000 0000 0000 000a 0000 0000 0000     ................

2000008c <st_packet>:
2000008c:	0000 000a 0000 0000 0000 0000               ............

20000098 <impure_data>:
20000098:	0000 0000 0384 2000 03ec 2000 0454 2000     ....... ... T.. 
	...
20000140:	0001 0000 0000 0000 330e abcd 1234 e66d     .........3..4.m.
20000150:	deec 0005 000b 0000 0000 0000 0000 0000     ................
	...

200004c0 <__atexit_recursive_mutex>:
200004c0:	0e44 2000                                   D.. 
